
angr_management_test:     Dateiformat elf64-x86-64


Disassembly of section .init:

0000000000001000 <_init>:
    1000:	f3 0f 1e fa          	endbr64
    1004:	48 83 ec 08          	sub    rsp,0x8
    1008:	48 8b 05 d9 ff 00 00 	mov    rax,QWORD PTR [rip+0xffd9]        # 10fe8 <__gmon_start__@Base>
    100f:	48 85 c0             	test   rax,rax
    1012:	74 02                	je     1016 <_init+0x16>
    1014:	ff d0                	call   rax
    1016:	48 83 c4 08          	add    rsp,0x8
    101a:	c3                   	ret

Disassembly of section .plt:

0000000000001020 <.plt>:
    1020:	ff 35 62 ff 00 00    	push   QWORD PTR [rip+0xff62]        # 10f88 <_GLOBAL_OFFSET_TABLE_+0x8>
    1026:	f2 ff 25 63 ff 00 00 	bnd jmp QWORD PTR [rip+0xff63]        # 10f90 <_GLOBAL_OFFSET_TABLE_+0x10>
    102d:	0f 1f 00             	nop    DWORD PTR [rax]
    1030:	f3 0f 1e fa          	endbr64
    1034:	68 00 00 00 00       	push   0x0
    1039:	f2 e9 e1 ff ff ff    	bnd jmp 1020 <_init+0x20>
    103f:	90                   	nop
    1040:	f3 0f 1e fa          	endbr64
    1044:	68 01 00 00 00       	push   0x1
    1049:	f2 e9 d1 ff ff ff    	bnd jmp 1020 <_init+0x20>
    104f:	90                   	nop
    1050:	f3 0f 1e fa          	endbr64
    1054:	68 02 00 00 00       	push   0x2
    1059:	f2 e9 c1 ff ff ff    	bnd jmp 1020 <_init+0x20>
    105f:	90                   	nop
    1060:	f3 0f 1e fa          	endbr64
    1064:	68 03 00 00 00       	push   0x3
    1069:	f2 e9 b1 ff ff ff    	bnd jmp 1020 <_init+0x20>
    106f:	90                   	nop
    1070:	f3 0f 1e fa          	endbr64
    1074:	68 04 00 00 00       	push   0x4
    1079:	f2 e9 a1 ff ff ff    	bnd jmp 1020 <_init+0x20>
    107f:	90                   	nop
    1080:	f3 0f 1e fa          	endbr64
    1084:	68 05 00 00 00       	push   0x5
    1089:	f2 e9 91 ff ff ff    	bnd jmp 1020 <_init+0x20>
    108f:	90                   	nop
    1090:	f3 0f 1e fa          	endbr64
    1094:	68 06 00 00 00       	push   0x6
    1099:	f2 e9 81 ff ff ff    	bnd jmp 1020 <_init+0x20>
    109f:	90                   	nop
    10a0:	f3 0f 1e fa          	endbr64
    10a4:	68 07 00 00 00       	push   0x7
    10a9:	f2 e9 71 ff ff ff    	bnd jmp 1020 <_init+0x20>
    10af:	90                   	nop

Disassembly of section .plt.got:

00000000000010b0 <__cxa_finalize@plt>:
    10b0:	f3 0f 1e fa          	endbr64
    10b4:	f2 ff 25 3d ff 00 00 	bnd jmp QWORD PTR [rip+0xff3d]        # 10ff8 <__cxa_finalize@GLIBC_2.2.5>
    10bb:	0f 1f 44 00 00       	nop    DWORD PTR [rax+rax*1+0x0]

Disassembly of section .plt.sec:

00000000000010c0 <puts@plt>:
    10c0:	f3 0f 1e fa          	endbr64
    10c4:	f2 ff 25 cd fe 00 00 	bnd jmp QWORD PTR [rip+0xfecd]        # 10f98 <puts@GLIBC_2.2.5>
    10cb:	0f 1f 44 00 00       	nop    DWORD PTR [rax+rax*1+0x0]

00000000000010d0 <__stack_chk_fail@plt>:
    10d0:	f3 0f 1e fa          	endbr64
    10d4:	f2 ff 25 c5 fe 00 00 	bnd jmp QWORD PTR [rip+0xfec5]        # 10fa0 <__stack_chk_fail@GLIBC_2.4>
    10db:	0f 1f 44 00 00       	nop    DWORD PTR [rax+rax*1+0x0]

00000000000010e0 <setbuf@plt>:
    10e0:	f3 0f 1e fa          	endbr64
    10e4:	f2 ff 25 bd fe 00 00 	bnd jmp QWORD PTR [rip+0xfebd]        # 10fa8 <setbuf@GLIBC_2.2.5>
    10eb:	0f 1f 44 00 00       	nop    DWORD PTR [rax+rax*1+0x0]

00000000000010f0 <printf@plt>:
    10f0:	f3 0f 1e fa          	endbr64
    10f4:	f2 ff 25 b5 fe 00 00 	bnd jmp QWORD PTR [rip+0xfeb5]        # 10fb0 <printf@GLIBC_2.2.5>
    10fb:	0f 1f 44 00 00       	nop    DWORD PTR [rax+rax*1+0x0]

0000000000001100 <strcspn@plt>:
    1100:	f3 0f 1e fa          	endbr64
    1104:	f2 ff 25 ad fe 00 00 	bnd jmp QWORD PTR [rip+0xfead]        # 10fb8 <strcspn@GLIBC_2.2.5>
    110b:	0f 1f 44 00 00       	nop    DWORD PTR [rax+rax*1+0x0]

0000000000001110 <fgets@plt>:
    1110:	f3 0f 1e fa          	endbr64
    1114:	f2 ff 25 a5 fe 00 00 	bnd jmp QWORD PTR [rip+0xfea5]        # 10fc0 <fgets@GLIBC_2.2.5>
    111b:	0f 1f 44 00 00       	nop    DWORD PTR [rax+rax*1+0x0]

0000000000001120 <strtol@plt>:
    1120:	f3 0f 1e fa          	endbr64
    1124:	f2 ff 25 9d fe 00 00 	bnd jmp QWORD PTR [rip+0xfe9d]        # 10fc8 <strtol@GLIBC_2.2.5>
    112b:	0f 1f 44 00 00       	nop    DWORD PTR [rax+rax*1+0x0]

0000000000001130 <exit@plt>:
    1130:	f3 0f 1e fa          	endbr64
    1134:	f2 ff 25 95 fe 00 00 	bnd jmp QWORD PTR [rip+0xfe95]        # 10fd0 <exit@GLIBC_2.2.5>
    113b:	0f 1f 44 00 00       	nop    DWORD PTR [rax+rax*1+0x0]

Disassembly of section .text:

0000000000001140 <_start>:
    1140:	f3 0f 1e fa          	endbr64
    1144:	31 ed                	xor    ebp,ebp
    1146:	49 89 d1             	mov    r9,rdx
    1149:	5e                   	pop    rsi
    114a:	48 89 e2             	mov    rdx,rsp
    114d:	48 83 e4 f0          	and    rsp,0xfffffffffffffff0
    1151:	50                   	push   rax
    1152:	54                   	push   rsp
    1153:	45 31 c0             	xor    r8d,r8d
    1156:	31 c9                	xor    ecx,ecx
    1158:	48 8d 3d b8 01 00 00 	lea    rdi,[rip+0x1b8]        # 1317 <main>
    115f:	ff 15 73 fe 00 00    	call   QWORD PTR [rip+0xfe73]        # 10fd8 <__libc_start_main@GLIBC_2.34>
    1165:	f4                   	hlt
    1166:	66 2e 0f 1f 84 00 00 	cs nop WORD PTR [rax+rax*1+0x0]
    116d:	00 00 00 

0000000000001170 <deregister_tm_clones>:
    1170:	48 8d 3d 99 fe 00 00 	lea    rdi,[rip+0xfe99]        # 11010 <__TMC_END__>
    1177:	48 8d 05 92 fe 00 00 	lea    rax,[rip+0xfe92]        # 11010 <__TMC_END__>
    117e:	48 39 f8             	cmp    rax,rdi
    1181:	74 15                	je     1198 <deregister_tm_clones+0x28>
    1183:	48 8b 05 56 fe 00 00 	mov    rax,QWORD PTR [rip+0xfe56]        # 10fe0 <_ITM_deregisterTMCloneTable@Base>
    118a:	48 85 c0             	test   rax,rax
    118d:	74 09                	je     1198 <deregister_tm_clones+0x28>
    118f:	ff e0                	jmp    rax
    1191:	0f 1f 80 00 00 00 00 	nop    DWORD PTR [rax+0x0]
    1198:	c3                   	ret
    1199:	0f 1f 80 00 00 00 00 	nop    DWORD PTR [rax+0x0]

00000000000011a0 <register_tm_clones>:
    11a0:	48 8d 3d 69 fe 00 00 	lea    rdi,[rip+0xfe69]        # 11010 <__TMC_END__>
    11a7:	48 8d 35 62 fe 00 00 	lea    rsi,[rip+0xfe62]        # 11010 <__TMC_END__>
    11ae:	48 29 fe             	sub    rsi,rdi
    11b1:	48 89 f0             	mov    rax,rsi
    11b4:	48 c1 ee 3f          	shr    rsi,0x3f
    11b8:	48 c1 f8 03          	sar    rax,0x3
    11bc:	48 01 c6             	add    rsi,rax
    11bf:	48 d1 fe             	sar    rsi,1
    11c2:	74 14                	je     11d8 <register_tm_clones+0x38>
    11c4:	48 8b 05 25 fe 00 00 	mov    rax,QWORD PTR [rip+0xfe25]        # 10ff0 <_ITM_registerTMCloneTable@Base>
    11cb:	48 85 c0             	test   rax,rax
    11ce:	74 08                	je     11d8 <register_tm_clones+0x38>
    11d0:	ff e0                	jmp    rax
    11d2:	66 0f 1f 44 00 00    	nop    WORD PTR [rax+rax*1+0x0]
    11d8:	c3                   	ret
    11d9:	0f 1f 80 00 00 00 00 	nop    DWORD PTR [rax+0x0]

00000000000011e0 <__do_global_dtors_aux>:
    11e0:	f3 0f 1e fa          	endbr64
    11e4:	80 3d 5d fe 00 00 00 	cmp    BYTE PTR [rip+0xfe5d],0x0        # 11048 <completed.0>
    11eb:	75 2b                	jne    1218 <__do_global_dtors_aux+0x38>
    11ed:	55                   	push   rbp
    11ee:	48 83 3d 02 fe 00 00 	cmp    QWORD PTR [rip+0xfe02],0x0        # 10ff8 <__cxa_finalize@GLIBC_2.2.5>
    11f5:	00 
    11f6:	48 89 e5             	mov    rbp,rsp
    11f9:	74 0c                	je     1207 <__do_global_dtors_aux+0x27>
    11fb:	48 8b 3d 06 fe 00 00 	mov    rdi,QWORD PTR [rip+0xfe06]        # 11008 <__dso_handle>
    1202:	e8 a9 fe ff ff       	call   10b0 <__cxa_finalize@plt>
    1207:	e8 64 ff ff ff       	call   1170 <deregister_tm_clones>
    120c:	c6 05 35 fe 00 00 01 	mov    BYTE PTR [rip+0xfe35],0x1        # 11048 <completed.0>
    1213:	5d                   	pop    rbp
    1214:	c3                   	ret
    1215:	0f 1f 00             	nop    DWORD PTR [rax]
    1218:	c3                   	ret
    1219:	0f 1f 80 00 00 00 00 	nop    DWORD PTR [rax+0x0]

0000000000001220 <frame_dummy>:
    1220:	f3 0f 1e fa          	endbr64
    1224:	e9 77 ff ff ff       	jmp    11a0 <register_tm_clones>

0000000000001229 <flush_buf>:
    1229:	f3 0f 1e fa          	endbr64
    122d:	55                   	push   rbp
    122e:	48 89 e5             	mov    rbp,rsp
    1231:	48 8b 05 f8 fd 00 00 	mov    rax,QWORD PTR [rip+0xfdf8]        # 11030 <stdin@GLIBC_2.2.5>
    1238:	be 00 00 00 00       	mov    esi,0x0
    123d:	48 89 c7             	mov    rdi,rax
    1240:	e8 9b fe ff ff       	call   10e0 <setbuf@plt>
    1245:	48 8b 05 d4 fd 00 00 	mov    rax,QWORD PTR [rip+0xfdd4]        # 11020 <stdout@GLIBC_2.2.5>
    124c:	be 00 00 00 00       	mov    esi,0x0
    1251:	48 89 c7             	mov    rdi,rax
    1254:	e8 87 fe ff ff       	call   10e0 <setbuf@plt>
    1259:	48 8b 05 e0 fd 00 00 	mov    rax,QWORD PTR [rip+0xfde0]        # 11040 <stderr@GLIBC_2.2.5>
    1260:	be 00 00 00 00       	mov    esi,0x0
    1265:	48 89 c7             	mov    rdi,rax
    1268:	e8 73 fe ff ff       	call   10e0 <setbuf@plt>
    126d:	90                   	nop
    126e:	5d                   	pop    rbp
    126f:	c3                   	ret

0000000000001270 <get_input>:
    1270:	f3 0f 1e fa          	endbr64
    1274:	55                   	push   rbp
    1275:	48 89 e5             	mov    rbp,rsp
    1278:	48 83 ec 20          	sub    rsp,0x20
    127c:	64 48 8b 04 25 28 00 	mov    rax,QWORD PTR fs:0x28
    1283:	00 00 
    1285:	48 89 45 f8          	mov    QWORD PTR [rbp-0x8],rax
    1289:	31 c0                	xor    eax,eax
    128b:	c7 45 f3 00 00 00 00 	mov    DWORD PTR [rbp-0xd],0x0
    1292:	c6 45 f7 00          	mov    BYTE PTR [rbp-0x9],0x0
    1296:	48 8b 15 93 fd 00 00 	mov    rdx,QWORD PTR [rip+0xfd93]        # 11030 <stdin@GLIBC_2.2.5>
    129d:	48 8d 45 f3          	lea    rax,[rbp-0xd]
    12a1:	be 05 00 00 00       	mov    esi,0x5
    12a6:	48 89 c7             	mov    rdi,rax
    12a9:	e8 62 fe ff ff       	call   1110 <fgets@plt>
    12ae:	48 85 c0             	test   rax,rax
    12b1:	74 44                	je     12f7 <get_input+0x87>
    12b3:	48 8d 45 f3          	lea    rax,[rbp-0xd]
    12b7:	48 8d 15 4a dd 00 00 	lea    rdx,[rip+0xdd4a]        # f008 <_IO_stdin_used+0x8>
    12be:	48 89 d6             	mov    rsi,rdx
    12c1:	48 89 c7             	mov    rdi,rax
    12c4:	e8 37 fe ff ff       	call   1100 <strcspn@plt>
    12c9:	c6 44 05 f3 00       	mov    BYTE PTR [rbp+rax*1-0xd],0x0
    12ce:	48 8d 4d e8          	lea    rcx,[rbp-0x18]
    12d2:	48 8d 45 f3          	lea    rax,[rbp-0xd]
    12d6:	ba 0a 00 00 00       	mov    edx,0xa
    12db:	48 89 ce             	mov    rsi,rcx
    12de:	48 89 c7             	mov    rdi,rax
    12e1:	e8 3a fe ff ff       	call   1120 <strtol@plt>
    12e6:	48 8b 55 f8          	mov    rdx,QWORD PTR [rbp-0x8]
    12ea:	64 48 2b 14 25 28 00 	sub    rdx,QWORD PTR fs:0x28
    12f1:	00 00 
    12f3:	74 20                	je     1315 <get_input+0xa5>
    12f5:	eb 19                	jmp    1310 <get_input+0xa0>
    12f7:	48 8d 05 0c dd 00 00 	lea    rax,[rip+0xdd0c]        # f00a <_IO_stdin_used+0xa>
    12fe:	48 89 c7             	mov    rdi,rax
    1301:	e8 ba fd ff ff       	call   10c0 <puts@plt>
    1306:	bf 01 00 00 00       	mov    edi,0x1
    130b:	e8 20 fe ff ff       	call   1130 <exit@plt>
    1310:	e8 bb fd ff ff       	call   10d0 <__stack_chk_fail@plt>
    1315:	c9                   	leave
    1316:	c3                   	ret

0000000000001317 <main>:
    1317:	f3 0f 1e fa          	endbr64
    131b:	55                   	push   rbp
    131c:	48 89 e5             	mov    rbp,rsp
    131f:	48 83 ec 10          	sub    rsp,0x10
    1323:	be 00 00 00 00       	mov    esi,0x0
    1328:	48 8d 05 ea dc 00 00 	lea    rax,[rip+0xdcea]        # f019 <_IO_stdin_used+0x19>
    132f:	48 89 c7             	mov    rdi,rax
    1332:	b8 00 00 00 00       	mov    eax,0x0
    1337:	e8 b4 fd ff ff       	call   10f0 <printf@plt>
    133c:	b8 00 00 00 00       	mov    eax,0x0
    1341:	e8 2a ff ff ff       	call   1270 <get_input>
    1346:	89 45 fc             	mov    DWORD PTR [rbp-0x4],eax
    1349:	81 7d fc 00 01 00 00 	cmp    DWORD PTR [rbp-0x4],0x100
    1350:	75 05                	jne    1357 <main+0x40>
    1352:	e9 11 59 00 00       	jmp    6c68 <main+0x5951>
    1357:	83 7d fc 58          	cmp    DWORD PTR [rbp-0x4],0x58
    135b:	0f 84 31 1e 00 00    	je     3192 <main+0x1e7b>
    1361:	48 8d 05 c0 dc 00 00 	lea    rax,[rip+0xdcc0]        # f028 <_IO_stdin_used+0x28>
    1368:	48 89 c7             	mov    rdi,rax
    136b:	e8 50 fd ff ff       	call   10c0 <puts@plt>
    1370:	bf 01 00 00 00       	mov    edi,0x1
    1375:	e8 b6 fd ff ff       	call   1130 <exit@plt>
    137a:	90                   	nop
    137b:	be 01 00 00 00       	mov    esi,0x1
    1380:	48 8d 05 92 dc 00 00 	lea    rax,[rip+0xdc92]        # f019 <_IO_stdin_used+0x19>
    1387:	48 89 c7             	mov    rdi,rax
    138a:	b8 00 00 00 00       	mov    eax,0x0
    138f:	e8 5c fd ff ff       	call   10f0 <printf@plt>
    1394:	b8 00 00 00 00       	mov    eax,0x0
    1399:	e8 d2 fe ff ff       	call   1270 <get_input>
    139e:	89 45 fc             	mov    DWORD PTR [rbp-0x4],eax
    13a1:	81 7d fc c5 01 00 00 	cmp    DWORD PTR [rbp-0x4],0x1c5
    13a8:	75 05                	jne    13af <main+0x98>
    13aa:	e9 dd 9d 00 00       	jmp    b18c <main+0x9e75>
    13af:	48 8d 05 72 dc 00 00 	lea    rax,[rip+0xdc72]        # f028 <_IO_stdin_used+0x28>
    13b6:	48 89 c7             	mov    rdi,rax
    13b9:	e8 02 fd ff ff       	call   10c0 <puts@plt>
    13be:	bf 01 00 00 00       	mov    edi,0x1
    13c3:	e8 68 fd ff ff       	call   1130 <exit@plt>
    13c8:	90                   	nop
    13c9:	be 02 00 00 00       	mov    esi,0x2
    13ce:	48 8d 05 44 dc 00 00 	lea    rax,[rip+0xdc44]        # f019 <_IO_stdin_used+0x19>
    13d5:	48 89 c7             	mov    rdi,rax
    13d8:	b8 00 00 00 00       	mov    eax,0x0
    13dd:	e8 0e fd ff ff       	call   10f0 <printf@plt>
    13e2:	b8 00 00 00 00       	mov    eax,0x0
    13e7:	e8 84 fe ff ff       	call   1270 <get_input>
    13ec:	89 45 fc             	mov    DWORD PTR [rbp-0x4],eax
    13ef:	81 7d fc c2 00 00 00 	cmp    DWORD PTR [rbp-0x4],0xc2
    13f6:	75 05                	jne    13fd <main+0xe6>
    13f8:	e9 e9 42 00 00       	jmp    56e6 <main+0x43cf>
    13fd:	48 8d 05 24 dc 00 00 	lea    rax,[rip+0xdc24]        # f028 <_IO_stdin_used+0x28>
    1404:	48 89 c7             	mov    rdi,rax
    1407:	e8 b4 fc ff ff       	call   10c0 <puts@plt>
    140c:	bf 01 00 00 00       	mov    edi,0x1
    1411:	e8 1a fd ff ff       	call   1130 <exit@plt>
    1416:	90                   	nop
    1417:	be 03 00 00 00       	mov    esi,0x3
    141c:	48 8d 05 f6 db 00 00 	lea    rax,[rip+0xdbf6]        # f019 <_IO_stdin_used+0x19>
    1423:	48 89 c7             	mov    rdi,rax
    1426:	b8 00 00 00 00       	mov    eax,0x0
    142b:	e8 c0 fc ff ff       	call   10f0 <printf@plt>
    1430:	b8 00 00 00 00       	mov    eax,0x0
    1435:	e8 36 fe ff ff       	call   1270 <get_input>
    143a:	89 45 fc             	mov    DWORD PTR [rbp-0x4],eax
    143d:	81 7d fc ea 01 00 00 	cmp    DWORD PTR [rbp-0x4],0x1ea
    1444:	75 05                	jne    144b <main+0x134>
    1446:	e9 f6 a9 00 00       	jmp    be41 <main+0xab2a>
    144b:	48 8d 05 d6 db 00 00 	lea    rax,[rip+0xdbd6]        # f028 <_IO_stdin_used+0x28>
    1452:	48 89 c7             	mov    rdi,rax
    1455:	e8 66 fc ff ff       	call   10c0 <puts@plt>
    145a:	bf 01 00 00 00       	mov    edi,0x1
    145f:	e8 cc fc ff ff       	call   1130 <exit@plt>
    1464:	be 04 00 00 00       	mov    esi,0x4
    1469:	48 8d 05 a9 db 00 00 	lea    rax,[rip+0xdba9]        # f019 <_IO_stdin_used+0x19>
    1470:	48 89 c7             	mov    rdi,rax
    1473:	b8 00 00 00 00       	mov    eax,0x0
    1478:	e8 73 fc ff ff       	call   10f0 <printf@plt>
    147d:	b8 00 00 00 00       	mov    eax,0x0
    1482:	e8 e9 fd ff ff       	call   1270 <get_input>
    1487:	89 45 fc             	mov    DWORD PTR [rbp-0x4],eax
    148a:	81 7d fc dc 00 00 00 	cmp    DWORD PTR [rbp-0x4],0xdc
    1491:	75 05                	jne    1498 <main+0x181>
    1493:	e9 35 4b 00 00       	jmp    5fcd <main+0x4cb6>
    1498:	83 7d fc 65          	cmp    DWORD PTR [rbp-0x4],0x65
    149c:	75 05                	jne    14a3 <main+0x18c>
    149e:	e9 7a 21 00 00       	jmp    361d <main+0x2306>
    14a3:	81 7d fc 7b 01 00 00 	cmp    DWORD PTR [rbp-0x4],0x17b
    14aa:	75 05                	jne    14b1 <main+0x19a>
    14ac:	e9 8e 82 00 00       	jmp    973f <main+0x8428>
    14b1:	48 8d 05 70 db 00 00 	lea    rax,[rip+0xdb70]        # f028 <_IO_stdin_used+0x28>
    14b8:	48 89 c7             	mov    rdi,rax
    14bb:	e8 00 fc ff ff       	call   10c0 <puts@plt>
    14c0:	bf 01 00 00 00       	mov    edi,0x1
    14c5:	e8 66 fc ff ff       	call   1130 <exit@plt>
    14ca:	90                   	nop
    14cb:	be 05 00 00 00       	mov    esi,0x5
    14d0:	48 8d 05 42 db 00 00 	lea    rax,[rip+0xdb42]        # f019 <_IO_stdin_used+0x19>
    14d7:	48 89 c7             	mov    rdi,rax
    14da:	b8 00 00 00 00       	mov    eax,0x0
    14df:	e8 0c fc ff ff       	call   10f0 <printf@plt>
    14e4:	b8 00 00 00 00       	mov    eax,0x0
    14e9:	e8 82 fd ff ff       	call   1270 <get_input>
    14ee:	89 45 fc             	mov    DWORD PTR [rbp-0x4],eax
    14f1:	81 7d fc 26 02 00 00 	cmp    DWORD PTR [rbp-0x4],0x226
    14f8:	75 05                	jne    14ff <main+0x1e8>
    14fa:	e9 e5 bd 00 00       	jmp    d2e4 <main+0xbfcd>
    14ff:	48 8d 05 22 db 00 00 	lea    rax,[rip+0xdb22]        # f028 <_IO_stdin_used+0x28>
    1506:	48 89 c7             	mov    rdi,rax
    1509:	e8 b2 fb ff ff       	call   10c0 <puts@plt>
    150e:	bf 01 00 00 00       	mov    edi,0x1
    1513:	e8 18 fc ff ff       	call   1130 <exit@plt>
    1518:	be 06 00 00 00       	mov    esi,0x6
    151d:	48 8d 05 f5 da 00 00 	lea    rax,[rip+0xdaf5]        # f019 <_IO_stdin_used+0x19>
    1524:	48 89 c7             	mov    rdi,rax
    1527:	b8 00 00 00 00       	mov    eax,0x0
    152c:	e8 bf fb ff ff       	call   10f0 <printf@plt>
    1531:	b8 00 00 00 00       	mov    eax,0x0
    1536:	e8 35 fd ff ff       	call   1270 <get_input>
    153b:	89 45 fc             	mov    DWORD PTR [rbp-0x4],eax
    153e:	83 7d fc 0f          	cmp    DWORD PTR [rbp-0x4],0xf
    1542:	75 05                	jne    1549 <main+0x232>
    1544:	e9 e6 02 00 00       	jmp    182f <main+0x518>
    1549:	81 7d fc de 01 00 00 	cmp    DWORD PTR [rbp-0x4],0x1de
    1550:	0f 84 e0 a4 00 00    	je     ba36 <main+0xa71f>
    1556:	48 8d 05 cb da 00 00 	lea    rax,[rip+0xdacb]        # f028 <_IO_stdin_used+0x28>
    155d:	48 89 c7             	mov    rdi,rax
    1560:	e8 5b fb ff ff       	call   10c0 <puts@plt>
    1565:	bf 01 00 00 00       	mov    edi,0x1
    156a:	e8 c1 fb ff ff       	call   1130 <exit@plt>
    156f:	90                   	nop
    1570:	be 07 00 00 00       	mov    esi,0x7
    1575:	48 8d 05 9d da 00 00 	lea    rax,[rip+0xda9d]        # f019 <_IO_stdin_used+0x19>
    157c:	48 89 c7             	mov    rdi,rax
    157f:	b8 00 00 00 00       	mov    eax,0x0
    1584:	e8 67 fb ff ff       	call   10f0 <printf@plt>
    1589:	b8 00 00 00 00       	mov    eax,0x0
    158e:	e8 dd fc ff ff       	call   1270 <get_input>
    1593:	89 45 fc             	mov    DWORD PTR [rbp-0x4],eax
    1596:	81 7d fc 66 02 00 00 	cmp    DWORD PTR [rbp-0x4],0x266
    159d:	75 05                	jne    15a4 <main+0x28d>
    159f:	e9 ae d4 00 00       	jmp    ea52 <main+0xd73b>
    15a4:	48 8d 05 7d da 00 00 	lea    rax,[rip+0xda7d]        # f028 <_IO_stdin_used+0x28>
    15ab:	48 89 c7             	mov    rdi,rax
    15ae:	e8 0d fb ff ff       	call   10c0 <puts@plt>
    15b3:	bf 01 00 00 00       	mov    edi,0x1
    15b8:	e8 73 fb ff ff       	call   1130 <exit@plt>
    15bd:	be 08 00 00 00       	mov    esi,0x8
    15c2:	48 8d 05 50 da 00 00 	lea    rax,[rip+0xda50]        # f019 <_IO_stdin_used+0x19>
    15c9:	48 89 c7             	mov    rdi,rax
    15cc:	b8 00 00 00 00       	mov    eax,0x0
    15d1:	e8 1a fb ff ff       	call   10f0 <printf@plt>
    15d6:	b8 00 00 00 00       	mov    eax,0x0
    15db:	e8 90 fc ff ff       	call   1270 <get_input>
    15e0:	89 45 fc             	mov    DWORD PTR [rbp-0x4],eax
    15e3:	83 7d fc 5f          	cmp    DWORD PTR [rbp-0x4],0x5f
    15e7:	75 05                	jne    15ee <main+0x2d7>
    15e9:	e9 17 1e 00 00       	jmp    3405 <main+0x20ee>
    15ee:	83 7d fc 26          	cmp    DWORD PTR [rbp-0x4],0x26
    15f2:	0f 84 53 0a 00 00    	je     204b <main+0xd34>
    15f8:	48 8d 05 29 da 00 00 	lea    rax,[rip+0xda29]        # f028 <_IO_stdin_used+0x28>
    15ff:	48 89 c7             	mov    rdi,rax
    1602:	e8 b9 fa ff ff       	call   10c0 <puts@plt>
    1607:	bf 01 00 00 00       	mov    edi,0x1
    160c:	e8 1f fb ff ff       	call   1130 <exit@plt>
    1611:	be 09 00 00 00       	mov    esi,0x9
    1616:	48 8d 05 fc d9 00 00 	lea    rax,[rip+0xd9fc]        # f019 <_IO_stdin_used+0x19>
    161d:	48 89 c7             	mov    rdi,rax
    1620:	b8 00 00 00 00       	mov    eax,0x0
    1625:	e8 c6 fa ff ff       	call   10f0 <printf@plt>
    162a:	b8 00 00 00 00       	mov    eax,0x0
    162f:	e8 3c fc ff ff       	call   1270 <get_input>
    1634:	89 45 fc             	mov    DWORD PTR [rbp-0x4],eax
    1637:	81 7d fc 74 01 00 00 	cmp    DWORD PTR [rbp-0x4],0x174
    163e:	75 05                	jne    1645 <main+0x32e>
    1640:	e9 92 7e 00 00       	jmp    94d7 <main+0x81c0>
    1645:	81 7d fc 61 02 00 00 	cmp    DWORD PTR [rbp-0x4],0x261
    164c:	75 05                	jne    1653 <main+0x33c>
    164e:	e9 31 d2 00 00       	jmp    e884 <main+0xd56d>
    1653:	81 7d fc 22 02 00 00 	cmp    DWORD PTR [rbp-0x4],0x222
    165a:	75 05                	jne    1661 <main+0x34a>
    165c:	e9 0c bb 00 00       	jmp    d16d <main+0xbe56>
    1661:	48 8d 05 c0 d9 00 00 	lea    rax,[rip+0xd9c0]        # f028 <_IO_stdin_used+0x28>
    1668:	48 89 c7             	mov    rdi,rax
    166b:	e8 50 fa ff ff       	call   10c0 <puts@plt>
    1670:	bf 01 00 00 00       	mov    edi,0x1
    1675:	e8 b6 fa ff ff       	call   1130 <exit@plt>
    167a:	be 0a 00 00 00       	mov    esi,0xa
    167f:	48 8d 05 93 d9 00 00 	lea    rax,[rip+0xd993]        # f019 <_IO_stdin_used+0x19>
    1686:	48 89 c7             	mov    rdi,rax
    1689:	b8 00 00 00 00       	mov    eax,0x0
    168e:	e8 5d fa ff ff       	call   10f0 <printf@plt>
    1693:	b8 00 00 00 00       	mov    eax,0x0
    1698:	e8 d3 fb ff ff       	call   1270 <get_input>
    169d:	89 45 fc             	mov    DWORD PTR [rbp-0x4],eax
    16a0:	81 7d fc b7 01 00 00 	cmp    DWORD PTR [rbp-0x4],0x1b7
    16a7:	75 05                	jne    16ae <main+0x397>
    16a9:	e9 d2 95 00 00       	jmp    ac80 <main+0x9969>
    16ae:	81 7d fc 14 02 00 00 	cmp    DWORD PTR [rbp-0x4],0x214
    16b5:	0f 84 e4 b5 00 00    	je     cc9f <main+0xb988>
    16bb:	48 8d 05 66 d9 00 00 	lea    rax,[rip+0xd966]        # f028 <_IO_stdin_used+0x28>
    16c2:	48 89 c7             	mov    rdi,rax
    16c5:	e8 f6 f9 ff ff       	call   10c0 <puts@plt>
    16ca:	bf 01 00 00 00       	mov    edi,0x1
    16cf:	e8 5c fa ff ff       	call   1130 <exit@plt>
    16d4:	be 0b 00 00 00       	mov    esi,0xb
    16d9:	48 8d 05 39 d9 00 00 	lea    rax,[rip+0xd939]        # f019 <_IO_stdin_used+0x19>
    16e0:	48 89 c7             	mov    rdi,rax
    16e3:	b8 00 00 00 00       	mov    eax,0x0
    16e8:	e8 03 fa ff ff       	call   10f0 <printf@plt>
    16ed:	b8 00 00 00 00       	mov    eax,0x0
    16f2:	e8 79 fb ff ff       	call   1270 <get_input>
    16f7:	89 45 fc             	mov    DWORD PTR [rbp-0x4],eax
    16fa:	81 7d fc be 00 00 00 	cmp    DWORD PTR [rbp-0x4],0xbe
    1701:	75 05                	jne    1708 <main+0x3f1>
    1703:	e9 6f 3e 00 00       	jmp    5577 <main+0x4260>
    1708:	83 7d fc 28          	cmp    DWORD PTR [rbp-0x4],0x28
    170c:	75 05                	jne    1713 <main+0x3fc>
    170e:	e9 de 09 00 00       	jmp    20f1 <main+0xdda>
    1713:	48 8d 05 0e d9 00 00 	lea    rax,[rip+0xd90e]        # f028 <_IO_stdin_used+0x28>
    171a:	48 89 c7             	mov    rdi,rax
    171d:	e8 9e f9 ff ff       	call   10c0 <puts@plt>
    1722:	bf 01 00 00 00       	mov    edi,0x1
    1727:	e8 04 fa ff ff       	call   1130 <exit@plt>
    172c:	be 0c 00 00 00       	mov    esi,0xc
    1731:	48 8d 05 e1 d8 00 00 	lea    rax,[rip+0xd8e1]        # f019 <_IO_stdin_used+0x19>
    1738:	48 89 c7             	mov    rdi,rax
    173b:	b8 00 00 00 00       	mov    eax,0x0
    1740:	e8 ab f9 ff ff       	call   10f0 <printf@plt>
    1745:	b8 00 00 00 00       	mov    eax,0x0
    174a:	e8 21 fb ff ff       	call   1270 <get_input>
    174f:	89 45 fc             	mov    DWORD PTR [rbp-0x4],eax
    1752:	81 7d fc 8f 01 00 00 	cmp    DWORD PTR [rbp-0x4],0x18f
    1759:	75 05                	jne    1760 <main+0x449>
    175b:	e9 1f 87 00 00       	jmp    9e7f <main+0x8b68>
    1760:	81 7d fc a4 00 00 00 	cmp    DWORD PTR [rbp-0x4],0xa4
    1767:	0f 84 eb 34 00 00    	je     4c58 <main+0x3941>
    176d:	48 8d 05 b4 d8 00 00 	lea    rax,[rip+0xd8b4]        # f028 <_IO_stdin_used+0x28>
    1774:	48 89 c7             	mov    rdi,rax
    1777:	e8 44 f9 ff ff       	call   10c0 <puts@plt>
    177c:	bf 01 00 00 00       	mov    edi,0x1
    1781:	e8 aa f9 ff ff       	call   1130 <exit@plt>
    1786:	90                   	nop
    1787:	be 0d 00 00 00       	mov    esi,0xd
    178c:	48 8d 05 86 d8 00 00 	lea    rax,[rip+0xd886]        # f019 <_IO_stdin_used+0x19>
    1793:	48 89 c7             	mov    rdi,rax
    1796:	b8 00 00 00 00       	mov    eax,0x0
    179b:	e8 50 f9 ff ff       	call   10f0 <printf@plt>
    17a0:	b8 00 00 00 00       	mov    eax,0x0
    17a5:	e8 c6 fa ff ff       	call   1270 <get_input>
    17aa:	89 45 fc             	mov    DWORD PTR [rbp-0x4],eax
    17ad:	81 7d fc 20 01 00 00 	cmp    DWORD PTR [rbp-0x4],0x120
    17b4:	75 05                	jne    17bb <main+0x4a4>
    17b6:	e9 c1 5f 00 00       	jmp    777c <main+0x6465>
    17bb:	48 8d 05 66 d8 00 00 	lea    rax,[rip+0xd866]        # f028 <_IO_stdin_used+0x28>
    17c2:	48 89 c7             	mov    rdi,rax
    17c5:	e8 f6 f8 ff ff       	call   10c0 <puts@plt>
    17ca:	bf 01 00 00 00       	mov    edi,0x1
    17cf:	e8 5c f9 ff ff       	call   1130 <exit@plt>
    17d4:	be 0e 00 00 00       	mov    esi,0xe
    17d9:	48 8d 05 39 d8 00 00 	lea    rax,[rip+0xd839]        # f019 <_IO_stdin_used+0x19>
    17e0:	48 89 c7             	mov    rdi,rax
    17e3:	b8 00 00 00 00       	mov    eax,0x0
    17e8:	e8 03 f9 ff ff       	call   10f0 <printf@plt>
    17ed:	b8 00 00 00 00       	mov    eax,0x0
    17f2:	e8 79 fa ff ff       	call   1270 <get_input>
    17f7:	89 45 fc             	mov    DWORD PTR [rbp-0x4],eax
    17fa:	81 7d fc cf 00 00 00 	cmp    DWORD PTR [rbp-0x4],0xcf
    1801:	75 05                	jne    1808 <main+0x4f1>
    1803:	e9 3d 43 00 00       	jmp    5b45 <main+0x482e>
    1808:	81 7d fc 4b 01 00 00 	cmp    DWORD PTR [rbp-0x4],0x14b
    180f:	75 05                	jne    1816 <main+0x4ff>
    1811:	e9 82 6e 00 00       	jmp    8698 <main+0x7381>
    1816:	48 8d 05 0b d8 00 00 	lea    rax,[rip+0xd80b]        # f028 <_IO_stdin_used+0x28>
    181d:	48 89 c7             	mov    rdi,rax
    1820:	e8 9b f8 ff ff       	call   10c0 <puts@plt>
    1825:	bf 01 00 00 00       	mov    edi,0x1
    182a:	e8 01 f9 ff ff       	call   1130 <exit@plt>
    182f:	be 0f 00 00 00       	mov    esi,0xf
    1834:	48 8d 05 de d7 00 00 	lea    rax,[rip+0xd7de]        # f019 <_IO_stdin_used+0x19>
    183b:	48 89 c7             	mov    rdi,rax
    183e:	b8 00 00 00 00       	mov    eax,0x0
    1843:	e8 a8 f8 ff ff       	call   10f0 <printf@plt>
    1848:	b8 00 00 00 00       	mov    eax,0x0
    184d:	e8 1e fa ff ff       	call   1270 <get_input>
    1852:	89 45 fc             	mov    DWORD PTR [rbp-0x4],eax
    1855:	81 7d fc c3 01 00 00 	cmp    DWORD PTR [rbp-0x4],0x1c3
    185c:	75 05                	jne    1863 <main+0x54c>
    185e:	e9 60 98 00 00       	jmp    b0c3 <main+0x9dac>
    1863:	83 7d fc 06          	cmp    DWORD PTR [rbp-0x4],0x6
    1867:	75 05                	jne    186e <main+0x557>
    1869:	e9 aa fc ff ff       	jmp    1518 <main+0x201>
    186e:	48 8d 05 b3 d7 00 00 	lea    rax,[rip+0xd7b3]        # f028 <_IO_stdin_used+0x28>
    1875:	48 89 c7             	mov    rdi,rax
    1878:	e8 43 f8 ff ff       	call   10c0 <puts@plt>
    187d:	bf 01 00 00 00       	mov    edi,0x1
    1882:	e8 a9 f8 ff ff       	call   1130 <exit@plt>
    1887:	be 10 00 00 00       	mov    esi,0x10
    188c:	48 8d 05 86 d7 00 00 	lea    rax,[rip+0xd786]        # f019 <_IO_stdin_used+0x19>
    1893:	48 89 c7             	mov    rdi,rax
    1896:	b8 00 00 00 00       	mov    eax,0x0
    189b:	e8 50 f8 ff ff       	call   10f0 <printf@plt>
    18a0:	b8 00 00 00 00       	mov    eax,0x0
    18a5:	e8 c6 f9 ff ff       	call   1270 <get_input>
    18aa:	89 45 fc             	mov    DWORD PTR [rbp-0x4],eax
    18ad:	81 7d fc 19 01 00 00 	cmp    DWORD PTR [rbp-0x4],0x119
    18b4:	75 05                	jne    18bb <main+0x5a4>
    18b6:	e9 45 5c 00 00       	jmp    7500 <main+0x61e9>
    18bb:	81 7d fc 75 01 00 00 	cmp    DWORD PTR [rbp-0x4],0x175
    18c2:	75 05                	jne    18c9 <main+0x5b2>
    18c4:	e9 74 7c 00 00       	jmp    953d <main+0x8226>
    18c9:	48 8d 05 58 d7 00 00 	lea    rax,[rip+0xd758]        # f028 <_IO_stdin_used+0x28>
    18d0:	48 89 c7             	mov    rdi,rax
    18d3:	e8 e8 f7 ff ff       	call   10c0 <puts@plt>
    18d8:	bf 01 00 00 00       	mov    edi,0x1
    18dd:	e8 4e f8 ff ff       	call   1130 <exit@plt>
    18e2:	be 11 00 00 00       	mov    esi,0x11
    18e7:	48 8d 05 2b d7 00 00 	lea    rax,[rip+0xd72b]        # f019 <_IO_stdin_used+0x19>
    18ee:	48 89 c7             	mov    rdi,rax
    18f1:	b8 00 00 00 00       	mov    eax,0x0
    18f6:	e8 f5 f7 ff ff       	call   10f0 <printf@plt>
    18fb:	b8 00 00 00 00       	mov    eax,0x0
    1900:	e8 6b f9 ff ff       	call   1270 <get_input>
    1905:	89 45 fc             	mov    DWORD PTR [rbp-0x4],eax
    1908:	81 7d fc 2c 02 00 00 	cmp    DWORD PTR [rbp-0x4],0x22c
    190f:	75 05                	jne    1916 <main+0x5ff>
    1911:	e9 02 bc 00 00       	jmp    d518 <main+0xc201>
    1916:	83 7d fc 70          	cmp    DWORD PTR [rbp-0x4],0x70
    191a:	75 05                	jne    1921 <main+0x60a>
    191c:	e9 db 20 00 00       	jmp    39fc <main+0x26e5>
    1921:	81 7d fc 20 01 00 00 	cmp    DWORD PTR [rbp-0x4],0x120
    1928:	75 05                	jne    192f <main+0x618>
    192a:	e9 4d 5e 00 00       	jmp    777c <main+0x6465>
    192f:	48 8d 05 f2 d6 00 00 	lea    rax,[rip+0xd6f2]        # f028 <_IO_stdin_used+0x28>
    1936:	48 89 c7             	mov    rdi,rax
    1939:	e8 82 f7 ff ff       	call   10c0 <puts@plt>
    193e:	bf 01 00 00 00       	mov    edi,0x1
    1943:	e8 e8 f7 ff ff       	call   1130 <exit@plt>
    1948:	be 12 00 00 00       	mov    esi,0x12
    194d:	48 8d 05 c5 d6 00 00 	lea    rax,[rip+0xd6c5]        # f019 <_IO_stdin_used+0x19>
    1954:	48 89 c7             	mov    rdi,rax
    1957:	b8 00 00 00 00       	mov    eax,0x0
    195c:	e8 8f f7 ff ff       	call   10f0 <printf@plt>
    1961:	b8 00 00 00 00       	mov    eax,0x0
    1966:	e8 05 f9 ff ff       	call   1270 <get_input>
    196b:	89 45 fc             	mov    DWORD PTR [rbp-0x4],eax
    196e:	81 7d fc d8 00 00 00 	cmp    DWORD PTR [rbp-0x4],0xd8
    1975:	75 05                	jne    197c <main+0x665>
    1977:	e9 dd 44 00 00       	jmp    5e59 <main+0x4b42>
    197c:	81 7d fc 14 01 00 00 	cmp    DWORD PTR [rbp-0x4],0x114
    1983:	75 05                	jne    198a <main+0x673>
    1985:	e9 a9 59 00 00       	jmp    7333 <main+0x601c>
    198a:	48 8d 05 97 d6 00 00 	lea    rax,[rip+0xd697]        # f028 <_IO_stdin_used+0x28>
    1991:	48 89 c7             	mov    rdi,rax
    1994:	e8 27 f7 ff ff       	call   10c0 <puts@plt>
    1999:	bf 01 00 00 00       	mov    edi,0x1
    199e:	e8 8d f7 ff ff       	call   1130 <exit@plt>
    19a3:	be 13 00 00 00       	mov    esi,0x13
    19a8:	48 8d 05 6a d6 00 00 	lea    rax,[rip+0xd66a]        # f019 <_IO_stdin_used+0x19>
    19af:	48 89 c7             	mov    rdi,rax
    19b2:	b8 00 00 00 00       	mov    eax,0x0
    19b7:	e8 34 f7 ff ff       	call   10f0 <printf@plt>
    19bc:	b8 00 00 00 00       	mov    eax,0x0
    19c1:	e8 aa f8 ff ff       	call   1270 <get_input>
    19c6:	89 45 fc             	mov    DWORD PTR [rbp-0x4],eax
    19c9:	81 7d fc 21 02 00 00 	cmp    DWORD PTR [rbp-0x4],0x221
    19d0:	75 05                	jne    19d7 <main+0x6c0>
    19d2:	e9 3e b7 00 00       	jmp    d115 <main+0xbdfe>
    19d7:	81 7d fc 6b 01 00 00 	cmp    DWORD PTR [rbp-0x4],0x16b
    19de:	0f 84 b9 77 00 00    	je     919d <main+0x7e86>
    19e4:	48 8d 05 3d d6 00 00 	lea    rax,[rip+0xd63d]        # f028 <_IO_stdin_used+0x28>
    19eb:	48 89 c7             	mov    rdi,rax
    19ee:	e8 cd f6 ff ff       	call   10c0 <puts@plt>
    19f3:	bf 01 00 00 00       	mov    edi,0x1
    19f8:	e8 33 f7 ff ff       	call   1130 <exit@plt>
    19fd:	be 14 00 00 00       	mov    esi,0x14
    1a02:	48 8d 05 10 d6 00 00 	lea    rax,[rip+0xd610]        # f019 <_IO_stdin_used+0x19>
    1a09:	48 89 c7             	mov    rdi,rax
    1a0c:	b8 00 00 00 00       	mov    eax,0x0
    1a11:	e8 da f6 ff ff       	call   10f0 <printf@plt>
    1a16:	b8 00 00 00 00       	mov    eax,0x0
    1a1b:	e8 50 f8 ff ff       	call   1270 <get_input>
    1a20:	89 45 fc             	mov    DWORD PTR [rbp-0x4],eax
    1a23:	81 7d fc ca 00 00 00 	cmp    DWORD PTR [rbp-0x4],0xca
    1a2a:	75 05                	jne    1a31 <main+0x71a>
    1a2c:	e9 62 3f 00 00       	jmp    5993 <main+0x467c>
    1a31:	83 7d fc 36          	cmp    DWORD PTR [rbp-0x4],0x36
    1a35:	0f 84 52 0b 00 00    	je     258d <main+0x1276>
    1a3b:	81 7d fc 23 01 00 00 	cmp    DWORD PTR [rbp-0x4],0x123
    1a42:	0f 84 30 5e 00 00    	je     7878 <main+0x6561>
    1a48:	48 8d 05 d9 d5 00 00 	lea    rax,[rip+0xd5d9]        # f028 <_IO_stdin_used+0x28>
    1a4f:	48 89 c7             	mov    rdi,rax
    1a52:	e8 69 f6 ff ff       	call   10c0 <puts@plt>
    1a57:	bf 01 00 00 00       	mov    edi,0x1
    1a5c:	e8 cf f6 ff ff       	call   1130 <exit@plt>
    1a61:	be 15 00 00 00       	mov    esi,0x15
    1a66:	48 8d 05 ac d5 00 00 	lea    rax,[rip+0xd5ac]        # f019 <_IO_stdin_used+0x19>
    1a6d:	48 89 c7             	mov    rdi,rax
    1a70:	b8 00 00 00 00       	mov    eax,0x0
    1a75:	e8 76 f6 ff ff       	call   10f0 <printf@plt>
    1a7a:	b8 00 00 00 00       	mov    eax,0x0
    1a7f:	e8 ec f7 ff ff       	call   1270 <get_input>
    1a84:	89 45 fc             	mov    DWORD PTR [rbp-0x4],eax
    1a87:	83 7d fc 2c          	cmp    DWORD PTR [rbp-0x4],0x2c
    1a8b:	0f 84 b9 07 00 00    	je     224a <main+0xf33>
    1a91:	83 7d fc 4b          	cmp    DWORD PTR [rbp-0x4],0x4b
    1a95:	75 05                	jne    1a9c <main+0x785>
    1a97:	e9 28 12 00 00       	jmp    2cc4 <main+0x19ad>
    1a9c:	83 7d fc 73          	cmp    DWORD PTR [rbp-0x4],0x73
    1aa0:	75 05                	jne    1aa7 <main+0x790>
    1aa2:	e9 6e 20 00 00       	jmp    3b15 <main+0x27fe>
    1aa7:	48 8d 05 7a d5 00 00 	lea    rax,[rip+0xd57a]        # f028 <_IO_stdin_used+0x28>
    1aae:	48 89 c7             	mov    rdi,rax
    1ab1:	e8 0a f6 ff ff       	call   10c0 <puts@plt>
    1ab6:	bf 01 00 00 00       	mov    edi,0x1
    1abb:	e8 70 f6 ff ff       	call   1130 <exit@plt>
    1ac0:	90                   	nop
    1ac1:	be 16 00 00 00       	mov    esi,0x16
    1ac6:	48 8d 05 4c d5 00 00 	lea    rax,[rip+0xd54c]        # f019 <_IO_stdin_used+0x19>
    1acd:	48 89 c7             	mov    rdi,rax
    1ad0:	b8 00 00 00 00       	mov    eax,0x0
    1ad5:	e8 16 f6 ff ff       	call   10f0 <printf@plt>
    1ada:	b8 00 00 00 00       	mov    eax,0x0
    1adf:	e8 8c f7 ff ff       	call   1270 <get_input>
    1ae4:	89 45 fc             	mov    DWORD PTR [rbp-0x4],eax
    1ae7:	81 7d fc 5f 01 00 00 	cmp    DWORD PTR [rbp-0x4],0x15f
    1aee:	75 05                	jne    1af5 <main+0x7de>
    1af0:	e9 9f 72 00 00       	jmp    8d94 <main+0x7a7d>
    1af5:	48 8d 05 2c d5 00 00 	lea    rax,[rip+0xd52c]        # f028 <_IO_stdin_used+0x28>
    1afc:	48 89 c7             	mov    rdi,rax
    1aff:	e8 bc f5 ff ff       	call   10c0 <puts@plt>
    1b04:	bf 01 00 00 00       	mov    edi,0x1
    1b09:	e8 22 f6 ff ff       	call   1130 <exit@plt>
    1b0e:	be 17 00 00 00       	mov    esi,0x17
    1b13:	48 8d 05 ff d4 00 00 	lea    rax,[rip+0xd4ff]        # f019 <_IO_stdin_used+0x19>
    1b1a:	48 89 c7             	mov    rdi,rax
    1b1d:	b8 00 00 00 00       	mov    eax,0x0
    1b22:	e8 c9 f5 ff ff       	call   10f0 <printf@plt>
    1b27:	b8 00 00 00 00       	mov    eax,0x0
    1b2c:	e8 3f f7 ff ff       	call   1270 <get_input>
    1b31:	89 45 fc             	mov    DWORD PTR [rbp-0x4],eax
    1b34:	83 7d fc 4c          	cmp    DWORD PTR [rbp-0x4],0x4c
    1b38:	75 05                	jne    1b3f <main+0x828>
    1b3a:	e9 da 11 00 00       	jmp    2d19 <main+0x1a02>
    1b3f:	81 7d fc d3 01 00 00 	cmp    DWORD PTR [rbp-0x4],0x1d3
    1b46:	75 05                	jne    1b4d <main+0x836>
    1b48:	e9 fd 9a 00 00       	jmp    b64a <main+0xa333>
    1b4d:	48 8d 05 d4 d4 00 00 	lea    rax,[rip+0xd4d4]        # f028 <_IO_stdin_used+0x28>
    1b54:	48 89 c7             	mov    rdi,rax
    1b57:	e8 64 f5 ff ff       	call   10c0 <puts@plt>
    1b5c:	bf 01 00 00 00       	mov    edi,0x1
    1b61:	e8 ca f5 ff ff       	call   1130 <exit@plt>
    1b66:	90                   	nop
    1b67:	be 18 00 00 00       	mov    esi,0x18
    1b6c:	48 8d 05 a6 d4 00 00 	lea    rax,[rip+0xd4a6]        # f019 <_IO_stdin_used+0x19>
    1b73:	48 89 c7             	mov    rdi,rax
    1b76:	b8 00 00 00 00       	mov    eax,0x0
    1b7b:	e8 70 f5 ff ff       	call   10f0 <printf@plt>
    1b80:	b8 00 00 00 00       	mov    eax,0x0
    1b85:	e8 e6 f6 ff ff       	call   1270 <get_input>
    1b8a:	89 45 fc             	mov    DWORD PTR [rbp-0x4],eax
    1b8d:	81 7d fc be 01 00 00 	cmp    DWORD PTR [rbp-0x4],0x1be
    1b94:	75 05                	jne    1b9b <main+0x884>
    1b96:	e9 59 93 00 00       	jmp    aef4 <main+0x9bdd>
    1b9b:	48 8d 05 86 d4 00 00 	lea    rax,[rip+0xd486]        # f028 <_IO_stdin_used+0x28>
    1ba2:	48 89 c7             	mov    rdi,rax
    1ba5:	e8 16 f5 ff ff       	call   10c0 <puts@plt>
    1baa:	bf 01 00 00 00       	mov    edi,0x1
    1baf:	e8 7c f5 ff ff       	call   1130 <exit@plt>
    1bb4:	be 19 00 00 00       	mov    esi,0x19
    1bb9:	48 8d 05 59 d4 00 00 	lea    rax,[rip+0xd459]        # f019 <_IO_stdin_used+0x19>
    1bc0:	48 89 c7             	mov    rdi,rax
    1bc3:	b8 00 00 00 00       	mov    eax,0x0
    1bc8:	e8 23 f5 ff ff       	call   10f0 <printf@plt>
    1bcd:	b8 00 00 00 00       	mov    eax,0x0
    1bd2:	e8 99 f6 ff ff       	call   1270 <get_input>
    1bd7:	89 45 fc             	mov    DWORD PTR [rbp-0x4],eax
    1bda:	81 7d fc a0 00 00 00 	cmp    DWORD PTR [rbp-0x4],0xa0
    1be1:	75 05                	jne    1be8 <main+0x8d1>
    1be3:	e9 17 2f 00 00       	jmp    4aff <main+0x37e8>
    1be8:	83 7d fc 6f          	cmp    DWORD PTR [rbp-0x4],0x6f
    1bec:	75 05                	jne    1bf3 <main+0x8dc>
    1bee:	e9 b1 1d 00 00       	jmp    39a4 <main+0x268d>
    1bf3:	81 7d fc 37 02 00 00 	cmp    DWORD PTR [rbp-0x4],0x237
    1bfa:	75 05                	jne    1c01 <main+0x8ea>
    1bfc:	e9 2b bd 00 00       	jmp    d92c <main+0xc615>
    1c01:	48 8d 05 20 d4 00 00 	lea    rax,[rip+0xd420]        # f028 <_IO_stdin_used+0x28>
    1c08:	48 89 c7             	mov    rdi,rax
    1c0b:	e8 b0 f4 ff ff       	call   10c0 <puts@plt>
    1c10:	bf 01 00 00 00       	mov    edi,0x1
    1c15:	e8 16 f5 ff ff       	call   1130 <exit@plt>
    1c1a:	be 1a 00 00 00       	mov    esi,0x1a
    1c1f:	48 8d 05 f3 d3 00 00 	lea    rax,[rip+0xd3f3]        # f019 <_IO_stdin_used+0x19>
    1c26:	48 89 c7             	mov    rdi,rax
    1c29:	b8 00 00 00 00       	mov    eax,0x0
    1c2e:	e8 bd f4 ff ff       	call   10f0 <printf@plt>
    1c33:	b8 00 00 00 00       	mov    eax,0x0
    1c38:	e8 33 f6 ff ff       	call   1270 <get_input>
    1c3d:	89 45 fc             	mov    DWORD PTR [rbp-0x4],eax
    1c40:	81 7d fc 6e 01 00 00 	cmp    DWORD PTR [rbp-0x4],0x16e
    1c47:	75 05                	jne    1c4e <main+0x937>
    1c49:	e9 5a 76 00 00       	jmp    92a8 <main+0x7f91>
    1c4e:	81 7d fc eb 01 00 00 	cmp    DWORD PTR [rbp-0x4],0x1eb
    1c55:	75 05                	jne    1c5c <main+0x945>
    1c57:	e9 4a a2 00 00       	jmp    bea6 <main+0xab8f>
    1c5c:	48 8d 05 c5 d3 00 00 	lea    rax,[rip+0xd3c5]        # f028 <_IO_stdin_used+0x28>
    1c63:	48 89 c7             	mov    rdi,rax
    1c66:	e8 55 f4 ff ff       	call   10c0 <puts@plt>
    1c6b:	bf 01 00 00 00       	mov    edi,0x1
    1c70:	e8 bb f4 ff ff       	call   1130 <exit@plt>
    1c75:	90                   	nop
    1c76:	be 1b 00 00 00       	mov    esi,0x1b
    1c7b:	48 8d 05 97 d3 00 00 	lea    rax,[rip+0xd397]        # f019 <_IO_stdin_used+0x19>
    1c82:	48 89 c7             	mov    rdi,rax
    1c85:	b8 00 00 00 00       	mov    eax,0x0
    1c8a:	e8 61 f4 ff ff       	call   10f0 <printf@plt>
    1c8f:	b8 00 00 00 00       	mov    eax,0x0
    1c94:	e8 d7 f5 ff ff       	call   1270 <get_input>
    1c99:	89 45 fc             	mov    DWORD PTR [rbp-0x4],eax
    1c9c:	81 7d fc e8 00 00 00 	cmp    DWORD PTR [rbp-0x4],0xe8
    1ca3:	75 05                	jne    1caa <main+0x993>
    1ca5:	e9 43 47 00 00       	jmp    63ed <main+0x50d6>
    1caa:	48 8d 05 77 d3 00 00 	lea    rax,[rip+0xd377]        # f028 <_IO_stdin_used+0x28>
    1cb1:	48 89 c7             	mov    rdi,rax
    1cb4:	e8 07 f4 ff ff       	call   10c0 <puts@plt>
    1cb9:	bf 01 00 00 00       	mov    edi,0x1
    1cbe:	e8 6d f4 ff ff       	call   1130 <exit@plt>
    1cc3:	be 1c 00 00 00       	mov    esi,0x1c
    1cc8:	48 8d 05 4a d3 00 00 	lea    rax,[rip+0xd34a]        # f019 <_IO_stdin_used+0x19>
    1ccf:	48 89 c7             	mov    rdi,rax
    1cd2:	b8 00 00 00 00       	mov    eax,0x0
    1cd7:	e8 14 f4 ff ff       	call   10f0 <printf@plt>
    1cdc:	b8 00 00 00 00       	mov    eax,0x0
    1ce1:	e8 8a f5 ff ff       	call   1270 <get_input>
    1ce6:	89 45 fc             	mov    DWORD PTR [rbp-0x4],eax
    1ce9:	81 7d fc bd 00 00 00 	cmp    DWORD PTR [rbp-0x4],0xbd
    1cf0:	75 05                	jne    1cf7 <main+0x9e0>
    1cf2:	e9 0d 38 00 00       	jmp    5504 <main+0x41ed>
    1cf7:	81 7d fc 47 02 00 00 	cmp    DWORD PTR [rbp-0x4],0x247
    1cfe:	75 05                	jne    1d05 <main+0x9ee>
    1d00:	e9 04 c2 00 00       	jmp    df09 <main+0xcbf2>
    1d05:	81 7d fc 42 01 00 00 	cmp    DWORD PTR [rbp-0x4],0x142
    1d0c:	0f 84 5b 66 00 00    	je     836d <main+0x7056>
    1d12:	48 8d 05 0f d3 00 00 	lea    rax,[rip+0xd30f]        # f028 <_IO_stdin_used+0x28>
    1d19:	48 89 c7             	mov    rdi,rax
    1d1c:	e8 9f f3 ff ff       	call   10c0 <puts@plt>
    1d21:	bf 01 00 00 00       	mov    edi,0x1
    1d26:	e8 05 f4 ff ff       	call   1130 <exit@plt>
    1d2b:	be 1d 00 00 00       	mov    esi,0x1d
    1d30:	48 8d 05 e2 d2 00 00 	lea    rax,[rip+0xd2e2]        # f019 <_IO_stdin_used+0x19>
    1d37:	48 89 c7             	mov    rdi,rax
    1d3a:	b8 00 00 00 00       	mov    eax,0x0
    1d3f:	e8 ac f3 ff ff       	call   10f0 <printf@plt>
    1d44:	b8 00 00 00 00       	mov    eax,0x0
    1d49:	e8 22 f5 ff ff       	call   1270 <get_input>
    1d4e:	89 45 fc             	mov    DWORD PTR [rbp-0x4],eax
    1d51:	81 7d fc 16 02 00 00 	cmp    DWORD PTR [rbp-0x4],0x216
    1d58:	75 05                	jne    1d5f <main+0xa48>
    1d5a:	e9 f3 af 00 00       	jmp    cd52 <main+0xba3b>
    1d5f:	81 7d fc 2e 02 00 00 	cmp    DWORD PTR [rbp-0x4],0x22e
    1d66:	75 05                	jne    1d6d <main+0xa56>
    1d68:	e9 5b b8 00 00       	jmp    d5c8 <main+0xc2b1>
    1d6d:	48 8d 05 b4 d2 00 00 	lea    rax,[rip+0xd2b4]        # f028 <_IO_stdin_used+0x28>
    1d74:	48 89 c7             	mov    rdi,rax
    1d77:	e8 44 f3 ff ff       	call   10c0 <puts@plt>
    1d7c:	bf 01 00 00 00       	mov    edi,0x1
    1d81:	e8 aa f3 ff ff       	call   1130 <exit@plt>
    1d86:	be 1e 00 00 00       	mov    esi,0x1e
    1d8b:	48 8d 05 87 d2 00 00 	lea    rax,[rip+0xd287]        # f019 <_IO_stdin_used+0x19>
    1d92:	48 89 c7             	mov    rdi,rax
    1d95:	b8 00 00 00 00       	mov    eax,0x0
    1d9a:	e8 51 f3 ff ff       	call   10f0 <printf@plt>
    1d9f:	b8 00 00 00 00       	mov    eax,0x0
    1da4:	e8 c7 f4 ff ff       	call   1270 <get_input>
    1da9:	89 45 fc             	mov    DWORD PTR [rbp-0x4],eax
    1dac:	81 7d fc 04 01 00 00 	cmp    DWORD PTR [rbp-0x4],0x104
    1db3:	75 05                	jne    1dba <main+0xaa3>
    1db5:	e9 03 50 00 00       	jmp    6dbd <main+0x5aa6>
    1dba:	81 7d fc bc 01 00 00 	cmp    DWORD PTR [rbp-0x4],0x1bc
    1dc1:	75 05                	jne    1dc8 <main+0xab1>
    1dc3:	e9 7d 90 00 00       	jmp    ae45 <main+0x9b2e>
    1dc8:	48 8d 05 59 d2 00 00 	lea    rax,[rip+0xd259]        # f028 <_IO_stdin_used+0x28>
    1dcf:	48 89 c7             	mov    rdi,rax
    1dd2:	e8 e9 f2 ff ff       	call   10c0 <puts@plt>
    1dd7:	bf 01 00 00 00       	mov    edi,0x1
    1ddc:	e8 4f f3 ff ff       	call   1130 <exit@plt>
    1de1:	90                   	nop
    1de2:	be 1f 00 00 00       	mov    esi,0x1f
    1de7:	48 8d 05 2b d2 00 00 	lea    rax,[rip+0xd22b]        # f019 <_IO_stdin_used+0x19>
    1dee:	48 89 c7             	mov    rdi,rax
    1df1:	b8 00 00 00 00       	mov    eax,0x0
    1df6:	e8 f5 f2 ff ff       	call   10f0 <printf@plt>
    1dfb:	b8 00 00 00 00       	mov    eax,0x0
    1e00:	e8 6b f4 ff ff       	call   1270 <get_input>
    1e05:	89 45 fc             	mov    DWORD PTR [rbp-0x4],eax
    1e08:	81 7d fc 7b 01 00 00 	cmp    DWORD PTR [rbp-0x4],0x17b
    1e0f:	75 05                	jne    1e16 <main+0xaff>
    1e11:	e9 29 79 00 00       	jmp    973f <main+0x8428>
    1e16:	48 8d 05 0b d2 00 00 	lea    rax,[rip+0xd20b]        # f028 <_IO_stdin_used+0x28>
    1e1d:	48 89 c7             	mov    rdi,rax
    1e20:	e8 9b f2 ff ff       	call   10c0 <puts@plt>
    1e25:	bf 01 00 00 00       	mov    edi,0x1
    1e2a:	e8 01 f3 ff ff       	call   1130 <exit@plt>
    1e2f:	be 20 00 00 00       	mov    esi,0x20
    1e34:	48 8d 05 de d1 00 00 	lea    rax,[rip+0xd1de]        # f019 <_IO_stdin_used+0x19>
    1e3b:	48 89 c7             	mov    rdi,rax
    1e3e:	b8 00 00 00 00       	mov    eax,0x0
    1e43:	e8 a8 f2 ff ff       	call   10f0 <printf@plt>
    1e48:	b8 00 00 00 00       	mov    eax,0x0
    1e4d:	e8 1e f4 ff ff       	call   1270 <get_input>
    1e52:	89 45 fc             	mov    DWORD PTR [rbp-0x4],eax
    1e55:	81 7d fc 72 01 00 00 	cmp    DWORD PTR [rbp-0x4],0x172
    1e5c:	75 05                	jne    1e63 <main+0xb4c>
    1e5e:	e9 c2 75 00 00       	jmp    9425 <main+0x810e>
    1e63:	81 7d fc 8a 01 00 00 	cmp    DWORD PTR [rbp-0x4],0x18a
    1e6a:	75 05                	jne    1e71 <main+0xb5a>
    1e6c:	e9 27 7e 00 00       	jmp    9c98 <main+0x8981>
    1e71:	81 7d fc 02 01 00 00 	cmp    DWORD PTR [rbp-0x4],0x102
    1e78:	0f 84 9d 4e 00 00    	je     6d1b <main+0x5a04>
    1e7e:	48 8d 05 a3 d1 00 00 	lea    rax,[rip+0xd1a3]        # f028 <_IO_stdin_used+0x28>
    1e85:	48 89 c7             	mov    rdi,rax
    1e88:	e8 33 f2 ff ff       	call   10c0 <puts@plt>
    1e8d:	bf 01 00 00 00       	mov    edi,0x1
    1e92:	e8 99 f2 ff ff       	call   1130 <exit@plt>
    1e97:	be 21 00 00 00       	mov    esi,0x21
    1e9c:	48 8d 05 76 d1 00 00 	lea    rax,[rip+0xd176]        # f019 <_IO_stdin_used+0x19>
    1ea3:	48 89 c7             	mov    rdi,rax
    1ea6:	b8 00 00 00 00       	mov    eax,0x0
    1eab:	e8 40 f2 ff ff       	call   10f0 <printf@plt>
    1eb0:	b8 00 00 00 00       	mov    eax,0x0
    1eb5:	e8 b6 f3 ff ff       	call   1270 <get_input>
    1eba:	89 45 fc             	mov    DWORD PTR [rbp-0x4],eax
    1ebd:	81 7d fc b5 00 00 00 	cmp    DWORD PTR [rbp-0x4],0xb5
    1ec4:	75 05                	jne    1ecb <main+0xbb4>
    1ec6:	e9 6d 33 00 00       	jmp    5238 <main+0x3f21>
    1ecb:	83 7d fc 62          	cmp    DWORD PTR [rbp-0x4],0x62
    1ecf:	75 05                	jne    1ed6 <main+0xbbf>
    1ed1:	e9 2e 16 00 00       	jmp    3504 <main+0x21ed>
    1ed6:	81 7d fc be 00 00 00 	cmp    DWORD PTR [rbp-0x4],0xbe
    1edd:	75 05                	jne    1ee4 <main+0xbcd>
    1edf:	e9 93 36 00 00       	jmp    5577 <main+0x4260>
    1ee4:	48 8d 05 3d d1 00 00 	lea    rax,[rip+0xd13d]        # f028 <_IO_stdin_used+0x28>
    1eeb:	48 89 c7             	mov    rdi,rax
    1eee:	e8 cd f1 ff ff       	call   10c0 <puts@plt>
    1ef3:	bf 01 00 00 00       	mov    edi,0x1
    1ef8:	e8 33 f2 ff ff       	call   1130 <exit@plt>
    1efd:	be 22 00 00 00       	mov    esi,0x22
    1f02:	48 8d 05 10 d1 00 00 	lea    rax,[rip+0xd110]        # f019 <_IO_stdin_used+0x19>
    1f09:	48 89 c7             	mov    rdi,rax
    1f0c:	b8 00 00 00 00       	mov    eax,0x0
    1f11:	e8 da f1 ff ff       	call   10f0 <printf@plt>
    1f16:	b8 00 00 00 00       	mov    eax,0x0
    1f1b:	e8 50 f3 ff ff       	call   1270 <get_input>
    1f20:	89 45 fc             	mov    DWORD PTR [rbp-0x4],eax
    1f23:	81 7d fc 88 00 00 00 	cmp    DWORD PTR [rbp-0x4],0x88
    1f2a:	0f 84 54 23 00 00    	je     4284 <main+0x2f6d>
    1f30:	83 7d fc 79          	cmp    DWORD PTR [rbp-0x4],0x79
    1f34:	75 05                	jne    1f3b <main+0xc24>
    1f36:	e9 10 1e 00 00       	jmp    3d4b <main+0x2a34>
    1f3b:	48 8d 05 e6 d0 00 00 	lea    rax,[rip+0xd0e6]        # f028 <_IO_stdin_used+0x28>
    1f42:	48 89 c7             	mov    rdi,rax
    1f45:	e8 76 f1 ff ff       	call   10c0 <puts@plt>
    1f4a:	bf 01 00 00 00       	mov    edi,0x1
    1f4f:	e8 dc f1 ff ff       	call   1130 <exit@plt>
    1f54:	90                   	nop
    1f55:	be 23 00 00 00       	mov    esi,0x23
    1f5a:	48 8d 05 b8 d0 00 00 	lea    rax,[rip+0xd0b8]        # f019 <_IO_stdin_used+0x19>
    1f61:	48 89 c7             	mov    rdi,rax
    1f64:	b8 00 00 00 00       	mov    eax,0x0
    1f69:	e8 82 f1 ff ff       	call   10f0 <printf@plt>
    1f6e:	b8 00 00 00 00       	mov    eax,0x0
    1f73:	e8 f8 f2 ff ff       	call   1270 <get_input>
    1f78:	89 45 fc             	mov    DWORD PTR [rbp-0x4],eax
    1f7b:	81 7d fc 2a 02 00 00 	cmp    DWORD PTR [rbp-0x4],0x22a
    1f82:	75 05                	jne    1f89 <main+0xc72>
    1f84:	e9 a9 b4 00 00       	jmp    d432 <main+0xc11b>
    1f89:	48 8d 05 98 d0 00 00 	lea    rax,[rip+0xd098]        # f028 <_IO_stdin_used+0x28>
    1f90:	48 89 c7             	mov    rdi,rax
    1f93:	e8 28 f1 ff ff       	call   10c0 <puts@plt>
    1f98:	bf 01 00 00 00       	mov    edi,0x1
    1f9d:	e8 8e f1 ff ff       	call   1130 <exit@plt>
    1fa2:	be 24 00 00 00       	mov    esi,0x24
    1fa7:	48 8d 05 6b d0 00 00 	lea    rax,[rip+0xd06b]        # f019 <_IO_stdin_used+0x19>
    1fae:	48 89 c7             	mov    rdi,rax
    1fb1:	b8 00 00 00 00       	mov    eax,0x0
    1fb6:	e8 35 f1 ff ff       	call   10f0 <printf@plt>
    1fbb:	b8 00 00 00 00       	mov    eax,0x0
    1fc0:	e8 ab f2 ff ff       	call   1270 <get_input>
    1fc5:	89 45 fc             	mov    DWORD PTR [rbp-0x4],eax
    1fc8:	81 7d fc f9 01 00 00 	cmp    DWORD PTR [rbp-0x4],0x1f9
    1fcf:	75 05                	jne    1fd6 <main+0xcbf>
    1fd1:	e9 8d a3 00 00       	jmp    c363 <main+0xb04c>
    1fd6:	81 7d fc 4d 02 00 00 	cmp    DWORD PTR [rbp-0x4],0x24d
    1fdd:	75 05                	jne    1fe4 <main+0xccd>
    1fdf:	e9 55 c1 00 00       	jmp    e139 <main+0xce22>
    1fe4:	48 8d 05 3d d0 00 00 	lea    rax,[rip+0xd03d]        # f028 <_IO_stdin_used+0x28>
    1feb:	48 89 c7             	mov    rdi,rax
    1fee:	e8 cd f0 ff ff       	call   10c0 <puts@plt>
    1ff3:	bf 01 00 00 00       	mov    edi,0x1
    1ff8:	e8 33 f1 ff ff       	call   1130 <exit@plt>
    1ffd:	90                   	nop
    1ffe:	be 25 00 00 00       	mov    esi,0x25
    2003:	48 8d 05 0f d0 00 00 	lea    rax,[rip+0xd00f]        # f019 <_IO_stdin_used+0x19>
    200a:	48 89 c7             	mov    rdi,rax
    200d:	b8 00 00 00 00       	mov    eax,0x0
    2012:	e8 d9 f0 ff ff       	call   10f0 <printf@plt>
    2017:	b8 00 00 00 00       	mov    eax,0x0
    201c:	e8 4f f2 ff ff       	call   1270 <get_input>
    2021:	89 45 fc             	mov    DWORD PTR [rbp-0x4],eax
    2024:	81 7d fc 6f 01 00 00 	cmp    DWORD PTR [rbp-0x4],0x16f
    202b:	75 05                	jne    2032 <main+0xd1b>
    202d:	e9 dc 72 00 00       	jmp    930e <main+0x7ff7>
    2032:	48 8d 05 ef cf 00 00 	lea    rax,[rip+0xcfef]        # f028 <_IO_stdin_used+0x28>
    2039:	48 89 c7             	mov    rdi,rax
    203c:	e8 7f f0 ff ff       	call   10c0 <puts@plt>
    2041:	bf 01 00 00 00       	mov    edi,0x1
    2046:	e8 e5 f0 ff ff       	call   1130 <exit@plt>
    204b:	90                   	nop
    204c:	be 26 00 00 00       	mov    esi,0x26
    2051:	48 8d 05 c1 cf 00 00 	lea    rax,[rip+0xcfc1]        # f019 <_IO_stdin_used+0x19>
    2058:	48 89 c7             	mov    rdi,rax
    205b:	b8 00 00 00 00       	mov    eax,0x0
    2060:	e8 8b f0 ff ff       	call   10f0 <printf@plt>
    2065:	b8 00 00 00 00       	mov    eax,0x0
    206a:	e8 01 f2 ff ff       	call   1270 <get_input>
    206f:	89 45 fc             	mov    DWORD PTR [rbp-0x4],eax
    2072:	83 7d fc 08          	cmp    DWORD PTR [rbp-0x4],0x8
    2076:	75 05                	jne    207d <main+0xd66>
    2078:	e9 40 f5 ff ff       	jmp    15bd <main+0x2a6>
    207d:	48 8d 05 a4 cf 00 00 	lea    rax,[rip+0xcfa4]        # f028 <_IO_stdin_used+0x28>
    2084:	48 89 c7             	mov    rdi,rax
    2087:	e8 34 f0 ff ff       	call   10c0 <puts@plt>
    208c:	bf 01 00 00 00       	mov    edi,0x1
    2091:	e8 9a f0 ff ff       	call   1130 <exit@plt>
    2096:	be 27 00 00 00       	mov    esi,0x27
    209b:	48 8d 05 77 cf 00 00 	lea    rax,[rip+0xcf77]        # f019 <_IO_stdin_used+0x19>
    20a2:	48 89 c7             	mov    rdi,rax
    20a5:	b8 00 00 00 00       	mov    eax,0x0
    20aa:	e8 41 f0 ff ff       	call   10f0 <printf@plt>
    20af:	b8 00 00 00 00       	mov    eax,0x0
    20b4:	e8 b7 f1 ff ff       	call   1270 <get_input>
    20b9:	89 45 fc             	mov    DWORD PTR [rbp-0x4],eax
    20bc:	81 7d fc 33 01 00 00 	cmp    DWORD PTR [rbp-0x4],0x133
    20c3:	75 05                	jne    20ca <main+0xdb3>
    20c5:	e9 41 5d 00 00       	jmp    7e0b <main+0x6af4>
    20ca:	81 7d fc fa 00 00 00 	cmp    DWORD PTR [rbp-0x4],0xfa
    20d1:	75 05                	jne    20d8 <main+0xdc1>
    20d3:	e9 70 49 00 00       	jmp    6a48 <main+0x5731>
    20d8:	48 8d 05 49 cf 00 00 	lea    rax,[rip+0xcf49]        # f028 <_IO_stdin_used+0x28>
    20df:	48 89 c7             	mov    rdi,rax
    20e2:	e8 d9 ef ff ff       	call   10c0 <puts@plt>
    20e7:	bf 01 00 00 00       	mov    edi,0x1
    20ec:	e8 3f f0 ff ff       	call   1130 <exit@plt>
    20f1:	be 28 00 00 00       	mov    esi,0x28
    20f6:	48 8d 05 1c cf 00 00 	lea    rax,[rip+0xcf1c]        # f019 <_IO_stdin_used+0x19>
    20fd:	48 89 c7             	mov    rdi,rax
    2100:	b8 00 00 00 00       	mov    eax,0x0
    2105:	e8 e6 ef ff ff       	call   10f0 <printf@plt>
    210a:	b8 00 00 00 00       	mov    eax,0x0
    210f:	e8 5c f1 ff ff       	call   1270 <get_input>
    2114:	89 45 fc             	mov    DWORD PTR [rbp-0x4],eax
    2117:	81 7d fc 9e 00 00 00 	cmp    DWORD PTR [rbp-0x4],0x9e
    211e:	75 05                	jne    2125 <main+0xe0e>
    2120:	e9 27 29 00 00       	jmp    4a4c <main+0x3735>
    2125:	83 7d fc 0b          	cmp    DWORD PTR [rbp-0x4],0xb
    2129:	75 05                	jne    2130 <main+0xe19>
    212b:	e9 a4 f5 ff ff       	jmp    16d4 <main+0x3bd>
    2130:	48 8d 05 f1 ce 00 00 	lea    rax,[rip+0xcef1]        # f028 <_IO_stdin_used+0x28>
    2137:	48 89 c7             	mov    rdi,rax
    213a:	e8 81 ef ff ff       	call   10c0 <puts@plt>
    213f:	bf 01 00 00 00       	mov    edi,0x1
    2144:	e8 e7 ef ff ff       	call   1130 <exit@plt>
    2149:	be 29 00 00 00       	mov    esi,0x29
    214e:	48 8d 05 c4 ce 00 00 	lea    rax,[rip+0xcec4]        # f019 <_IO_stdin_used+0x19>
    2155:	48 89 c7             	mov    rdi,rax
    2158:	b8 00 00 00 00       	mov    eax,0x0
    215d:	e8 8e ef ff ff       	call   10f0 <printf@plt>
    2162:	b8 00 00 00 00       	mov    eax,0x0
    2167:	e8 04 f1 ff ff       	call   1270 <get_input>
    216c:	89 45 fc             	mov    DWORD PTR [rbp-0x4],eax
    216f:	81 7d fc 31 01 00 00 	cmp    DWORD PTR [rbp-0x4],0x131
    2176:	75 05                	jne    217d <main+0xe66>
    2178:	e9 ce 5b 00 00       	jmp    7d4b <main+0x6a34>
    217d:	81 7d fc a3 01 00 00 	cmp    DWORD PTR [rbp-0x4],0x1a3
    2184:	75 05                	jne    218b <main+0xe74>
    2186:	e9 19 84 00 00       	jmp    a5a4 <main+0x928d>
    218b:	48 8d 05 96 ce 00 00 	lea    rax,[rip+0xce96]        # f028 <_IO_stdin_used+0x28>
    2192:	48 89 c7             	mov    rdi,rax
    2195:	e8 26 ef ff ff       	call   10c0 <puts@plt>
    219a:	bf 01 00 00 00       	mov    edi,0x1
    219f:	e8 8c ef ff ff       	call   1130 <exit@plt>
    21a4:	be 2a 00 00 00       	mov    esi,0x2a
    21a9:	48 8d 05 69 ce 00 00 	lea    rax,[rip+0xce69]        # f019 <_IO_stdin_used+0x19>
    21b0:	48 89 c7             	mov    rdi,rax
    21b3:	b8 00 00 00 00       	mov    eax,0x0
    21b8:	e8 33 ef ff ff       	call   10f0 <printf@plt>
    21bd:	b8 00 00 00 00       	mov    eax,0x0
    21c2:	e8 a9 f0 ff ff       	call   1270 <get_input>
    21c7:	89 45 fc             	mov    DWORD PTR [rbp-0x4],eax
    21ca:	81 7d fc ef 01 00 00 	cmp    DWORD PTR [rbp-0x4],0x1ef
    21d1:	75 05                	jne    21d8 <main+0xec1>
    21d3:	e9 1c 9e 00 00       	jmp    bff4 <main+0xacdd>
    21d8:	81 7d fc 6f 01 00 00 	cmp    DWORD PTR [rbp-0x4],0x16f
    21df:	75 05                	jne    21e6 <main+0xecf>
    21e1:	e9 28 71 00 00       	jmp    930e <main+0x7ff7>
    21e6:	48 8d 05 3b ce 00 00 	lea    rax,[rip+0xce3b]        # f028 <_IO_stdin_used+0x28>
    21ed:	48 89 c7             	mov    rdi,rax
    21f0:	e8 cb ee ff ff       	call   10c0 <puts@plt>
    21f5:	bf 01 00 00 00       	mov    edi,0x1
    21fa:	e8 31 ef ff ff       	call   1130 <exit@plt>
    21ff:	90                   	nop
    2200:	be 2b 00 00 00       	mov    esi,0x2b
    2205:	48 8d 05 0d ce 00 00 	lea    rax,[rip+0xce0d]        # f019 <_IO_stdin_used+0x19>
    220c:	48 89 c7             	mov    rdi,rax
    220f:	b8 00 00 00 00       	mov    eax,0x0
    2214:	e8 d7 ee ff ff       	call   10f0 <printf@plt>
    2219:	b8 00 00 00 00       	mov    eax,0x0
    221e:	e8 4d f0 ff ff       	call   1270 <get_input>
    2223:	89 45 fc             	mov    DWORD PTR [rbp-0x4],eax
    2226:	83 7d fc 53          	cmp    DWORD PTR [rbp-0x4],0x53
    222a:	75 05                	jne    2231 <main+0xf1a>
    222c:	e9 85 0d 00 00       	jmp    2fb6 <main+0x1c9f>
    2231:	48 8d 05 f0 cd 00 00 	lea    rax,[rip+0xcdf0]        # f028 <_IO_stdin_used+0x28>
    2238:	48 89 c7             	mov    rdi,rax
    223b:	e8 80 ee ff ff       	call   10c0 <puts@plt>
    2240:	bf 01 00 00 00       	mov    edi,0x1
    2245:	e8 e6 ee ff ff       	call   1130 <exit@plt>
    224a:	90                   	nop
    224b:	be 2c 00 00 00       	mov    esi,0x2c
    2250:	48 8d 05 c2 cd 00 00 	lea    rax,[rip+0xcdc2]        # f019 <_IO_stdin_used+0x19>
    2257:	48 89 c7             	mov    rdi,rax
    225a:	b8 00 00 00 00       	mov    eax,0x0
    225f:	e8 8c ee ff ff       	call   10f0 <printf@plt>
    2264:	b8 00 00 00 00       	mov    eax,0x0
    2269:	e8 02 f0 ff ff       	call   1270 <get_input>
    226e:	89 45 fc             	mov    DWORD PTR [rbp-0x4],eax
    2271:	83 7d fc 15          	cmp    DWORD PTR [rbp-0x4],0x15
    2275:	75 05                	jne    227c <main+0xf65>
    2277:	e9 e5 f7 ff ff       	jmp    1a61 <main+0x74a>
    227c:	48 8d 05 a5 cd 00 00 	lea    rax,[rip+0xcda5]        # f028 <_IO_stdin_used+0x28>
    2283:	48 89 c7             	mov    rdi,rax
    2286:	e8 35 ee ff ff       	call   10c0 <puts@plt>
    228b:	bf 01 00 00 00       	mov    edi,0x1
    2290:	e8 9b ee ff ff       	call   1130 <exit@plt>
    2295:	90                   	nop
    2296:	be 2d 00 00 00       	mov    esi,0x2d
    229b:	48 8d 05 77 cd 00 00 	lea    rax,[rip+0xcd77]        # f019 <_IO_stdin_used+0x19>
    22a2:	48 89 c7             	mov    rdi,rax
    22a5:	b8 00 00 00 00       	mov    eax,0x0
    22aa:	e8 41 ee ff ff       	call   10f0 <printf@plt>
    22af:	b8 00 00 00 00       	mov    eax,0x0
    22b4:	e8 b7 ef ff ff       	call   1270 <get_input>
    22b9:	89 45 fc             	mov    DWORD PTR [rbp-0x4],eax
    22bc:	81 7d fc 8b 01 00 00 	cmp    DWORD PTR [rbp-0x4],0x18b
    22c3:	75 05                	jne    22ca <main+0xfb3>
    22c5:	e9 26 7a 00 00       	jmp    9cf0 <main+0x89d9>
    22ca:	48 8d 05 57 cd 00 00 	lea    rax,[rip+0xcd57]        # f028 <_IO_stdin_used+0x28>
    22d1:	48 89 c7             	mov    rdi,rax
    22d4:	e8 e7 ed ff ff       	call   10c0 <puts@plt>
    22d9:	bf 01 00 00 00       	mov    edi,0x1
    22de:	e8 4d ee ff ff       	call   1130 <exit@plt>
    22e3:	be 2e 00 00 00       	mov    esi,0x2e
    22e8:	48 8d 05 2a cd 00 00 	lea    rax,[rip+0xcd2a]        # f019 <_IO_stdin_used+0x19>
    22ef:	48 89 c7             	mov    rdi,rax
    22f2:	b8 00 00 00 00       	mov    eax,0x0
    22f7:	e8 f4 ed ff ff       	call   10f0 <printf@plt>
    22fc:	b8 00 00 00 00       	mov    eax,0x0
    2301:	e8 6a ef ff ff       	call   1270 <get_input>
    2306:	89 45 fc             	mov    DWORD PTR [rbp-0x4],eax
    2309:	81 7d fc 12 01 00 00 	cmp    DWORD PTR [rbp-0x4],0x112
    2310:	75 05                	jne    2317 <main+0x1000>
    2312:	e9 6c 4f 00 00       	jmp    7283 <main+0x5f6c>
    2317:	81 7d fc 35 01 00 00 	cmp    DWORD PTR [rbp-0x4],0x135
    231e:	0f 84 b0 5b 00 00    	je     7ed4 <main+0x6bbd>
    2324:	48 8d 05 fd cc 00 00 	lea    rax,[rip+0xccfd]        # f028 <_IO_stdin_used+0x28>
    232b:	48 89 c7             	mov    rdi,rax
    232e:	e8 8d ed ff ff       	call   10c0 <puts@plt>
    2333:	bf 01 00 00 00       	mov    edi,0x1
    2338:	e8 f3 ed ff ff       	call   1130 <exit@plt>
    233d:	be 2f 00 00 00       	mov    esi,0x2f
    2342:	48 8d 05 d0 cc 00 00 	lea    rax,[rip+0xccd0]        # f019 <_IO_stdin_used+0x19>
    2349:	48 89 c7             	mov    rdi,rax
    234c:	b8 00 00 00 00       	mov    eax,0x0
    2351:	e8 9a ed ff ff       	call   10f0 <printf@plt>
    2356:	b8 00 00 00 00       	mov    eax,0x0
    235b:	e8 10 ef ff ff       	call   1270 <get_input>
    2360:	89 45 fc             	mov    DWORD PTR [rbp-0x4],eax
    2363:	81 7d fc 9f 01 00 00 	cmp    DWORD PTR [rbp-0x4],0x19f
    236a:	75 05                	jne    2371 <main+0x105a>
    236c:	e9 da 80 00 00       	jmp    a44b <main+0x9134>
    2371:	81 7d fc 46 01 00 00 	cmp    DWORD PTR [rbp-0x4],0x146
    2378:	0f 84 49 61 00 00    	je     84c7 <main+0x71b0>
    237e:	48 8d 05 a3 cc 00 00 	lea    rax,[rip+0xcca3]        # f028 <_IO_stdin_used+0x28>
    2385:	48 89 c7             	mov    rdi,rax
    2388:	e8 33 ed ff ff       	call   10c0 <puts@plt>
    238d:	bf 01 00 00 00       	mov    edi,0x1
    2392:	e8 99 ed ff ff       	call   1130 <exit@plt>
    2397:	90                   	nop
    2398:	be 30 00 00 00       	mov    esi,0x30
    239d:	48 8d 05 75 cc 00 00 	lea    rax,[rip+0xcc75]        # f019 <_IO_stdin_used+0x19>
    23a4:	48 89 c7             	mov    rdi,rax
    23a7:	b8 00 00 00 00       	mov    eax,0x0
    23ac:	e8 3f ed ff ff       	call   10f0 <printf@plt>
    23b1:	b8 00 00 00 00       	mov    eax,0x0
    23b6:	e8 b5 ee ff ff       	call   1270 <get_input>
    23bb:	89 45 fc             	mov    DWORD PTR [rbp-0x4],eax
    23be:	81 7d fc 4b 01 00 00 	cmp    DWORD PTR [rbp-0x4],0x14b
    23c5:	75 05                	jne    23cc <main+0x10b5>
    23c7:	e9 cc 62 00 00       	jmp    8698 <main+0x7381>
    23cc:	48 8d 05 55 cc 00 00 	lea    rax,[rip+0xcc55]        # f028 <_IO_stdin_used+0x28>
    23d3:	48 89 c7             	mov    rdi,rax
    23d6:	e8 e5 ec ff ff       	call   10c0 <puts@plt>
    23db:	bf 01 00 00 00       	mov    edi,0x1
    23e0:	e8 4b ed ff ff       	call   1130 <exit@plt>
    23e5:	90                   	nop
    23e6:	be 31 00 00 00       	mov    esi,0x31
    23eb:	48 8d 05 27 cc 00 00 	lea    rax,[rip+0xcc27]        # f019 <_IO_stdin_used+0x19>
    23f2:	48 89 c7             	mov    rdi,rax
    23f5:	b8 00 00 00 00       	mov    eax,0x0
    23fa:	e8 f1 ec ff ff       	call   10f0 <printf@plt>
    23ff:	b8 00 00 00 00       	mov    eax,0x0
    2404:	e8 67 ee ff ff       	call   1270 <get_input>
    2409:	89 45 fc             	mov    DWORD PTR [rbp-0x4],eax
    240c:	83 7d fc 5e          	cmp    DWORD PTR [rbp-0x4],0x5e
    2410:	75 05                	jne    2417 <main+0x1100>
    2412:	e9 8c 0f 00 00       	jmp    33a3 <main+0x208c>
    2417:	48 8d 05 0a cc 00 00 	lea    rax,[rip+0xcc0a]        # f028 <_IO_stdin_used+0x28>
    241e:	48 89 c7             	mov    rdi,rax
    2421:	e8 9a ec ff ff       	call   10c0 <puts@plt>
    2426:	bf 01 00 00 00       	mov    edi,0x1
    242b:	e8 00 ed ff ff       	call   1130 <exit@plt>
    2430:	90                   	nop
    2431:	be 32 00 00 00       	mov    esi,0x32
    2436:	48 8d 05 dc cb 00 00 	lea    rax,[rip+0xcbdc]        # f019 <_IO_stdin_used+0x19>
    243d:	48 89 c7             	mov    rdi,rax
    2440:	b8 00 00 00 00       	mov    eax,0x0
    2445:	e8 a6 ec ff ff       	call   10f0 <printf@plt>
    244a:	b8 00 00 00 00       	mov    eax,0x0
    244f:	e8 1c ee ff ff       	call   1270 <get_input>
    2454:	89 45 fc             	mov    DWORD PTR [rbp-0x4],eax
    2457:	81 7d fc 6f 02 00 00 	cmp    DWORD PTR [rbp-0x4],0x26f
    245e:	75 05                	jne    2465 <main+0x114e>
    2460:	e9 2b c9 00 00       	jmp    ed90 <main+0xda79>
    2465:	48 8d 05 bc cb 00 00 	lea    rax,[rip+0xcbbc]        # f028 <_IO_stdin_used+0x28>
    246c:	48 89 c7             	mov    rdi,rax
    246f:	e8 4c ec ff ff       	call   10c0 <puts@plt>
    2474:	bf 01 00 00 00       	mov    edi,0x1
    2479:	e8 b2 ec ff ff       	call   1130 <exit@plt>
    247e:	90                   	nop
    247f:	be 33 00 00 00       	mov    esi,0x33
    2484:	48 8d 05 8e cb 00 00 	lea    rax,[rip+0xcb8e]        # f019 <_IO_stdin_used+0x19>
    248b:	48 89 c7             	mov    rdi,rax
    248e:	b8 00 00 00 00       	mov    eax,0x0
    2493:	e8 58 ec ff ff       	call   10f0 <printf@plt>
    2498:	b8 00 00 00 00       	mov    eax,0x0
    249d:	e8 ce ed ff ff       	call   1270 <get_input>
    24a2:	89 45 fc             	mov    DWORD PTR [rbp-0x4],eax
    24a5:	81 7d fc 2b 02 00 00 	cmp    DWORD PTR [rbp-0x4],0x22b
    24ac:	75 05                	jne    24b3 <main+0x119c>
    24ae:	e9 f2 af 00 00       	jmp    d4a5 <main+0xc18e>
    24b3:	48 8d 05 6e cb 00 00 	lea    rax,[rip+0xcb6e]        # f028 <_IO_stdin_used+0x28>
    24ba:	48 89 c7             	mov    rdi,rax
    24bd:	e8 fe eb ff ff       	call   10c0 <puts@plt>
    24c2:	bf 01 00 00 00       	mov    edi,0x1
    24c7:	e8 64 ec ff ff       	call   1130 <exit@plt>
    24cc:	be 34 00 00 00       	mov    esi,0x34
    24d1:	48 8d 05 41 cb 00 00 	lea    rax,[rip+0xcb41]        # f019 <_IO_stdin_used+0x19>
    24d8:	48 89 c7             	mov    rdi,rax
    24db:	b8 00 00 00 00       	mov    eax,0x0
    24e0:	e8 0b ec ff ff       	call   10f0 <printf@plt>
    24e5:	b8 00 00 00 00       	mov    eax,0x0
    24ea:	e8 81 ed ff ff       	call   1270 <get_input>
    24ef:	89 45 fc             	mov    DWORD PTR [rbp-0x4],eax
    24f2:	81 7d fc 5d 01 00 00 	cmp    DWORD PTR [rbp-0x4],0x15d
    24f9:	75 05                	jne    2500 <main+0x11e9>
    24fb:	e9 e1 67 00 00       	jmp    8ce1 <main+0x79ca>
    2500:	81 7d fc c4 01 00 00 	cmp    DWORD PTR [rbp-0x4],0x1c4
    2507:	75 05                	jne    250e <main+0x11f7>
    2509:	e9 0a 8c 00 00       	jmp    b118 <main+0x9e01>
    250e:	81 7d fc 8c 00 00 00 	cmp    DWORD PTR [rbp-0x4],0x8c
    2515:	75 05                	jne    251c <main+0x1205>
    2517:	e9 bf 1e 00 00       	jmp    43db <main+0x30c4>
    251c:	48 8d 05 05 cb 00 00 	lea    rax,[rip+0xcb05]        # f028 <_IO_stdin_used+0x28>
    2523:	48 89 c7             	mov    rdi,rax
    2526:	e8 95 eb ff ff       	call   10c0 <puts@plt>
    252b:	bf 01 00 00 00       	mov    edi,0x1
    2530:	e8 fb eb ff ff       	call   1130 <exit@plt>
    2535:	be 35 00 00 00       	mov    esi,0x35
    253a:	48 8d 05 d8 ca 00 00 	lea    rax,[rip+0xcad8]        # f019 <_IO_stdin_used+0x19>
    2541:	48 89 c7             	mov    rdi,rax
    2544:	b8 00 00 00 00       	mov    eax,0x0
    2549:	e8 a2 eb ff ff       	call   10f0 <printf@plt>
    254e:	b8 00 00 00 00       	mov    eax,0x0
    2553:	e8 18 ed ff ff       	call   1270 <get_input>
    2558:	89 45 fc             	mov    DWORD PTR [rbp-0x4],eax
    255b:	81 7d fc bf 00 00 00 	cmp    DWORD PTR [rbp-0x4],0xbf
    2562:	75 05                	jne    2569 <main+0x1252>
    2564:	e9 63 30 00 00       	jmp    55cc <main+0x42b5>
    2569:	83 7d fc 71          	cmp    DWORD PTR [rbp-0x4],0x71
    256d:	75 05                	jne    2574 <main+0x125d>
    256f:	e9 e0 14 00 00       	jmp    3a54 <main+0x273d>
    2574:	48 8d 05 ad ca 00 00 	lea    rax,[rip+0xcaad]        # f028 <_IO_stdin_used+0x28>
    257b:	48 89 c7             	mov    rdi,rax
    257e:	e8 3d eb ff ff       	call   10c0 <puts@plt>
    2583:	bf 01 00 00 00       	mov    edi,0x1
    2588:	e8 a3 eb ff ff       	call   1130 <exit@plt>
    258d:	90                   	nop
    258e:	be 36 00 00 00       	mov    esi,0x36
    2593:	48 8d 05 7f ca 00 00 	lea    rax,[rip+0xca7f]        # f019 <_IO_stdin_used+0x19>
    259a:	48 89 c7             	mov    rdi,rax
    259d:	b8 00 00 00 00       	mov    eax,0x0
    25a2:	e8 49 eb ff ff       	call   10f0 <printf@plt>
    25a7:	b8 00 00 00 00       	mov    eax,0x0
    25ac:	e8 bf ec ff ff       	call   1270 <get_input>
    25b1:	89 45 fc             	mov    DWORD PTR [rbp-0x4],eax
    25b4:	83 7d fc 14          	cmp    DWORD PTR [rbp-0x4],0x14
    25b8:	75 05                	jne    25bf <main+0x12a8>
    25ba:	e9 3e f4 ff ff       	jmp    19fd <main+0x6e6>
    25bf:	48 8d 05 62 ca 00 00 	lea    rax,[rip+0xca62]        # f028 <_IO_stdin_used+0x28>
    25c6:	48 89 c7             	mov    rdi,rax
    25c9:	e8 f2 ea ff ff       	call   10c0 <puts@plt>
    25ce:	bf 01 00 00 00       	mov    edi,0x1
    25d3:	e8 58 eb ff ff       	call   1130 <exit@plt>
    25d8:	90                   	nop
    25d9:	be 37 00 00 00       	mov    esi,0x37
    25de:	48 8d 05 34 ca 00 00 	lea    rax,[rip+0xca34]        # f019 <_IO_stdin_used+0x19>
    25e5:	48 89 c7             	mov    rdi,rax
    25e8:	b8 00 00 00 00       	mov    eax,0x0
    25ed:	e8 fe ea ff ff       	call   10f0 <printf@plt>
    25f2:	b8 00 00 00 00       	mov    eax,0x0
    25f7:	e8 74 ec ff ff       	call   1270 <get_input>
    25fc:	89 45 fc             	mov    DWORD PTR [rbp-0x4],eax
    25ff:	81 7d fc ba 00 00 00 	cmp    DWORD PTR [rbp-0x4],0xba
    2606:	75 05                	jne    260d <main+0x12f6>
    2608:	e9 ea 2d 00 00       	jmp    53f7 <main+0x40e0>
    260d:	48 8d 05 14 ca 00 00 	lea    rax,[rip+0xca14]        # f028 <_IO_stdin_used+0x28>
    2614:	48 89 c7             	mov    rdi,rax
    2617:	e8 a4 ea ff ff       	call   10c0 <puts@plt>
    261c:	bf 01 00 00 00       	mov    edi,0x1
    2621:	e8 0a eb ff ff       	call   1130 <exit@plt>
    2626:	90                   	nop
    2627:	be 38 00 00 00       	mov    esi,0x38
    262c:	48 8d 05 e6 c9 00 00 	lea    rax,[rip+0xc9e6]        # f019 <_IO_stdin_used+0x19>
    2633:	48 89 c7             	mov    rdi,rax
    2636:	b8 00 00 00 00       	mov    eax,0x0
    263b:	e8 b0 ea ff ff       	call   10f0 <printf@plt>
    2640:	b8 00 00 00 00       	mov    eax,0x0
    2645:	e8 26 ec ff ff       	call   1270 <get_input>
    264a:	89 45 fc             	mov    DWORD PTR [rbp-0x4],eax
    264d:	81 7d fc 56 01 00 00 	cmp    DWORD PTR [rbp-0x4],0x156
    2654:	75 05                	jne    265b <main+0x1344>
    2656:	e9 2d 64 00 00       	jmp    8a88 <main+0x7771>
    265b:	48 8d 05 c6 c9 00 00 	lea    rax,[rip+0xc9c6]        # f028 <_IO_stdin_used+0x28>
    2662:	48 89 c7             	mov    rdi,rax
    2665:	e8 56 ea ff ff       	call   10c0 <puts@plt>
    266a:	bf 01 00 00 00       	mov    edi,0x1
    266f:	e8 bc ea ff ff       	call   1130 <exit@plt>
    2674:	90                   	nop
    2675:	be 39 00 00 00       	mov    esi,0x39
    267a:	48 8d 05 98 c9 00 00 	lea    rax,[rip+0xc998]        # f019 <_IO_stdin_used+0x19>
    2681:	48 89 c7             	mov    rdi,rax
    2684:	b8 00 00 00 00       	mov    eax,0x0
    2689:	e8 62 ea ff ff       	call   10f0 <printf@plt>
    268e:	b8 00 00 00 00       	mov    eax,0x0
    2693:	e8 d8 eb ff ff       	call   1270 <get_input>
    2698:	89 45 fc             	mov    DWORD PTR [rbp-0x4],eax
    269b:	81 7d fc 8d 00 00 00 	cmp    DWORD PTR [rbp-0x4],0x8d
    26a2:	75 05                	jne    26a9 <main+0x1392>
    26a4:	e9 8a 1d 00 00       	jmp    4433 <main+0x311c>
    26a9:	48 8d 05 78 c9 00 00 	lea    rax,[rip+0xc978]        # f028 <_IO_stdin_used+0x28>
    26b0:	48 89 c7             	mov    rdi,rax
    26b3:	e8 08 ea ff ff       	call   10c0 <puts@plt>
    26b8:	bf 01 00 00 00       	mov    edi,0x1
    26bd:	e8 6e ea ff ff       	call   1130 <exit@plt>
    26c2:	be 3a 00 00 00       	mov    esi,0x3a
    26c7:	48 8d 05 4b c9 00 00 	lea    rax,[rip+0xc94b]        # f019 <_IO_stdin_used+0x19>
    26ce:	48 89 c7             	mov    rdi,rax
    26d1:	b8 00 00 00 00       	mov    eax,0x0
    26d6:	e8 15 ea ff ff       	call   10f0 <printf@plt>
    26db:	b8 00 00 00 00       	mov    eax,0x0
    26e0:	e8 8b eb ff ff       	call   1270 <get_input>
    26e5:	89 45 fc             	mov    DWORD PTR [rbp-0x4],eax
    26e8:	81 7d fc 96 00 00 00 	cmp    DWORD PTR [rbp-0x4],0x96
    26ef:	75 05                	jne    26f6 <main+0x13df>
    26f1:	e9 6a 20 00 00       	jmp    4760 <main+0x3449>
    26f6:	81 7d fc e1 00 00 00 	cmp    DWORD PTR [rbp-0x4],0xe1
    26fd:	75 05                	jne    2704 <main+0x13ed>
    26ff:	e9 98 3a 00 00       	jmp    619c <main+0x4e85>
    2704:	81 7d fc 10 01 00 00 	cmp    DWORD PTR [rbp-0x4],0x110
    270b:	75 05                	jne    2712 <main+0x13fb>
    270d:	e9 c4 4a 00 00       	jmp    71d6 <main+0x5ebf>
    2712:	48 8d 05 0f c9 00 00 	lea    rax,[rip+0xc90f]        # f028 <_IO_stdin_used+0x28>
    2719:	48 89 c7             	mov    rdi,rax
    271c:	e8 9f e9 ff ff       	call   10c0 <puts@plt>
    2721:	bf 01 00 00 00       	mov    edi,0x1
    2726:	e8 05 ea ff ff       	call   1130 <exit@plt>
    272b:	90                   	nop
    272c:	be 3b 00 00 00       	mov    esi,0x3b
    2731:	48 8d 05 e1 c8 00 00 	lea    rax,[rip+0xc8e1]        # f019 <_IO_stdin_used+0x19>
    2738:	48 89 c7             	mov    rdi,rax
    273b:	b8 00 00 00 00       	mov    eax,0x0
    2740:	e8 ab e9 ff ff       	call   10f0 <printf@plt>
    2745:	b8 00 00 00 00       	mov    eax,0x0
    274a:	e8 21 eb ff ff       	call   1270 <get_input>
    274f:	89 45 fc             	mov    DWORD PTR [rbp-0x4],eax
    2752:	81 7d fc f6 01 00 00 	cmp    DWORD PTR [rbp-0x4],0x1f6
    2759:	75 05                	jne    2760 <main+0x1449>
    275b:	e9 fb 9a 00 00       	jmp    c25b <main+0xaf44>
    2760:	48 8d 05 c1 c8 00 00 	lea    rax,[rip+0xc8c1]        # f028 <_IO_stdin_used+0x28>
    2767:	48 89 c7             	mov    rdi,rax
    276a:	e8 51 e9 ff ff       	call   10c0 <puts@plt>
    276f:	bf 01 00 00 00       	mov    edi,0x1
    2774:	e8 b7 e9 ff ff       	call   1130 <exit@plt>
    2779:	90                   	nop
    277a:	be 3c 00 00 00       	mov    esi,0x3c
    277f:	48 8d 05 93 c8 00 00 	lea    rax,[rip+0xc893]        # f019 <_IO_stdin_used+0x19>
    2786:	48 89 c7             	mov    rdi,rax
    2789:	b8 00 00 00 00       	mov    eax,0x0
    278e:	e8 5d e9 ff ff       	call   10f0 <printf@plt>
    2793:	b8 00 00 00 00       	mov    eax,0x0
    2798:	e8 d3 ea ff ff       	call   1270 <get_input>
    279d:	89 45 fc             	mov    DWORD PTR [rbp-0x4],eax
    27a0:	81 7d fc 4d 01 00 00 	cmp    DWORD PTR [rbp-0x4],0x14d
    27a7:	75 05                	jne    27ae <main+0x1497>
    27a9:	e9 a7 5f 00 00       	jmp    8755 <main+0x743e>
    27ae:	48 8d 05 73 c8 00 00 	lea    rax,[rip+0xc873]        # f028 <_IO_stdin_used+0x28>
    27b5:	48 89 c7             	mov    rdi,rax
    27b8:	e8 03 e9 ff ff       	call   10c0 <puts@plt>
    27bd:	bf 01 00 00 00       	mov    edi,0x1
    27c2:	e8 69 e9 ff ff       	call   1130 <exit@plt>
    27c7:	be 3d 00 00 00       	mov    esi,0x3d
    27cc:	48 8d 05 46 c8 00 00 	lea    rax,[rip+0xc846]        # f019 <_IO_stdin_used+0x19>
    27d3:	48 89 c7             	mov    rdi,rax
    27d6:	b8 00 00 00 00       	mov    eax,0x0
    27db:	e8 10 e9 ff ff       	call   10f0 <printf@plt>
    27e0:	b8 00 00 00 00       	mov    eax,0x0
    27e5:	e8 86 ea ff ff       	call   1270 <get_input>
    27ea:	89 45 fc             	mov    DWORD PTR [rbp-0x4],eax
    27ed:	81 7d fc 94 01 00 00 	cmp    DWORD PTR [rbp-0x4],0x194
    27f4:	75 05                	jne    27fb <main+0x14e4>
    27f6:	e9 43 78 00 00       	jmp    a03e <main+0x8d27>
    27fb:	83 7d fc 4b          	cmp    DWORD PTR [rbp-0x4],0x4b
    27ff:	75 05                	jne    2806 <main+0x14ef>
    2801:	e9 be 04 00 00       	jmp    2cc4 <main+0x19ad>
    2806:	48 8d 05 1b c8 00 00 	lea    rax,[rip+0xc81b]        # f028 <_IO_stdin_used+0x28>
    280d:	48 89 c7             	mov    rdi,rax
    2810:	e8 ab e8 ff ff       	call   10c0 <puts@plt>
    2815:	bf 01 00 00 00       	mov    edi,0x1
    281a:	e8 11 e9 ff ff       	call   1130 <exit@plt>
    281f:	be 3e 00 00 00       	mov    esi,0x3e
    2824:	48 8d 05 ee c7 00 00 	lea    rax,[rip+0xc7ee]        # f019 <_IO_stdin_used+0x19>
    282b:	48 89 c7             	mov    rdi,rax
    282e:	b8 00 00 00 00       	mov    eax,0x0
    2833:	e8 b8 e8 ff ff       	call   10f0 <printf@plt>
    2838:	b8 00 00 00 00       	mov    eax,0x0
    283d:	e8 2e ea ff ff       	call   1270 <get_input>
    2842:	89 45 fc             	mov    DWORD PTR [rbp-0x4],eax
    2845:	81 7d fc 45 02 00 00 	cmp    DWORD PTR [rbp-0x4],0x245
    284c:	75 05                	jne    2853 <main+0x153c>
    284e:	e9 da b5 00 00       	jmp    de2d <main+0xcb16>
    2853:	81 7d fc 58 01 00 00 	cmp    DWORD PTR [rbp-0x4],0x158
    285a:	0f 84 e5 62 00 00    	je     8b45 <main+0x782e>
    2860:	48 8d 05 c1 c7 00 00 	lea    rax,[rip+0xc7c1]        # f028 <_IO_stdin_used+0x28>
    2867:	48 89 c7             	mov    rdi,rax
    286a:	e8 51 e8 ff ff       	call   10c0 <puts@plt>
    286f:	bf 01 00 00 00       	mov    edi,0x1
    2874:	e8 b7 e8 ff ff       	call   1130 <exit@plt>
    2879:	be 3f 00 00 00       	mov    esi,0x3f
    287e:	48 8d 05 94 c7 00 00 	lea    rax,[rip+0xc794]        # f019 <_IO_stdin_used+0x19>
    2885:	48 89 c7             	mov    rdi,rax
    2888:	b8 00 00 00 00       	mov    eax,0x0
    288d:	e8 5e e8 ff ff       	call   10f0 <printf@plt>
    2892:	b8 00 00 00 00       	mov    eax,0x0
    2897:	e8 d4 e9 ff ff       	call   1270 <get_input>
    289c:	89 45 fc             	mov    DWORD PTR [rbp-0x4],eax
    289f:	81 7d fc dc 01 00 00 	cmp    DWORD PTR [rbp-0x4],0x1dc
    28a6:	75 05                	jne    28ad <main+0x1596>
    28a8:	e9 ca 90 00 00       	jmp    b977 <main+0xa660>
    28ad:	81 7d fc 67 01 00 00 	cmp    DWORD PTR [rbp-0x4],0x167
    28b4:	75 05                	jne    28bb <main+0x15a4>
    28b6:	e9 93 67 00 00       	jmp    904e <main+0x7d37>
    28bb:	48 8d 05 66 c7 00 00 	lea    rax,[rip+0xc766]        # f028 <_IO_stdin_used+0x28>
    28c2:	48 89 c7             	mov    rdi,rax
    28c5:	e8 f6 e7 ff ff       	call   10c0 <puts@plt>
    28ca:	bf 01 00 00 00       	mov    edi,0x1
    28cf:	e8 5c e8 ff ff       	call   1130 <exit@plt>
    28d4:	be 40 00 00 00       	mov    esi,0x40
    28d9:	48 8d 05 39 c7 00 00 	lea    rax,[rip+0xc739]        # f019 <_IO_stdin_used+0x19>
    28e0:	48 89 c7             	mov    rdi,rax
    28e3:	b8 00 00 00 00       	mov    eax,0x0
    28e8:	e8 03 e8 ff ff       	call   10f0 <printf@plt>
    28ed:	b8 00 00 00 00       	mov    eax,0x0
    28f2:	e8 79 e9 ff ff       	call   1270 <get_input>
    28f7:	89 45 fc             	mov    DWORD PTR [rbp-0x4],eax
    28fa:	81 7d fc 77 01 00 00 	cmp    DWORD PTR [rbp-0x4],0x177
    2901:	75 05                	jne    2908 <main+0x15f1>
    2903:	e9 e8 6c 00 00       	jmp    95f0 <main+0x82d9>
    2908:	81 7d fc f9 00 00 00 	cmp    DWORD PTR [rbp-0x4],0xf9
    290f:	75 05                	jne    2916 <main+0x15ff>
    2911:	e9 bf 40 00 00       	jmp    69d5 <main+0x56be>
    2916:	48 8d 05 0b c7 00 00 	lea    rax,[rip+0xc70b]        # f028 <_IO_stdin_used+0x28>
    291d:	48 89 c7             	mov    rdi,rax
    2920:	e8 9b e7 ff ff       	call   10c0 <puts@plt>
    2925:	bf 01 00 00 00       	mov    edi,0x1
    292a:	e8 01 e8 ff ff       	call   1130 <exit@plt>
    292f:	90                   	nop
    2930:	be 41 00 00 00       	mov    esi,0x41
    2935:	48 8d 05 dd c6 00 00 	lea    rax,[rip+0xc6dd]        # f019 <_IO_stdin_used+0x19>
    293c:	48 89 c7             	mov    rdi,rax
    293f:	b8 00 00 00 00       	mov    eax,0x0
    2944:	e8 a7 e7 ff ff       	call   10f0 <printf@plt>
    2949:	b8 00 00 00 00       	mov    eax,0x0
    294e:	e8 1d e9 ff ff       	call   1270 <get_input>
    2953:	89 45 fc             	mov    DWORD PTR [rbp-0x4],eax
    2956:	83 7d fc 44          	cmp    DWORD PTR [rbp-0x4],0x44
    295a:	75 05                	jne    2961 <main+0x164a>
    295c:	e9 dc 00 00 00       	jmp    2a3d <main+0x1726>
    2961:	48 8d 05 c0 c6 00 00 	lea    rax,[rip+0xc6c0]        # f028 <_IO_stdin_used+0x28>
    2968:	48 89 c7             	mov    rdi,rax
    296b:	e8 50 e7 ff ff       	call   10c0 <puts@plt>
    2970:	bf 01 00 00 00       	mov    edi,0x1
    2975:	e8 b6 e7 ff ff       	call   1130 <exit@plt>
    297a:	be 42 00 00 00       	mov    esi,0x42
    297f:	48 8d 05 93 c6 00 00 	lea    rax,[rip+0xc693]        # f019 <_IO_stdin_used+0x19>
    2986:	48 89 c7             	mov    rdi,rax
    2989:	b8 00 00 00 00       	mov    eax,0x0
    298e:	e8 5d e7 ff ff       	call   10f0 <printf@plt>
    2993:	b8 00 00 00 00       	mov    eax,0x0
    2998:	e8 d3 e8 ff ff       	call   1270 <get_input>
    299d:	89 45 fc             	mov    DWORD PTR [rbp-0x4],eax
    29a0:	81 7d fc 85 00 00 00 	cmp    DWORD PTR [rbp-0x4],0x85
    29a7:	75 05                	jne    29ae <main+0x1697>
    29a9:	e9 e5 17 00 00       	jmp    4193 <main+0x2e7c>
    29ae:	81 7d fc e1 01 00 00 	cmp    DWORD PTR [rbp-0x4],0x1e1
    29b5:	75 05                	jne    29bc <main+0x16a5>
    29b7:	e9 6a 91 00 00       	jmp    bb26 <main+0xa80f>
    29bc:	81 7d fc 7d 01 00 00 	cmp    DWORD PTR [rbp-0x4],0x17d
    29c3:	75 05                	jne    29ca <main+0x16b3>
    29c5:	e9 17 6e 00 00       	jmp    97e1 <main+0x84ca>
    29ca:	48 8d 05 57 c6 00 00 	lea    rax,[rip+0xc657]        # f028 <_IO_stdin_used+0x28>
    29d1:	48 89 c7             	mov    rdi,rax
    29d4:	e8 e7 e6 ff ff       	call   10c0 <puts@plt>
    29d9:	bf 01 00 00 00       	mov    edi,0x1
    29de:	e8 4d e7 ff ff       	call   1130 <exit@plt>
    29e3:	be 43 00 00 00       	mov    esi,0x43
    29e8:	48 8d 05 2a c6 00 00 	lea    rax,[rip+0xc62a]        # f019 <_IO_stdin_used+0x19>
    29ef:	48 89 c7             	mov    rdi,rax
    29f2:	b8 00 00 00 00       	mov    eax,0x0
    29f7:	e8 f4 e6 ff ff       	call   10f0 <printf@plt>
    29fc:	b8 00 00 00 00       	mov    eax,0x0
    2a01:	e8 6a e8 ff ff       	call   1270 <get_input>
    2a06:	89 45 fc             	mov    DWORD PTR [rbp-0x4],eax
    2a09:	81 7d fc 14 01 00 00 	cmp    DWORD PTR [rbp-0x4],0x114
    2a10:	75 05                	jne    2a17 <main+0x1700>
    2a12:	e9 1c 49 00 00       	jmp    7333 <main+0x601c>
    2a17:	81 7d fc e4 01 00 00 	cmp    DWORD PTR [rbp-0x4],0x1e4
    2a1e:	0f 84 1c 92 00 00    	je     bc40 <main+0xa929>
    2a24:	48 8d 05 fd c5 00 00 	lea    rax,[rip+0xc5fd]        # f028 <_IO_stdin_used+0x28>
    2a2b:	48 89 c7             	mov    rdi,rax
    2a2e:	e8 8d e6 ff ff       	call   10c0 <puts@plt>
    2a33:	bf 01 00 00 00       	mov    edi,0x1
    2a38:	e8 f3 e6 ff ff       	call   1130 <exit@plt>
    2a3d:	be 44 00 00 00       	mov    esi,0x44
    2a42:	48 8d 05 d0 c5 00 00 	lea    rax,[rip+0xc5d0]        # f019 <_IO_stdin_used+0x19>
    2a49:	48 89 c7             	mov    rdi,rax
    2a4c:	b8 00 00 00 00       	mov    eax,0x0
    2a51:	e8 9a e6 ff ff       	call   10f0 <printf@plt>
    2a56:	b8 00 00 00 00       	mov    eax,0x0
    2a5b:	e8 10 e8 ff ff       	call   1270 <get_input>
    2a60:	89 45 fc             	mov    DWORD PTR [rbp-0x4],eax
    2a63:	81 7d fc 5e 02 00 00 	cmp    DWORD PTR [rbp-0x4],0x25e
    2a6a:	75 05                	jne    2a71 <main+0x175a>
    2a6c:	e9 f9 bc 00 00       	jmp    e76a <main+0xd453>
    2a71:	83 7d fc 41          	cmp    DWORD PTR [rbp-0x4],0x41
    2a75:	0f 84 b4 fe ff ff    	je     292f <main+0x1618>
    2a7b:	81 7d fc 9b 00 00 00 	cmp    DWORD PTR [rbp-0x4],0x9b
    2a82:	0f 84 d0 1e 00 00    	je     4958 <main+0x3641>
    2a88:	48 8d 05 99 c5 00 00 	lea    rax,[rip+0xc599]        # f028 <_IO_stdin_used+0x28>
    2a8f:	48 89 c7             	mov    rdi,rax
    2a92:	e8 29 e6 ff ff       	call   10c0 <puts@plt>
    2a97:	bf 01 00 00 00       	mov    edi,0x1
    2a9c:	e8 8f e6 ff ff       	call   1130 <exit@plt>
    2aa1:	90                   	nop
    2aa2:	be 45 00 00 00       	mov    esi,0x45
    2aa7:	48 8d 05 6b c5 00 00 	lea    rax,[rip+0xc56b]        # f019 <_IO_stdin_used+0x19>
    2aae:	48 89 c7             	mov    rdi,rax
    2ab1:	b8 00 00 00 00       	mov    eax,0x0
    2ab6:	e8 35 e6 ff ff       	call   10f0 <printf@plt>
    2abb:	b8 00 00 00 00       	mov    eax,0x0
    2ac0:	e8 ab e7 ff ff       	call   1270 <get_input>
    2ac5:	89 45 fc             	mov    DWORD PTR [rbp-0x4],eax
    2ac8:	81 7d fc a2 01 00 00 	cmp    DWORD PTR [rbp-0x4],0x1a2
    2acf:	75 05                	jne    2ad6 <main+0x17bf>
    2ad1:	e9 69 7a 00 00       	jmp    a53f <main+0x9228>
    2ad6:	48 8d 05 4b c5 00 00 	lea    rax,[rip+0xc54b]        # f028 <_IO_stdin_used+0x28>
    2add:	48 89 c7             	mov    rdi,rax
    2ae0:	e8 db e5 ff ff       	call   10c0 <puts@plt>
    2ae5:	bf 01 00 00 00       	mov    edi,0x1
    2aea:	e8 41 e6 ff ff       	call   1130 <exit@plt>
    2aef:	be 46 00 00 00       	mov    esi,0x46
    2af4:	48 8d 05 1e c5 00 00 	lea    rax,[rip+0xc51e]        # f019 <_IO_stdin_used+0x19>
    2afb:	48 89 c7             	mov    rdi,rax
    2afe:	b8 00 00 00 00       	mov    eax,0x0
    2b03:	e8 e8 e5 ff ff       	call   10f0 <printf@plt>
    2b08:	b8 00 00 00 00       	mov    eax,0x0
    2b0d:	e8 5e e7 ff ff       	call   1270 <get_input>
    2b12:	89 45 fc             	mov    DWORD PTR [rbp-0x4],eax
    2b15:	81 7d fc 4a 02 00 00 	cmp    DWORD PTR [rbp-0x4],0x24a
    2b1c:	75 05                	jne    2b23 <main+0x180c>
    2b1e:	e9 f2 b4 00 00       	jmp    e015 <main+0xccfe>
    2b23:	81 7d fc e8 01 00 00 	cmp    DWORD PTR [rbp-0x4],0x1e8
    2b2a:	75 05                	jne    2b31 <main+0x181a>
    2b2c:	e9 5d 92 00 00       	jmp    bd8e <main+0xaa77>
    2b31:	48 8d 05 f0 c4 00 00 	lea    rax,[rip+0xc4f0]        # f028 <_IO_stdin_used+0x28>
    2b38:	48 89 c7             	mov    rdi,rax
    2b3b:	e8 80 e5 ff ff       	call   10c0 <puts@plt>
    2b40:	bf 01 00 00 00       	mov    edi,0x1
    2b45:	e8 e6 e5 ff ff       	call   1130 <exit@plt>
    2b4a:	be 47 00 00 00       	mov    esi,0x47
    2b4f:	48 8d 05 c3 c4 00 00 	lea    rax,[rip+0xc4c3]        # f019 <_IO_stdin_used+0x19>
    2b56:	48 89 c7             	mov    rdi,rax
    2b59:	b8 00 00 00 00       	mov    eax,0x0
    2b5e:	e8 8d e5 ff ff       	call   10f0 <printf@plt>
    2b63:	b8 00 00 00 00       	mov    eax,0x0
    2b68:	e8 03 e7 ff ff       	call   1270 <get_input>
    2b6d:	89 45 fc             	mov    DWORD PTR [rbp-0x4],eax
    2b70:	81 7d fc 97 01 00 00 	cmp    DWORD PTR [rbp-0x4],0x197
    2b77:	75 05                	jne    2b7e <main+0x1867>
    2b79:	e9 d8 75 00 00       	jmp    a156 <main+0x8e3f>
    2b7e:	81 7d fc f7 01 00 00 	cmp    DWORD PTR [rbp-0x4],0x1f7
    2b85:	75 05                	jne    2b8c <main+0x1875>
    2b87:	e9 26 97 00 00       	jmp    c2b2 <main+0xaf9b>
    2b8c:	48 8d 05 95 c4 00 00 	lea    rax,[rip+0xc495]        # f028 <_IO_stdin_used+0x28>
    2b93:	48 89 c7             	mov    rdi,rax
    2b96:	e8 25 e5 ff ff       	call   10c0 <puts@plt>
    2b9b:	bf 01 00 00 00       	mov    edi,0x1
    2ba0:	e8 8b e5 ff ff       	call   1130 <exit@plt>
    2ba5:	be 48 00 00 00       	mov    esi,0x48
    2baa:	48 8d 05 68 c4 00 00 	lea    rax,[rip+0xc468]        # f019 <_IO_stdin_used+0x19>
    2bb1:	48 89 c7             	mov    rdi,rax
    2bb4:	b8 00 00 00 00       	mov    eax,0x0
    2bb9:	e8 32 e5 ff ff       	call   10f0 <printf@plt>
    2bbe:	b8 00 00 00 00       	mov    eax,0x0
    2bc3:	e8 a8 e6 ff ff       	call   1270 <get_input>
    2bc8:	89 45 fc             	mov    DWORD PTR [rbp-0x4],eax
    2bcb:	81 7d fc 2f 02 00 00 	cmp    DWORD PTR [rbp-0x4],0x22f
    2bd2:	75 05                	jne    2bd9 <main+0x18c2>
    2bd4:	e9 55 aa 00 00       	jmp    d62e <main+0xc317>
    2bd9:	81 7d fc 38 01 00 00 	cmp    DWORD PTR [rbp-0x4],0x138
    2be0:	75 05                	jne    2be7 <main+0x18d0>
    2be2:	e9 ef 53 00 00       	jmp    7fd6 <main+0x6cbf>
    2be7:	48 8d 05 3a c4 00 00 	lea    rax,[rip+0xc43a]        # f028 <_IO_stdin_used+0x28>
    2bee:	48 89 c7             	mov    rdi,rax
    2bf1:	e8 ca e4 ff ff       	call   10c0 <puts@plt>
    2bf6:	bf 01 00 00 00       	mov    edi,0x1
    2bfb:	e8 30 e5 ff ff       	call   1130 <exit@plt>
    2c00:	be 49 00 00 00       	mov    esi,0x49
    2c05:	48 8d 05 0d c4 00 00 	lea    rax,[rip+0xc40d]        # f019 <_IO_stdin_used+0x19>
    2c0c:	48 89 c7             	mov    rdi,rax
    2c0f:	b8 00 00 00 00       	mov    eax,0x0
    2c14:	e8 d7 e4 ff ff       	call   10f0 <printf@plt>
    2c19:	b8 00 00 00 00       	mov    eax,0x0
    2c1e:	e8 4d e6 ff ff       	call   1270 <get_input>
    2c23:	89 45 fc             	mov    DWORD PTR [rbp-0x4],eax
    2c26:	81 7d fc ea 00 00 00 	cmp    DWORD PTR [rbp-0x4],0xea
    2c2d:	75 05                	jne    2c34 <main+0x191d>
    2c2f:	e9 5e 38 00 00       	jmp    6492 <main+0x517b>
    2c34:	81 7d fc 02 02 00 00 	cmp    DWORD PTR [rbp-0x4],0x202
    2c3b:	75 05                	jne    2c42 <main+0x192b>
    2c3d:	e9 2a 9a 00 00       	jmp    c66c <main+0xb355>
    2c42:	81 7d fc 83 01 00 00 	cmp    DWORD PTR [rbp-0x4],0x183
    2c49:	75 05                	jne    2c50 <main+0x1939>
    2c4b:	e9 d3 6d 00 00       	jmp    9a23 <main+0x870c>
    2c50:	48 8d 05 d1 c3 00 00 	lea    rax,[rip+0xc3d1]        # f028 <_IO_stdin_used+0x28>
    2c57:	48 89 c7             	mov    rdi,rax
    2c5a:	e8 61 e4 ff ff       	call   10c0 <puts@plt>
    2c5f:	bf 01 00 00 00       	mov    edi,0x1
    2c64:	e8 c7 e4 ff ff       	call   1130 <exit@plt>
    2c69:	be 4a 00 00 00       	mov    esi,0x4a
    2c6e:	48 8d 05 a4 c3 00 00 	lea    rax,[rip+0xc3a4]        # f019 <_IO_stdin_used+0x19>
    2c75:	48 89 c7             	mov    rdi,rax
    2c78:	b8 00 00 00 00       	mov    eax,0x0
    2c7d:	e8 6e e4 ff ff       	call   10f0 <printf@plt>
    2c82:	b8 00 00 00 00       	mov    eax,0x0
    2c87:	e8 e4 e5 ff ff       	call   1270 <get_input>
    2c8c:	89 45 fc             	mov    DWORD PTR [rbp-0x4],eax
    2c8f:	81 7d fc 6d 01 00 00 	cmp    DWORD PTR [rbp-0x4],0x16d
    2c96:	75 05                	jne    2c9d <main+0x1986>
    2c98:	e9 a5 65 00 00       	jmp    9242 <main+0x7f2b>
    2c9d:	81 7d fc fd 00 00 00 	cmp    DWORD PTR [rbp-0x4],0xfd
    2ca4:	75 05                	jne    2cab <main+0x1994>
    2ca6:	e9 b2 3e 00 00       	jmp    6b5d <main+0x5846>
    2cab:	48 8d 05 76 c3 00 00 	lea    rax,[rip+0xc376]        # f028 <_IO_stdin_used+0x28>
    2cb2:	48 89 c7             	mov    rdi,rax
    2cb5:	e8 06 e4 ff ff       	call   10c0 <puts@plt>
    2cba:	bf 01 00 00 00       	mov    edi,0x1
    2cbf:	e8 6c e4 ff ff       	call   1130 <exit@plt>
    2cc4:	be 4b 00 00 00       	mov    esi,0x4b
    2cc9:	48 8d 05 49 c3 00 00 	lea    rax,[rip+0xc349]        # f019 <_IO_stdin_used+0x19>
    2cd0:	48 89 c7             	mov    rdi,rax
    2cd3:	b8 00 00 00 00       	mov    eax,0x0
    2cd8:	e8 13 e4 ff ff       	call   10f0 <printf@plt>
    2cdd:	b8 00 00 00 00       	mov    eax,0x0
    2ce2:	e8 89 e5 ff ff       	call   1270 <get_input>
    2ce7:	89 45 fc             	mov    DWORD PTR [rbp-0x4],eax
    2cea:	83 7d fc 15          	cmp    DWORD PTR [rbp-0x4],0x15
    2cee:	75 05                	jne    2cf5 <main+0x19de>
    2cf0:	e9 6c ed ff ff       	jmp    1a61 <main+0x74a>
    2cf5:	83 7d fc 3d          	cmp    DWORD PTR [rbp-0x4],0x3d
    2cf9:	75 05                	jne    2d00 <main+0x19e9>
    2cfb:	e9 c7 fa ff ff       	jmp    27c7 <main+0x14b0>
    2d00:	48 8d 05 21 c3 00 00 	lea    rax,[rip+0xc321]        # f028 <_IO_stdin_used+0x28>
    2d07:	48 89 c7             	mov    rdi,rax
    2d0a:	e8 b1 e3 ff ff       	call   10c0 <puts@plt>
    2d0f:	bf 01 00 00 00       	mov    edi,0x1
    2d14:	e8 17 e4 ff ff       	call   1130 <exit@plt>
    2d19:	be 4c 00 00 00       	mov    esi,0x4c
    2d1e:	48 8d 05 f4 c2 00 00 	lea    rax,[rip+0xc2f4]        # f019 <_IO_stdin_used+0x19>
    2d25:	48 89 c7             	mov    rdi,rax
    2d28:	b8 00 00 00 00       	mov    eax,0x0
    2d2d:	e8 be e3 ff ff       	call   10f0 <printf@plt>
    2d32:	b8 00 00 00 00       	mov    eax,0x0
    2d37:	e8 34 e5 ff ff       	call   1270 <get_input>
    2d3c:	89 45 fc             	mov    DWORD PTR [rbp-0x4],eax
    2d3f:	81 7d fc d1 01 00 00 	cmp    DWORD PTR [rbp-0x4],0x1d1
    2d46:	75 05                	jne    2d4d <main+0x1a36>
    2d48:	e9 44 88 00 00       	jmp    b591 <main+0xa27a>
    2d4d:	81 7d fc 1c 01 00 00 	cmp    DWORD PTR [rbp-0x4],0x11c
    2d54:	75 05                	jne    2d5b <main+0x1a44>
    2d56:	e9 b1 48 00 00       	jmp    760c <main+0x62f5>
    2d5b:	83 7d fc 17          	cmp    DWORD PTR [rbp-0x4],0x17
    2d5f:	75 05                	jne    2d66 <main+0x1a4f>
    2d61:	e9 a8 ed ff ff       	jmp    1b0e <main+0x7f7>
    2d66:	48 8d 05 bb c2 00 00 	lea    rax,[rip+0xc2bb]        # f028 <_IO_stdin_used+0x28>
    2d6d:	48 89 c7             	mov    rdi,rax
    2d70:	e8 4b e3 ff ff       	call   10c0 <puts@plt>
    2d75:	bf 01 00 00 00       	mov    edi,0x1
    2d7a:	e8 b1 e3 ff ff       	call   1130 <exit@plt>
    2d7f:	be 4d 00 00 00       	mov    esi,0x4d
    2d84:	48 8d 05 8e c2 00 00 	lea    rax,[rip+0xc28e]        # f019 <_IO_stdin_used+0x19>
    2d8b:	48 89 c7             	mov    rdi,rax
    2d8e:	b8 00 00 00 00       	mov    eax,0x0
    2d93:	e8 58 e3 ff ff       	call   10f0 <printf@plt>
    2d98:	b8 00 00 00 00       	mov    eax,0x0
    2d9d:	e8 ce e4 ff ff       	call   1270 <get_input>
    2da2:	89 45 fc             	mov    DWORD PTR [rbp-0x4],eax
    2da5:	83 7d fc 6a          	cmp    DWORD PTR [rbp-0x4],0x6a
    2da9:	75 05                	jne    2db0 <main+0x1a99>
    2dab:	e9 2b 0a 00 00       	jmp    37db <main+0x24c4>
    2db0:	81 7d fc a6 00 00 00 	cmp    DWORD PTR [rbp-0x4],0xa6
    2db7:	0f 84 41 1f 00 00    	je     4cfe <main+0x39e7>
    2dbd:	81 7d fc 11 01 00 00 	cmp    DWORD PTR [rbp-0x4],0x111
    2dc4:	75 05                	jne    2dcb <main+0x1ab4>
    2dc6:	e9 60 44 00 00       	jmp    722b <main+0x5f14>
    2dcb:	81 7d fc 81 00 00 00 	cmp    DWORD PTR [rbp-0x4],0x81
    2dd2:	75 05                	jne    2dd9 <main+0x1ac2>
    2dd4:	e9 48 12 00 00       	jmp    4021 <main+0x2d0a>
    2dd9:	48 8d 05 48 c2 00 00 	lea    rax,[rip+0xc248]        # f028 <_IO_stdin_used+0x28>
    2de0:	48 89 c7             	mov    rdi,rax
    2de3:	e8 d8 e2 ff ff       	call   10c0 <puts@plt>
    2de8:	bf 01 00 00 00       	mov    edi,0x1
    2ded:	e8 3e e3 ff ff       	call   1130 <exit@plt>
    2df2:	be 4e 00 00 00       	mov    esi,0x4e
    2df7:	48 8d 05 1b c2 00 00 	lea    rax,[rip+0xc21b]        # f019 <_IO_stdin_used+0x19>
    2dfe:	48 89 c7             	mov    rdi,rax
    2e01:	b8 00 00 00 00       	mov    eax,0x0
    2e06:	e8 e5 e2 ff ff       	call   10f0 <printf@plt>
    2e0b:	b8 00 00 00 00       	mov    eax,0x0
    2e10:	e8 5b e4 ff ff       	call   1270 <get_input>
    2e15:	89 45 fc             	mov    DWORD PTR [rbp-0x4],eax
    2e18:	81 7d fc 1d 01 00 00 	cmp    DWORD PTR [rbp-0x4],0x11d
    2e1f:	75 05                	jne    2e26 <main+0x1b0f>
    2e21:	e9 4b 48 00 00       	jmp    7671 <main+0x635a>
    2e26:	81 7d fc 97 01 00 00 	cmp    DWORD PTR [rbp-0x4],0x197
    2e2d:	75 05                	jne    2e34 <main+0x1b1d>
    2e2f:	e9 22 73 00 00       	jmp    a156 <main+0x8e3f>
    2e34:	81 7d fc 90 01 00 00 	cmp    DWORD PTR [rbp-0x4],0x190
    2e3b:	0f 84 a3 70 00 00    	je     9ee4 <main+0x8bcd>
    2e41:	48 8d 05 e0 c1 00 00 	lea    rax,[rip+0xc1e0]        # f028 <_IO_stdin_used+0x28>
    2e48:	48 89 c7             	mov    rdi,rax
    2e4b:	e8 70 e2 ff ff       	call   10c0 <puts@plt>
    2e50:	bf 01 00 00 00       	mov    edi,0x1
    2e55:	e8 d6 e2 ff ff       	call   1130 <exit@plt>
    2e5a:	90                   	nop
    2e5b:	be 4f 00 00 00       	mov    esi,0x4f
    2e60:	48 8d 05 b2 c1 00 00 	lea    rax,[rip+0xc1b2]        # f019 <_IO_stdin_used+0x19>
    2e67:	48 89 c7             	mov    rdi,rax
    2e6a:	b8 00 00 00 00       	mov    eax,0x0
    2e6f:	e8 7c e2 ff ff       	call   10f0 <printf@plt>
    2e74:	b8 00 00 00 00       	mov    eax,0x0
    2e79:	e8 f2 e3 ff ff       	call   1270 <get_input>
    2e7e:	89 45 fc             	mov    DWORD PTR [rbp-0x4],eax
    2e81:	83 7d fc 7a          	cmp    DWORD PTR [rbp-0x4],0x7a
    2e85:	75 05                	jne    2e8c <main+0x1b75>
    2e87:	e9 21 0f 00 00       	jmp    3dad <main+0x2a96>
    2e8c:	48 8d 05 95 c1 00 00 	lea    rax,[rip+0xc195]        # f028 <_IO_stdin_used+0x28>
    2e93:	48 89 c7             	mov    rdi,rax
    2e96:	e8 25 e2 ff ff       	call   10c0 <puts@plt>
    2e9b:	bf 01 00 00 00       	mov    edi,0x1
    2ea0:	e8 8b e2 ff ff       	call   1130 <exit@plt>
    2ea5:	be 50 00 00 00       	mov    esi,0x50
    2eaa:	48 8d 05 68 c1 00 00 	lea    rax,[rip+0xc168]        # f019 <_IO_stdin_used+0x19>
    2eb1:	48 89 c7             	mov    rdi,rax
    2eb4:	b8 00 00 00 00       	mov    eax,0x0
    2eb9:	e8 32 e2 ff ff       	call   10f0 <printf@plt>
    2ebe:	b8 00 00 00 00       	mov    eax,0x0
    2ec3:	e8 a8 e3 ff ff       	call   1270 <get_input>
    2ec8:	89 45 fc             	mov    DWORD PTR [rbp-0x4],eax
    2ecb:	81 7d fc 4b 02 00 00 	cmp    DWORD PTR [rbp-0x4],0x24b
    2ed2:	75 05                	jne    2ed9 <main+0x1bc2>
    2ed4:	e9 94 b1 00 00       	jmp    e06d <main+0xcd56>
    2ed9:	81 7d fc df 01 00 00 	cmp    DWORD PTR [rbp-0x4],0x1df
    2ee0:	0f 84 9b 8b 00 00    	je     ba81 <main+0xa76a>
    2ee6:	81 7d fc 1c 02 00 00 	cmp    DWORD PTR [rbp-0x4],0x21c
    2eed:	75 05                	jne    2ef4 <main+0x1bdd>
    2eef:	e9 5c a0 00 00       	jmp    cf50 <main+0xbc39>
    2ef4:	48 8d 05 2d c1 00 00 	lea    rax,[rip+0xc12d]        # f028 <_IO_stdin_used+0x28>
    2efb:	48 89 c7             	mov    rdi,rax
    2efe:	e8 bd e1 ff ff       	call   10c0 <puts@plt>
    2f03:	bf 01 00 00 00       	mov    edi,0x1
    2f08:	e8 23 e2 ff ff       	call   1130 <exit@plt>
    2f0d:	90                   	nop
    2f0e:	be 51 00 00 00       	mov    esi,0x51
    2f13:	48 8d 05 ff c0 00 00 	lea    rax,[rip+0xc0ff]        # f019 <_IO_stdin_used+0x19>
    2f1a:	48 89 c7             	mov    rdi,rax
    2f1d:	b8 00 00 00 00       	mov    eax,0x0
    2f22:	e8 c9 e1 ff ff       	call   10f0 <printf@plt>
    2f27:	b8 00 00 00 00       	mov    eax,0x0
    2f2c:	e8 3f e3 ff ff       	call   1270 <get_input>
    2f31:	89 45 fc             	mov    DWORD PTR [rbp-0x4],eax
    2f34:	81 7d fc 95 01 00 00 	cmp    DWORD PTR [rbp-0x4],0x195
    2f3b:	75 05                	jne    2f42 <main+0x1c2b>
    2f3d:	e9 54 71 00 00       	jmp    a096 <main+0x8d7f>
    2f42:	48 8d 05 df c0 00 00 	lea    rax,[rip+0xc0df]        # f028 <_IO_stdin_used+0x28>
    2f49:	48 89 c7             	mov    rdi,rax
    2f4c:	e8 6f e1 ff ff       	call   10c0 <puts@plt>
    2f51:	bf 01 00 00 00       	mov    edi,0x1
    2f56:	e8 d5 e1 ff ff       	call   1130 <exit@plt>
    2f5b:	be 52 00 00 00       	mov    esi,0x52
    2f60:	48 8d 05 b2 c0 00 00 	lea    rax,[rip+0xc0b2]        # f019 <_IO_stdin_used+0x19>
    2f67:	48 89 c7             	mov    rdi,rax
    2f6a:	b8 00 00 00 00       	mov    eax,0x0
    2f6f:	e8 7c e1 ff ff       	call   10f0 <printf@plt>
    2f74:	b8 00 00 00 00       	mov    eax,0x0
    2f79:	e8 f2 e2 ff ff       	call   1270 <get_input>
    2f7e:	89 45 fc             	mov    DWORD PTR [rbp-0x4],eax
    2f81:	81 7d fc 51 01 00 00 	cmp    DWORD PTR [rbp-0x4],0x151
    2f88:	75 05                	jne    2f8f <main+0x1c78>
    2f8a:	e9 2f 59 00 00       	jmp    88be <main+0x75a7>
    2f8f:	81 7d fc 13 02 00 00 	cmp    DWORD PTR [rbp-0x4],0x213
    2f96:	75 05                	jne    2f9d <main+0x1c86>
    2f98:	e9 aa 9c 00 00       	jmp    cc47 <main+0xb930>
    2f9d:	48 8d 05 84 c0 00 00 	lea    rax,[rip+0xc084]        # f028 <_IO_stdin_used+0x28>
    2fa4:	48 89 c7             	mov    rdi,rax
    2fa7:	e8 14 e1 ff ff       	call   10c0 <puts@plt>
    2fac:	bf 01 00 00 00       	mov    edi,0x1
    2fb1:	e8 7a e1 ff ff       	call   1130 <exit@plt>
    2fb6:	be 53 00 00 00       	mov    esi,0x53
    2fbb:	48 8d 05 57 c0 00 00 	lea    rax,[rip+0xc057]        # f019 <_IO_stdin_used+0x19>
    2fc2:	48 89 c7             	mov    rdi,rax
    2fc5:	b8 00 00 00 00       	mov    eax,0x0
    2fca:	e8 21 e1 ff ff       	call   10f0 <printf@plt>
    2fcf:	b8 00 00 00 00       	mov    eax,0x0
    2fd4:	e8 97 e2 ff ff       	call   1270 <get_input>
    2fd9:	89 45 fc             	mov    DWORD PTR [rbp-0x4],eax
    2fdc:	81 7d fc 9a 00 00 00 	cmp    DWORD PTR [rbp-0x4],0x9a
    2fe3:	75 05                	jne    2fea <main+0x1cd3>
    2fe5:	e9 08 19 00 00       	jmp    48f2 <main+0x35db>
    2fea:	83 7d fc 2b          	cmp    DWORD PTR [rbp-0x4],0x2b
    2fee:	0f 84 0b f2 ff ff    	je     21ff <main+0xee8>
    2ff4:	83 7d fc 79          	cmp    DWORD PTR [rbp-0x4],0x79
    2ff8:	75 05                	jne    2fff <main+0x1ce8>
    2ffa:	e9 4c 0d 00 00       	jmp    3d4b <main+0x2a34>
    2fff:	48 8d 05 22 c0 00 00 	lea    rax,[rip+0xc022]        # f028 <_IO_stdin_used+0x28>
    3006:	48 89 c7             	mov    rdi,rax
    3009:	e8 b2 e0 ff ff       	call   10c0 <puts@plt>
    300e:	bf 01 00 00 00       	mov    edi,0x1
    3013:	e8 18 e1 ff ff       	call   1130 <exit@plt>
    3018:	90                   	nop
    3019:	be 54 00 00 00       	mov    esi,0x54
    301e:	48 8d 05 f4 bf 00 00 	lea    rax,[rip+0xbff4]        # f019 <_IO_stdin_used+0x19>
    3025:	48 89 c7             	mov    rdi,rax
    3028:	b8 00 00 00 00       	mov    eax,0x0
    302d:	e8 be e0 ff ff       	call   10f0 <printf@plt>
    3032:	b8 00 00 00 00       	mov    eax,0x0
    3037:	e8 34 e2 ff ff       	call   1270 <get_input>
    303c:	89 45 fc             	mov    DWORD PTR [rbp-0x4],eax
    303f:	81 7d fc 12 01 00 00 	cmp    DWORD PTR [rbp-0x4],0x112
    3046:	75 05                	jne    304d <main+0x1d36>
    3048:	e9 36 42 00 00       	jmp    7283 <main+0x5f6c>
    304d:	48 8d 05 d4 bf 00 00 	lea    rax,[rip+0xbfd4]        # f028 <_IO_stdin_used+0x28>
    3054:	48 89 c7             	mov    rdi,rax
    3057:	e8 64 e0 ff ff       	call   10c0 <puts@plt>
    305c:	bf 01 00 00 00       	mov    edi,0x1
    3061:	e8 ca e0 ff ff       	call   1130 <exit@plt>
    3066:	be 55 00 00 00       	mov    esi,0x55
    306b:	48 8d 05 a7 bf 00 00 	lea    rax,[rip+0xbfa7]        # f019 <_IO_stdin_used+0x19>
    3072:	48 89 c7             	mov    rdi,rax
    3075:	b8 00 00 00 00       	mov    eax,0x0
    307a:	e8 71 e0 ff ff       	call   10f0 <printf@plt>
    307f:	b8 00 00 00 00       	mov    eax,0x0
    3084:	e8 e7 e1 ff ff       	call   1270 <get_input>
    3089:	89 45 fc             	mov    DWORD PTR [rbp-0x4],eax
    308c:	81 7d fc 04 02 00 00 	cmp    DWORD PTR [rbp-0x4],0x204
    3093:	0f 84 78 96 00 00    	je     c711 <main+0xb3fa>
    3099:	81 7d fc 41 01 00 00 	cmp    DWORD PTR [rbp-0x4],0x141
    30a0:	75 05                	jne    30a7 <main+0x1d90>
    30a2:	e9 61 52 00 00       	jmp    8308 <main+0x6ff1>
    30a7:	81 7d fc a3 00 00 00 	cmp    DWORD PTR [rbp-0x4],0xa3
    30ae:	75 05                	jne    30b5 <main+0x1d9e>
    30b0:	e9 4b 1b 00 00       	jmp    4c00 <main+0x38e9>
    30b5:	48 8d 05 6c bf 00 00 	lea    rax,[rip+0xbf6c]        # f028 <_IO_stdin_used+0x28>
    30bc:	48 89 c7             	mov    rdi,rax
    30bf:	e8 fc df ff ff       	call   10c0 <puts@plt>
    30c4:	bf 01 00 00 00       	mov    edi,0x1
    30c9:	e8 62 e0 ff ff       	call   1130 <exit@plt>
    30ce:	be 56 00 00 00       	mov    esi,0x56
    30d3:	48 8d 05 3f bf 00 00 	lea    rax,[rip+0xbf3f]        # f019 <_IO_stdin_used+0x19>
    30da:	48 89 c7             	mov    rdi,rax
    30dd:	b8 00 00 00 00       	mov    eax,0x0
    30e2:	e8 09 e0 ff ff       	call   10f0 <printf@plt>
    30e7:	b8 00 00 00 00       	mov    eax,0x0
    30ec:	e8 7f e1 ff ff       	call   1270 <get_input>
    30f1:	89 45 fc             	mov    DWORD PTR [rbp-0x4],eax
    30f4:	81 7d fc 6e 02 00 00 	cmp    DWORD PTR [rbp-0x4],0x26e
    30fb:	75 05                	jne    3102 <main+0x1deb>
    30fd:	e9 36 bc 00 00       	jmp    ed38 <main+0xda21>
    3102:	81 7d fc e6 00 00 00 	cmp    DWORD PTR [rbp-0x4],0xe6
    3109:	75 05                	jne    3110 <main+0x1df9>
    310b:	e9 29 32 00 00       	jmp    6339 <main+0x5022>
    3110:	81 7d fc 58 02 00 00 	cmp    DWORD PTR [rbp-0x4],0x258
    3117:	75 05                	jne    311e <main+0x1e07>
    3119:	e9 2e b4 00 00       	jmp    e54c <main+0xd235>
    311e:	48 8d 05 03 bf 00 00 	lea    rax,[rip+0xbf03]        # f028 <_IO_stdin_used+0x28>
    3125:	48 89 c7             	mov    rdi,rax
    3128:	e8 93 df ff ff       	call   10c0 <puts@plt>
    312d:	bf 01 00 00 00       	mov    edi,0x1
    3132:	e8 f9 df ff ff       	call   1130 <exit@plt>
    3137:	be 57 00 00 00       	mov    esi,0x57
    313c:	48 8d 05 d6 be 00 00 	lea    rax,[rip+0xbed6]        # f019 <_IO_stdin_used+0x19>
    3143:	48 89 c7             	mov    rdi,rax
    3146:	b8 00 00 00 00       	mov    eax,0x0
    314b:	e8 a0 df ff ff       	call   10f0 <printf@plt>
    3150:	b8 00 00 00 00       	mov    eax,0x0
    3155:	e8 16 e1 ff ff       	call   1270 <get_input>
    315a:	89 45 fc             	mov    DWORD PTR [rbp-0x4],eax
    315d:	81 7d fc 56 01 00 00 	cmp    DWORD PTR [rbp-0x4],0x156
    3164:	75 05                	jne    316b <main+0x1e54>
    3166:	e9 1d 59 00 00       	jmp    8a88 <main+0x7771>
    316b:	81 7d fc ca 00 00 00 	cmp    DWORD PTR [rbp-0x4],0xca
    3172:	75 05                	jne    3179 <main+0x1e62>
    3174:	e9 1a 28 00 00       	jmp    5993 <main+0x467c>
    3179:	48 8d 05 a8 be 00 00 	lea    rax,[rip+0xbea8]        # f028 <_IO_stdin_used+0x28>
    3180:	48 89 c7             	mov    rdi,rax
    3183:	e8 38 df ff ff       	call   10c0 <puts@plt>
    3188:	bf 01 00 00 00       	mov    edi,0x1
    318d:	e8 9e df ff ff       	call   1130 <exit@plt>
    3192:	90                   	nop
    3193:	be 58 00 00 00       	mov    esi,0x58
    3198:	48 8d 05 7a be 00 00 	lea    rax,[rip+0xbe7a]        # f019 <_IO_stdin_used+0x19>
    319f:	48 89 c7             	mov    rdi,rax
    31a2:	b8 00 00 00 00       	mov    eax,0x0
    31a7:	e8 44 df ff ff       	call   10f0 <printf@plt>
    31ac:	b8 00 00 00 00       	mov    eax,0x0
    31b1:	e8 ba e0 ff ff       	call   1270 <get_input>
    31b6:	89 45 fc             	mov    DWORD PTR [rbp-0x4],eax
    31b9:	83 7d fc 00          	cmp    DWORD PTR [rbp-0x4],0x0
    31bd:	75 05                	jne    31c4 <main+0x1ead>
    31bf:	e9 5f e1 ff ff       	jmp    1323 <main+0xc>
    31c4:	48 8d 05 5d be 00 00 	lea    rax,[rip+0xbe5d]        # f028 <_IO_stdin_used+0x28>
    31cb:	48 89 c7             	mov    rdi,rax
    31ce:	e8 ed de ff ff       	call   10c0 <puts@plt>
    31d3:	bf 01 00 00 00       	mov    edi,0x1
    31d8:	e8 53 df ff ff       	call   1130 <exit@plt>
    31dd:	be 59 00 00 00       	mov    esi,0x59
    31e2:	48 8d 05 30 be 00 00 	lea    rax,[rip+0xbe30]        # f019 <_IO_stdin_used+0x19>
    31e9:	48 89 c7             	mov    rdi,rax
    31ec:	b8 00 00 00 00       	mov    eax,0x0
    31f1:	e8 fa de ff ff       	call   10f0 <printf@plt>
    31f6:	b8 00 00 00 00       	mov    eax,0x0
    31fb:	e8 70 e0 ff ff       	call   1270 <get_input>
    3200:	89 45 fc             	mov    DWORD PTR [rbp-0x4],eax
    3203:	81 7d fc a7 01 00 00 	cmp    DWORD PTR [rbp-0x4],0x1a7
    320a:	75 05                	jne    3211 <main+0x1efa>
    320c:	e9 17 75 00 00       	jmp    a728 <main+0x9411>
    3211:	81 7d fc cb 00 00 00 	cmp    DWORD PTR [rbp-0x4],0xcb
    3218:	0f 84 d8 27 00 00    	je     59f6 <main+0x46df>
    321e:	48 8d 05 03 be 00 00 	lea    rax,[rip+0xbe03]        # f028 <_IO_stdin_used+0x28>
    3225:	48 89 c7             	mov    rdi,rax
    3228:	e8 93 de ff ff       	call   10c0 <puts@plt>
    322d:	bf 01 00 00 00       	mov    edi,0x1
    3232:	e8 f9 de ff ff       	call   1130 <exit@plt>
    3237:	be 5a 00 00 00       	mov    esi,0x5a
    323c:	48 8d 05 d6 bd 00 00 	lea    rax,[rip+0xbdd6]        # f019 <_IO_stdin_used+0x19>
    3243:	48 89 c7             	mov    rdi,rax
    3246:	b8 00 00 00 00       	mov    eax,0x0
    324b:	e8 a0 de ff ff       	call   10f0 <printf@plt>
    3250:	b8 00 00 00 00       	mov    eax,0x0
    3255:	e8 16 e0 ff ff       	call   1270 <get_input>
    325a:	89 45 fc             	mov    DWORD PTR [rbp-0x4],eax
    325d:	81 7d fc c2 01 00 00 	cmp    DWORD PTR [rbp-0x4],0x1c2
    3264:	75 05                	jne    326b <main+0x1f54>
    3266:	e9 00 7e 00 00       	jmp    b06b <main+0x9d54>
    326b:	81 7d fc 91 01 00 00 	cmp    DWORD PTR [rbp-0x4],0x191
    3272:	75 05                	jne    3279 <main+0x1f62>
    3274:	e9 b6 6c 00 00       	jmp    9f2f <main+0x8c18>
    3279:	48 8d 05 a8 bd 00 00 	lea    rax,[rip+0xbda8]        # f028 <_IO_stdin_used+0x28>
    3280:	48 89 c7             	mov    rdi,rax
    3283:	e8 38 de ff ff       	call   10c0 <puts@plt>
    3288:	bf 01 00 00 00       	mov    edi,0x1
    328d:	e8 9e de ff ff       	call   1130 <exit@plt>
    3292:	be 5b 00 00 00       	mov    esi,0x5b
    3297:	48 8d 05 7b bd 00 00 	lea    rax,[rip+0xbd7b]        # f019 <_IO_stdin_used+0x19>
    329e:	48 89 c7             	mov    rdi,rax
    32a1:	b8 00 00 00 00       	mov    eax,0x0
    32a6:	e8 45 de ff ff       	call   10f0 <printf@plt>
    32ab:	b8 00 00 00 00       	mov    eax,0x0
    32b0:	e8 bb df ff ff       	call   1270 <get_input>
    32b5:	89 45 fc             	mov    DWORD PTR [rbp-0x4],eax
    32b8:	81 7d fc db 00 00 00 	cmp    DWORD PTR [rbp-0x4],0xdb
    32bf:	75 05                	jne    32c6 <main+0x1faf>
    32c1:	e9 a1 2c 00 00       	jmp    5f67 <main+0x4c50>
    32c6:	81 7d fc 47 02 00 00 	cmp    DWORD PTR [rbp-0x4],0x247
    32cd:	75 05                	jne    32d4 <main+0x1fbd>
    32cf:	e9 35 ac 00 00       	jmp    df09 <main+0xcbf2>
    32d4:	48 8d 05 4d bd 00 00 	lea    rax,[rip+0xbd4d]        # f028 <_IO_stdin_used+0x28>
    32db:	48 89 c7             	mov    rdi,rax
    32de:	e8 dd dd ff ff       	call   10c0 <puts@plt>
    32e3:	bf 01 00 00 00       	mov    edi,0x1
    32e8:	e8 43 de ff ff       	call   1130 <exit@plt>
    32ed:	90                   	nop
    32ee:	be 5c 00 00 00       	mov    esi,0x5c
    32f3:	48 8d 05 1f bd 00 00 	lea    rax,[rip+0xbd1f]        # f019 <_IO_stdin_used+0x19>
    32fa:	48 89 c7             	mov    rdi,rax
    32fd:	b8 00 00 00 00       	mov    eax,0x0
    3302:	e8 e9 dd ff ff       	call   10f0 <printf@plt>
    3307:	b8 00 00 00 00       	mov    eax,0x0
    330c:	e8 5f df ff ff       	call   1270 <get_input>
    3311:	89 45 fc             	mov    DWORD PTR [rbp-0x4],eax
    3314:	81 7d fc fe 00 00 00 	cmp    DWORD PTR [rbp-0x4],0xfe
    331b:	75 05                	jne    3322 <main+0x200b>
    331d:	e9 93 38 00 00       	jmp    6bb5 <main+0x589e>
    3322:	48 8d 05 ff bc 00 00 	lea    rax,[rip+0xbcff]        # f028 <_IO_stdin_used+0x28>
    3329:	48 89 c7             	mov    rdi,rax
    332c:	e8 8f dd ff ff       	call   10c0 <puts@plt>
    3331:	bf 01 00 00 00       	mov    edi,0x1
    3336:	e8 f5 dd ff ff       	call   1130 <exit@plt>
    333b:	be 5d 00 00 00       	mov    esi,0x5d
    3340:	48 8d 05 d2 bc 00 00 	lea    rax,[rip+0xbcd2]        # f019 <_IO_stdin_used+0x19>
    3347:	48 89 c7             	mov    rdi,rax
    334a:	b8 00 00 00 00       	mov    eax,0x0
    334f:	e8 9c dd ff ff       	call   10f0 <printf@plt>
    3354:	b8 00 00 00 00       	mov    eax,0x0
    3359:	e8 12 df ff ff       	call   1270 <get_input>
    335e:	89 45 fc             	mov    DWORD PTR [rbp-0x4],eax
    3361:	81 7d fc 2c 02 00 00 	cmp    DWORD PTR [rbp-0x4],0x22c
    3368:	75 05                	jne    336f <main+0x2058>
    336a:	e9 a9 a1 00 00       	jmp    d518 <main+0xc201>
    336f:	81 7d fc 3e 01 00 00 	cmp    DWORD PTR [rbp-0x4],0x13e
    3376:	75 05                	jne    337d <main+0x2066>
    3378:	e9 76 4e 00 00       	jmp    81f3 <main+0x6edc>
    337d:	81 7d fc c1 00 00 00 	cmp    DWORD PTR [rbp-0x4],0xc1
    3384:	0f 84 11 23 00 00    	je     569b <main+0x4384>
    338a:	48 8d 05 97 bc 00 00 	lea    rax,[rip+0xbc97]        # f028 <_IO_stdin_used+0x28>
    3391:	48 89 c7             	mov    rdi,rax
    3394:	e8 27 dd ff ff       	call   10c0 <puts@plt>
    3399:	bf 01 00 00 00       	mov    edi,0x1
    339e:	e8 8d dd ff ff       	call   1130 <exit@plt>
    33a3:	be 5e 00 00 00       	mov    esi,0x5e
    33a8:	48 8d 05 6a bc 00 00 	lea    rax,[rip+0xbc6a]        # f019 <_IO_stdin_used+0x19>
    33af:	48 89 c7             	mov    rdi,rax
    33b2:	b8 00 00 00 00       	mov    eax,0x0
    33b7:	e8 34 dd ff ff       	call   10f0 <printf@plt>
    33bc:	b8 00 00 00 00       	mov    eax,0x0
    33c1:	e8 aa de ff ff       	call   1270 <get_input>
    33c6:	89 45 fc             	mov    DWORD PTR [rbp-0x4],eax
    33c9:	81 7d fc 38 02 00 00 	cmp    DWORD PTR [rbp-0x4],0x238
    33d0:	75 05                	jne    33d7 <main+0x20c0>
    33d2:	e9 bb a5 00 00       	jmp    d992 <main+0xc67b>
    33d7:	83 7d fc 63          	cmp    DWORD PTR [rbp-0x4],0x63
    33db:	75 05                	jne    33e2 <main+0x20cb>
    33dd:	e9 7a 01 00 00       	jmp    355c <main+0x2245>
    33e2:	83 7d fc 31          	cmp    DWORD PTR [rbp-0x4],0x31
    33e6:	0f 84 f9 ef ff ff    	je     23e5 <main+0x10ce>
    33ec:	48 8d 05 35 bc 00 00 	lea    rax,[rip+0xbc35]        # f028 <_IO_stdin_used+0x28>
    33f3:	48 89 c7             	mov    rdi,rax
    33f6:	e8 c5 dc ff ff       	call   10c0 <puts@plt>
    33fb:	bf 01 00 00 00       	mov    edi,0x1
    3400:	e8 2b dd ff ff       	call   1130 <exit@plt>
    3405:	be 5f 00 00 00       	mov    esi,0x5f
    340a:	48 8d 05 08 bc 00 00 	lea    rax,[rip+0xbc08]        # f019 <_IO_stdin_used+0x19>
    3411:	48 89 c7             	mov    rdi,rax
    3414:	b8 00 00 00 00       	mov    eax,0x0
    3419:	e8 d2 dc ff ff       	call   10f0 <printf@plt>
    341e:	b8 00 00 00 00       	mov    eax,0x0
    3423:	e8 48 de ff ff       	call   1270 <get_input>
    3428:	89 45 fc             	mov    DWORD PTR [rbp-0x4],eax
    342b:	81 7d fc 55 02 00 00 	cmp    DWORD PTR [rbp-0x4],0x255
    3432:	75 05                	jne    3439 <main+0x2122>
    3434:	e9 12 b0 00 00       	jmp    e44b <main+0xd134>
    3439:	83 7d fc 08          	cmp    DWORD PTR [rbp-0x4],0x8
    343d:	75 05                	jne    3444 <main+0x212d>
    343f:	e9 79 e1 ff ff       	jmp    15bd <main+0x2a6>
    3444:	83 7d fc 6d          	cmp    DWORD PTR [rbp-0x4],0x6d
    3448:	75 05                	jne    344f <main+0x2138>
    344a:	e9 a4 04 00 00       	jmp    38f3 <main+0x25dc>
    344f:	48 8d 05 d2 bb 00 00 	lea    rax,[rip+0xbbd2]        # f028 <_IO_stdin_used+0x28>
    3456:	48 89 c7             	mov    rdi,rax
    3459:	e8 62 dc ff ff       	call   10c0 <puts@plt>
    345e:	bf 01 00 00 00       	mov    edi,0x1
    3463:	e8 c8 dc ff ff       	call   1130 <exit@plt>
    3468:	90                   	nop
    3469:	be 60 00 00 00       	mov    esi,0x60
    346e:	48 8d 05 a4 bb 00 00 	lea    rax,[rip+0xbba4]        # f019 <_IO_stdin_used+0x19>
    3475:	48 89 c7             	mov    rdi,rax
    3478:	b8 00 00 00 00       	mov    eax,0x0
    347d:	e8 6e dc ff ff       	call   10f0 <printf@plt>
    3482:	b8 00 00 00 00       	mov    eax,0x0
    3487:	e8 e4 dd ff ff       	call   1270 <get_input>
    348c:	89 45 fc             	mov    DWORD PTR [rbp-0x4],eax
    348f:	81 7d fc b8 00 00 00 	cmp    DWORD PTR [rbp-0x4],0xb8
    3496:	75 05                	jne    349d <main+0x2186>
    3498:	e9 a9 1e 00 00       	jmp    5346 <main+0x402f>
    349d:	48 8d 05 84 bb 00 00 	lea    rax,[rip+0xbb84]        # f028 <_IO_stdin_used+0x28>
    34a4:	48 89 c7             	mov    rdi,rax
    34a7:	e8 14 dc ff ff       	call   10c0 <puts@plt>
    34ac:	bf 01 00 00 00       	mov    edi,0x1
    34b1:	e8 7a dc ff ff       	call   1130 <exit@plt>
    34b6:	90                   	nop
    34b7:	be 61 00 00 00       	mov    esi,0x61
    34bc:	48 8d 05 56 bb 00 00 	lea    rax,[rip+0xbb56]        # f019 <_IO_stdin_used+0x19>
    34c3:	48 89 c7             	mov    rdi,rax
    34c6:	b8 00 00 00 00       	mov    eax,0x0
    34cb:	e8 20 dc ff ff       	call   10f0 <printf@plt>
    34d0:	b8 00 00 00 00       	mov    eax,0x0
    34d5:	e8 96 dd ff ff       	call   1270 <get_input>
    34da:	89 45 fc             	mov    DWORD PTR [rbp-0x4],eax
    34dd:	81 7d fc 2e 01 00 00 	cmp    DWORD PTR [rbp-0x4],0x12e
    34e4:	75 05                	jne    34eb <main+0x21d4>
    34e6:	e9 38 47 00 00       	jmp    7c23 <main+0x690c>
    34eb:	48 8d 05 36 bb 00 00 	lea    rax,[rip+0xbb36]        # f028 <_IO_stdin_used+0x28>
    34f2:	48 89 c7             	mov    rdi,rax
    34f5:	e8 c6 db ff ff       	call   10c0 <puts@plt>
    34fa:	bf 01 00 00 00       	mov    edi,0x1
    34ff:	e8 2c dc ff ff       	call   1130 <exit@plt>
    3504:	be 62 00 00 00       	mov    esi,0x62
    3509:	48 8d 05 09 bb 00 00 	lea    rax,[rip+0xbb09]        # f019 <_IO_stdin_used+0x19>
    3510:	48 89 c7             	mov    rdi,rax
    3513:	b8 00 00 00 00       	mov    eax,0x0
    3518:	e8 d3 db ff ff       	call   10f0 <printf@plt>
    351d:	b8 00 00 00 00       	mov    eax,0x0
    3522:	e8 49 dd ff ff       	call   1270 <get_input>
    3527:	89 45 fc             	mov    DWORD PTR [rbp-0x4],eax
    352a:	83 7d fc 21          	cmp    DWORD PTR [rbp-0x4],0x21
    352e:	75 05                	jne    3535 <main+0x221e>
    3530:	e9 62 e9 ff ff       	jmp    1e97 <main+0xb80>
    3535:	81 7d fc 6f 02 00 00 	cmp    DWORD PTR [rbp-0x4],0x26f
    353c:	75 05                	jne    3543 <main+0x222c>
    353e:	e9 4d b8 00 00       	jmp    ed90 <main+0xda79>
    3543:	48 8d 05 de ba 00 00 	lea    rax,[rip+0xbade]        # f028 <_IO_stdin_used+0x28>
    354a:	48 89 c7             	mov    rdi,rax
    354d:	e8 6e db ff ff       	call   10c0 <puts@plt>
    3552:	bf 01 00 00 00       	mov    edi,0x1
    3557:	e8 d4 db ff ff       	call   1130 <exit@plt>
    355c:	be 63 00 00 00       	mov    esi,0x63
    3561:	48 8d 05 b1 ba 00 00 	lea    rax,[rip+0xbab1]        # f019 <_IO_stdin_used+0x19>
    3568:	48 89 c7             	mov    rdi,rax
    356b:	b8 00 00 00 00       	mov    eax,0x0
    3570:	e8 7b db ff ff       	call   10f0 <printf@plt>
    3575:	b8 00 00 00 00       	mov    eax,0x0
    357a:	e8 f1 dc ff ff       	call   1270 <get_input>
    357f:	89 45 fc             	mov    DWORD PTR [rbp-0x4],eax
    3582:	83 7d fc 5e          	cmp    DWORD PTR [rbp-0x4],0x5e
    3586:	75 05                	jne    358d <main+0x2276>
    3588:	e9 16 fe ff ff       	jmp    33a3 <main+0x208c>
    358d:	81 7d fc 9d 01 00 00 	cmp    DWORD PTR [rbp-0x4],0x19d
    3594:	75 05                	jne    359b <main+0x2284>
    3596:	e9 f2 6d 00 00       	jmp    a38d <main+0x9076>
    359b:	48 8d 05 86 ba 00 00 	lea    rax,[rip+0xba86]        # f028 <_IO_stdin_used+0x28>
    35a2:	48 89 c7             	mov    rdi,rax
    35a5:	e8 16 db ff ff       	call   10c0 <puts@plt>
    35aa:	bf 01 00 00 00       	mov    edi,0x1
    35af:	e8 7c db ff ff       	call   1130 <exit@plt>
    35b4:	be 64 00 00 00       	mov    esi,0x64
    35b9:	48 8d 05 59 ba 00 00 	lea    rax,[rip+0xba59]        # f019 <_IO_stdin_used+0x19>
    35c0:	48 89 c7             	mov    rdi,rax
    35c3:	b8 00 00 00 00       	mov    eax,0x0
    35c8:	e8 23 db ff ff       	call   10f0 <printf@plt>
    35cd:	b8 00 00 00 00       	mov    eax,0x0
    35d2:	e8 99 dc ff ff       	call   1270 <get_input>
    35d7:	89 45 fc             	mov    DWORD PTR [rbp-0x4],eax
    35da:	81 7d fc b3 00 00 00 	cmp    DWORD PTR [rbp-0x4],0xb3
    35e1:	75 05                	jne    35e8 <main+0x22d1>
    35e3:	e9 9e 1b 00 00       	jmp    5186 <main+0x3e6f>
    35e8:	81 7d fc ab 01 00 00 	cmp    DWORD PTR [rbp-0x4],0x1ab
    35ef:	75 05                	jne    35f6 <main+0x22df>
    35f1:	e9 b4 72 00 00       	jmp    a8aa <main+0x9593>
    35f6:	81 7d fc 65 02 00 00 	cmp    DWORD PTR [rbp-0x4],0x265
    35fd:	75 05                	jne    3604 <main+0x22ed>
    35ff:	e9 e9 b3 00 00       	jmp    e9ed <main+0xd6d6>
    3604:	48 8d 05 1d ba 00 00 	lea    rax,[rip+0xba1d]        # f028 <_IO_stdin_used+0x28>
    360b:	48 89 c7             	mov    rdi,rax
    360e:	e8 ad da ff ff       	call   10c0 <puts@plt>
    3613:	bf 01 00 00 00       	mov    edi,0x1
    3618:	e8 13 db ff ff       	call   1130 <exit@plt>
    361d:	be 65 00 00 00       	mov    esi,0x65
    3622:	48 8d 05 f0 b9 00 00 	lea    rax,[rip+0xb9f0]        # f019 <_IO_stdin_used+0x19>
    3629:	48 89 c7             	mov    rdi,rax
    362c:	b8 00 00 00 00       	mov    eax,0x0
    3631:	e8 ba da ff ff       	call   10f0 <printf@plt>
    3636:	b8 00 00 00 00       	mov    eax,0x0
    363b:	e8 30 dc ff ff       	call   1270 <get_input>
    3640:	89 45 fc             	mov    DWORD PTR [rbp-0x4],eax
    3643:	83 7d fc 04          	cmp    DWORD PTR [rbp-0x4],0x4
    3647:	75 05                	jne    364e <main+0x2337>
    3649:	e9 16 de ff ff       	jmp    1464 <main+0x14d>
    364e:	81 7d fc 66 02 00 00 	cmp    DWORD PTR [rbp-0x4],0x266
    3655:	75 05                	jne    365c <main+0x2345>
    3657:	e9 f6 b3 00 00       	jmp    ea52 <main+0xd73b>
    365c:	48 8d 05 c5 b9 00 00 	lea    rax,[rip+0xb9c5]        # f028 <_IO_stdin_used+0x28>
    3663:	48 89 c7             	mov    rdi,rax
    3666:	e8 55 da ff ff       	call   10c0 <puts@plt>
    366b:	bf 01 00 00 00       	mov    edi,0x1
    3670:	e8 bb da ff ff       	call   1130 <exit@plt>
    3675:	be 66 00 00 00       	mov    esi,0x66
    367a:	48 8d 05 98 b9 00 00 	lea    rax,[rip+0xb998]        # f019 <_IO_stdin_used+0x19>
    3681:	48 89 c7             	mov    rdi,rax
    3684:	b8 00 00 00 00       	mov    eax,0x0
    3689:	e8 62 da ff ff       	call   10f0 <printf@plt>
    368e:	b8 00 00 00 00       	mov    eax,0x0
    3693:	e8 d8 db ff ff       	call   1270 <get_input>
    3698:	89 45 fc             	mov    DWORD PTR [rbp-0x4],eax
    369b:	81 7d fc 1f 01 00 00 	cmp    DWORD PTR [rbp-0x4],0x11f
    36a2:	75 05                	jne    36a9 <main+0x2392>
    36a4:	e9 7b 40 00 00       	jmp    7724 <main+0x640d>
    36a9:	81 7d fc 81 01 00 00 	cmp    DWORD PTR [rbp-0x4],0x181
    36b0:	0f 84 d4 62 00 00    	je     998a <main+0x8673>
    36b6:	48 8d 05 6b b9 00 00 	lea    rax,[rip+0xb96b]        # f028 <_IO_stdin_used+0x28>
    36bd:	48 89 c7             	mov    rdi,rax
    36c0:	e8 fb d9 ff ff       	call   10c0 <puts@plt>
    36c5:	bf 01 00 00 00       	mov    edi,0x1
    36ca:	e8 61 da ff ff       	call   1130 <exit@plt>
    36cf:	90                   	nop
    36d0:	be 67 00 00 00       	mov    esi,0x67
    36d5:	48 8d 05 3d b9 00 00 	lea    rax,[rip+0xb93d]        # f019 <_IO_stdin_used+0x19>
    36dc:	48 89 c7             	mov    rdi,rax
    36df:	b8 00 00 00 00       	mov    eax,0x0
    36e4:	e8 07 da ff ff       	call   10f0 <printf@plt>
    36e9:	b8 00 00 00 00       	mov    eax,0x0
    36ee:	e8 7d db ff ff       	call   1270 <get_input>
    36f3:	89 45 fc             	mov    DWORD PTR [rbp-0x4],eax
    36f6:	81 7d fc fa 00 00 00 	cmp    DWORD PTR [rbp-0x4],0xfa
    36fd:	75 05                	jne    3704 <main+0x23ed>
    36ff:	e9 44 33 00 00       	jmp    6a48 <main+0x5731>
    3704:	48 8d 05 1d b9 00 00 	lea    rax,[rip+0xb91d]        # f028 <_IO_stdin_used+0x28>
    370b:	48 89 c7             	mov    rdi,rax
    370e:	e8 ad d9 ff ff       	call   10c0 <puts@plt>
    3713:	bf 01 00 00 00       	mov    edi,0x1
    3718:	e8 13 da ff ff       	call   1130 <exit@plt>
    371d:	be 68 00 00 00       	mov    esi,0x68
    3722:	48 8d 05 f0 b8 00 00 	lea    rax,[rip+0xb8f0]        # f019 <_IO_stdin_used+0x19>
    3729:	48 89 c7             	mov    rdi,rax
    372c:	b8 00 00 00 00       	mov    eax,0x0
    3731:	e8 ba d9 ff ff       	call   10f0 <printf@plt>
    3736:	b8 00 00 00 00       	mov    eax,0x0
    373b:	e8 30 db ff ff       	call   1270 <get_input>
    3740:	89 45 fc             	mov    DWORD PTR [rbp-0x4],eax
    3743:	83 7d fc 7b          	cmp    DWORD PTR [rbp-0x4],0x7b
    3747:	75 05                	jne    374e <main+0x2437>
    3749:	e9 c4 06 00 00       	jmp    3e12 <main+0x2afb>
    374e:	81 7d fc 29 01 00 00 	cmp    DWORD PTR [rbp-0x4],0x129
    3755:	75 05                	jne    375c <main+0x2445>
    3757:	e9 1d 43 00 00       	jmp    7a79 <main+0x6762>
    375c:	81 7d fc 18 02 00 00 	cmp    DWORD PTR [rbp-0x4],0x218
    3763:	75 05                	jne    376a <main+0x2453>
    3765:	e9 97 96 00 00       	jmp    ce01 <main+0xbaea>
    376a:	48 8d 05 b7 b8 00 00 	lea    rax,[rip+0xb8b7]        # f028 <_IO_stdin_used+0x28>
    3771:	48 89 c7             	mov    rdi,rax
    3774:	e8 47 d9 ff ff       	call   10c0 <puts@plt>
    3779:	bf 01 00 00 00       	mov    edi,0x1
    377e:	e8 ad d9 ff ff       	call   1130 <exit@plt>
    3783:	be 69 00 00 00       	mov    esi,0x69
    3788:	48 8d 05 8a b8 00 00 	lea    rax,[rip+0xb88a]        # f019 <_IO_stdin_used+0x19>
    378f:	48 89 c7             	mov    rdi,rax
    3792:	b8 00 00 00 00       	mov    eax,0x0
    3797:	e8 54 d9 ff ff       	call   10f0 <printf@plt>
    379c:	b8 00 00 00 00       	mov    eax,0x0
    37a1:	e8 ca da ff ff       	call   1270 <get_input>
    37a6:	89 45 fc             	mov    DWORD PTR [rbp-0x4],eax
    37a9:	83 7d fc 77          	cmp    DWORD PTR [rbp-0x4],0x77
    37ad:	75 05                	jne    37b4 <main+0x249d>
    37af:	e9 c8 04 00 00       	jmp    3c7c <main+0x2965>
    37b4:	81 7d fc f3 01 00 00 	cmp    DWORD PTR [rbp-0x4],0x1f3
    37bb:	75 05                	jne    37c2 <main+0x24ab>
    37bd:	e9 9b 89 00 00       	jmp    c15d <main+0xae46>
    37c2:	48 8d 05 5f b8 00 00 	lea    rax,[rip+0xb85f]        # f028 <_IO_stdin_used+0x28>
    37c9:	48 89 c7             	mov    rdi,rax
    37cc:	e8 ef d8 ff ff       	call   10c0 <puts@plt>
    37d1:	bf 01 00 00 00       	mov    edi,0x1
    37d6:	e8 55 d9 ff ff       	call   1130 <exit@plt>
    37db:	be 6a 00 00 00       	mov    esi,0x6a
    37e0:	48 8d 05 32 b8 00 00 	lea    rax,[rip+0xb832]        # f019 <_IO_stdin_used+0x19>
    37e7:	48 89 c7             	mov    rdi,rax
    37ea:	b8 00 00 00 00       	mov    eax,0x0
    37ef:	e8 fc d8 ff ff       	call   10f0 <printf@plt>
    37f4:	b8 00 00 00 00       	mov    eax,0x0
    37f9:	e8 72 da ff ff       	call   1270 <get_input>
    37fe:	89 45 fc             	mov    DWORD PTR [rbp-0x4],eax
    3801:	83 7d fc 4d          	cmp    DWORD PTR [rbp-0x4],0x4d
    3805:	75 05                	jne    380c <main+0x24f5>
    3807:	e9 73 f5 ff ff       	jmp    2d7f <main+0x1a68>
    380c:	81 7d fc 4d 02 00 00 	cmp    DWORD PTR [rbp-0x4],0x24d
    3813:	75 05                	jne    381a <main+0x2503>
    3815:	e9 1f a9 00 00       	jmp    e139 <main+0xce22>
    381a:	48 8d 05 07 b8 00 00 	lea    rax,[rip+0xb807]        # f028 <_IO_stdin_used+0x28>
    3821:	48 89 c7             	mov    rdi,rax
    3824:	e8 97 d8 ff ff       	call   10c0 <puts@plt>
    3829:	bf 01 00 00 00       	mov    edi,0x1
    382e:	e8 fd d8 ff ff       	call   1130 <exit@plt>
    3833:	be 6b 00 00 00       	mov    esi,0x6b
    3838:	48 8d 05 da b7 00 00 	lea    rax,[rip+0xb7da]        # f019 <_IO_stdin_used+0x19>
    383f:	48 89 c7             	mov    rdi,rax
    3842:	b8 00 00 00 00       	mov    eax,0x0
    3847:	e8 a4 d8 ff ff       	call   10f0 <printf@plt>
    384c:	b8 00 00 00 00       	mov    eax,0x0
    3851:	e8 1a da ff ff       	call   1270 <get_input>
    3856:	89 45 fc             	mov    DWORD PTR [rbp-0x4],eax
    3859:	81 7d fc 34 01 00 00 	cmp    DWORD PTR [rbp-0x4],0x134
    3860:	75 05                	jne    3867 <main+0x2550>
    3862:	e9 fc 45 00 00       	jmp    7e63 <main+0x6b4c>
    3867:	81 7d fc 6b 02 00 00 	cmp    DWORD PTR [rbp-0x4],0x26b
    386e:	75 05                	jne    3875 <main+0x255e>
    3870:	e9 b7 b3 00 00       	jmp    ec2c <main+0xd915>
    3875:	48 8d 05 ac b7 00 00 	lea    rax,[rip+0xb7ac]        # f028 <_IO_stdin_used+0x28>
    387c:	48 89 c7             	mov    rdi,rax
    387f:	e8 3c d8 ff ff       	call   10c0 <puts@plt>
    3884:	bf 01 00 00 00       	mov    edi,0x1
    3889:	e8 a2 d8 ff ff       	call   1130 <exit@plt>
    388e:	be 6c 00 00 00       	mov    esi,0x6c
    3893:	48 8d 05 7f b7 00 00 	lea    rax,[rip+0xb77f]        # f019 <_IO_stdin_used+0x19>
    389a:	48 89 c7             	mov    rdi,rax
    389d:	b8 00 00 00 00       	mov    eax,0x0
    38a2:	e8 49 d8 ff ff       	call   10f0 <printf@plt>
    38a7:	b8 00 00 00 00       	mov    eax,0x0
    38ac:	e8 bf d9 ff ff       	call   1270 <get_input>
    38b1:	89 45 fc             	mov    DWORD PTR [rbp-0x4],eax
    38b4:	83 7d fc 7d          	cmp    DWORD PTR [rbp-0x4],0x7d
    38b8:	75 05                	jne    38bf <main+0x25a8>
    38ba:	e9 06 06 00 00       	jmp    3ec5 <main+0x2bae>
    38bf:	81 7d fc b6 01 00 00 	cmp    DWORD PTR [rbp-0x4],0x1b6
    38c6:	0f 84 69 73 00 00    	je     ac35 <main+0x991e>
    38cc:	81 7d fc 85 01 00 00 	cmp    DWORD PTR [rbp-0x4],0x185
    38d3:	75 05                	jne    38da <main+0x25c3>
    38d5:	e9 fc 61 00 00       	jmp    9ad6 <main+0x87bf>
    38da:	48 8d 05 47 b7 00 00 	lea    rax,[rip+0xb747]        # f028 <_IO_stdin_used+0x28>
    38e1:	48 89 c7             	mov    rdi,rax
    38e4:	e8 d7 d7 ff ff       	call   10c0 <puts@plt>
    38e9:	bf 01 00 00 00       	mov    edi,0x1
    38ee:	e8 3d d8 ff ff       	call   1130 <exit@plt>
    38f3:	be 6d 00 00 00       	mov    esi,0x6d
    38f8:	48 8d 05 1a b7 00 00 	lea    rax,[rip+0xb71a]        # f019 <_IO_stdin_used+0x19>
    38ff:	48 89 c7             	mov    rdi,rax
    3902:	b8 00 00 00 00       	mov    eax,0x0
    3907:	e8 e4 d7 ff ff       	call   10f0 <printf@plt>
    390c:	b8 00 00 00 00       	mov    eax,0x0
    3911:	e8 5a d9 ff ff       	call   1270 <get_input>
    3916:	89 45 fc             	mov    DWORD PTR [rbp-0x4],eax
    3919:	83 7d fc 5f          	cmp    DWORD PTR [rbp-0x4],0x5f
    391d:	75 05                	jne    3924 <main+0x260d>
    391f:	e9 e1 fa ff ff       	jmp    3405 <main+0x20ee>
    3924:	81 7d fc 86 00 00 00 	cmp    DWORD PTR [rbp-0x4],0x86
    392b:	0f 84 ba 08 00 00    	je     41eb <main+0x2ed4>
    3931:	48 8d 05 f0 b6 00 00 	lea    rax,[rip+0xb6f0]        # f028 <_IO_stdin_used+0x28>
    3938:	48 89 c7             	mov    rdi,rax
    393b:	e8 80 d7 ff ff       	call   10c0 <puts@plt>
    3940:	bf 01 00 00 00       	mov    edi,0x1
    3945:	e8 e6 d7 ff ff       	call   1130 <exit@plt>
    394a:	be 6e 00 00 00       	mov    esi,0x6e
    394f:	48 8d 05 c3 b6 00 00 	lea    rax,[rip+0xb6c3]        # f019 <_IO_stdin_used+0x19>
    3956:	48 89 c7             	mov    rdi,rax
    3959:	b8 00 00 00 00       	mov    eax,0x0
    395e:	e8 8d d7 ff ff       	call   10f0 <printf@plt>
    3963:	b8 00 00 00 00       	mov    eax,0x0
    3968:	e8 03 d9 ff ff       	call   1270 <get_input>
    396d:	89 45 fc             	mov    DWORD PTR [rbp-0x4],eax
    3970:	81 7d fc 5f 02 00 00 	cmp    DWORD PTR [rbp-0x4],0x25f
    3977:	0f 84 53 ae 00 00    	je     e7d0 <main+0xd4b9>
    397d:	81 7d fc 40 01 00 00 	cmp    DWORD PTR [rbp-0x4],0x140
    3984:	75 05                	jne    398b <main+0x2674>
    3986:	e9 17 49 00 00       	jmp    82a2 <main+0x6f8b>
    398b:	48 8d 05 96 b6 00 00 	lea    rax,[rip+0xb696]        # f028 <_IO_stdin_used+0x28>
    3992:	48 89 c7             	mov    rdi,rax
    3995:	e8 26 d7 ff ff       	call   10c0 <puts@plt>
    399a:	bf 01 00 00 00       	mov    edi,0x1
    399f:	e8 8c d7 ff ff       	call   1130 <exit@plt>
    39a4:	be 6f 00 00 00       	mov    esi,0x6f
    39a9:	48 8d 05 69 b6 00 00 	lea    rax,[rip+0xb669]        # f019 <_IO_stdin_used+0x19>
    39b0:	48 89 c7             	mov    rdi,rax
    39b3:	b8 00 00 00 00       	mov    eax,0x0
    39b8:	e8 33 d7 ff ff       	call   10f0 <printf@plt>
    39bd:	b8 00 00 00 00       	mov    eax,0x0
    39c2:	e8 a9 d8 ff ff       	call   1270 <get_input>
    39c7:	89 45 fc             	mov    DWORD PTR [rbp-0x4],eax
    39ca:	83 7d fc 19          	cmp    DWORD PTR [rbp-0x4],0x19
    39ce:	75 05                	jne    39d5 <main+0x26be>
    39d0:	e9 df e1 ff ff       	jmp    1bb4 <main+0x89d>
    39d5:	81 7d fc 8b 00 00 00 	cmp    DWORD PTR [rbp-0x4],0x8b
    39dc:	75 05                	jne    39e3 <main+0x26cc>
    39de:	e9 a1 09 00 00       	jmp    4384 <main+0x306d>
    39e3:	48 8d 05 3e b6 00 00 	lea    rax,[rip+0xb63e]        # f028 <_IO_stdin_used+0x28>
    39ea:	48 89 c7             	mov    rdi,rax
    39ed:	e8 ce d6 ff ff       	call   10c0 <puts@plt>
    39f2:	bf 01 00 00 00       	mov    edi,0x1
    39f7:	e8 34 d7 ff ff       	call   1130 <exit@plt>
    39fc:	be 70 00 00 00       	mov    esi,0x70
    3a01:	48 8d 05 11 b6 00 00 	lea    rax,[rip+0xb611]        # f019 <_IO_stdin_used+0x19>
    3a08:	48 89 c7             	mov    rdi,rax
    3a0b:	b8 00 00 00 00       	mov    eax,0x0
    3a10:	e8 db d6 ff ff       	call   10f0 <printf@plt>
    3a15:	b8 00 00 00 00       	mov    eax,0x0
    3a1a:	e8 51 d8 ff ff       	call   1270 <get_input>
    3a1f:	89 45 fc             	mov    DWORD PTR [rbp-0x4],eax
    3a22:	83 7d fc 11          	cmp    DWORD PTR [rbp-0x4],0x11
    3a26:	75 05                	jne    3a2d <main+0x2716>
    3a28:	e9 b5 de ff ff       	jmp    18e2 <main+0x5cb>
    3a2d:	81 7d fc 7f 01 00 00 	cmp    DWORD PTR [rbp-0x4],0x17f
    3a34:	75 05                	jne    3a3b <main+0x2724>
    3a36:	e9 74 5e 00 00       	jmp    98af <main+0x8598>
    3a3b:	48 8d 05 e6 b5 00 00 	lea    rax,[rip+0xb5e6]        # f028 <_IO_stdin_used+0x28>
    3a42:	48 89 c7             	mov    rdi,rax
    3a45:	e8 76 d6 ff ff       	call   10c0 <puts@plt>
    3a4a:	bf 01 00 00 00       	mov    edi,0x1
    3a4f:	e8 dc d6 ff ff       	call   1130 <exit@plt>
    3a54:	be 71 00 00 00       	mov    esi,0x71
    3a59:	48 8d 05 b9 b5 00 00 	lea    rax,[rip+0xb5b9]        # f019 <_IO_stdin_used+0x19>
    3a60:	48 89 c7             	mov    rdi,rax
    3a63:	b8 00 00 00 00       	mov    eax,0x0
    3a68:	e8 83 d6 ff ff       	call   10f0 <printf@plt>
    3a6d:	b8 00 00 00 00       	mov    eax,0x0
    3a72:	e8 f9 d7 ff ff       	call   1270 <get_input>
    3a77:	89 45 fc             	mov    DWORD PTR [rbp-0x4],eax
    3a7a:	81 7d fc 34 01 00 00 	cmp    DWORD PTR [rbp-0x4],0x134
    3a81:	75 05                	jne    3a88 <main+0x2771>
    3a83:	e9 db 43 00 00       	jmp    7e63 <main+0x6b4c>
    3a88:	83 7d fc 35          	cmp    DWORD PTR [rbp-0x4],0x35
    3a8c:	75 05                	jne    3a93 <main+0x277c>
    3a8e:	e9 a2 ea ff ff       	jmp    2535 <main+0x121e>
    3a93:	48 8d 05 8e b5 00 00 	lea    rax,[rip+0xb58e]        # f028 <_IO_stdin_used+0x28>
    3a9a:	48 89 c7             	mov    rdi,rax
    3a9d:	e8 1e d6 ff ff       	call   10c0 <puts@plt>
    3aa2:	bf 01 00 00 00       	mov    edi,0x1
    3aa7:	e8 84 d6 ff ff       	call   1130 <exit@plt>
    3aac:	be 72 00 00 00       	mov    esi,0x72
    3ab1:	48 8d 05 61 b5 00 00 	lea    rax,[rip+0xb561]        # f019 <_IO_stdin_used+0x19>
    3ab8:	48 89 c7             	mov    rdi,rax
    3abb:	b8 00 00 00 00       	mov    eax,0x0
    3ac0:	e8 2b d6 ff ff       	call   10f0 <printf@plt>
    3ac5:	b8 00 00 00 00       	mov    eax,0x0
    3aca:	e8 a1 d7 ff ff       	call   1270 <get_input>
    3acf:	89 45 fc             	mov    DWORD PTR [rbp-0x4],eax
    3ad2:	81 7d fc 3a 02 00 00 	cmp    DWORD PTR [rbp-0x4],0x23a
    3ad9:	75 05                	jne    3ae0 <main+0x27c9>
    3adb:	e9 65 9f 00 00       	jmp    da45 <main+0xc72e>
    3ae0:	81 7d fc 3e 01 00 00 	cmp    DWORD PTR [rbp-0x4],0x13e
    3ae7:	75 05                	jne    3aee <main+0x27d7>
    3ae9:	e9 05 47 00 00       	jmp    81f3 <main+0x6edc>
    3aee:	81 7d fc 14 01 00 00 	cmp    DWORD PTR [rbp-0x4],0x114
    3af5:	75 05                	jne    3afc <main+0x27e5>
    3af7:	e9 37 38 00 00       	jmp    7333 <main+0x601c>
    3afc:	48 8d 05 25 b5 00 00 	lea    rax,[rip+0xb525]        # f028 <_IO_stdin_used+0x28>
    3b03:	48 89 c7             	mov    rdi,rax
    3b06:	e8 b5 d5 ff ff       	call   10c0 <puts@plt>
    3b0b:	bf 01 00 00 00       	mov    edi,0x1
    3b10:	e8 1b d6 ff ff       	call   1130 <exit@plt>
    3b15:	be 73 00 00 00       	mov    esi,0x73
    3b1a:	48 8d 05 f8 b4 00 00 	lea    rax,[rip+0xb4f8]        # f019 <_IO_stdin_used+0x19>
    3b21:	48 89 c7             	mov    rdi,rax
    3b24:	b8 00 00 00 00       	mov    eax,0x0
    3b29:	e8 c2 d5 ff ff       	call   10f0 <printf@plt>
    3b2e:	b8 00 00 00 00       	mov    eax,0x0
    3b33:	e8 38 d7 ff ff       	call   1270 <get_input>
    3b38:	89 45 fc             	mov    DWORD PTR [rbp-0x4],eax
    3b3b:	83 7d fc 15          	cmp    DWORD PTR [rbp-0x4],0x15
    3b3f:	75 05                	jne    3b46 <main+0x282f>
    3b41:	e9 1b df ff ff       	jmp    1a61 <main+0x74a>
    3b46:	81 7d fc 24 01 00 00 	cmp    DWORD PTR [rbp-0x4],0x124
    3b4d:	0f 84 70 3d 00 00    	je     78c3 <main+0x65ac>
    3b53:	81 7d fc bc 01 00 00 	cmp    DWORD PTR [rbp-0x4],0x1bc
    3b5a:	75 05                	jne    3b61 <main+0x284a>
    3b5c:	e9 e4 72 00 00       	jmp    ae45 <main+0x9b2e>
    3b61:	48 8d 05 c0 b4 00 00 	lea    rax,[rip+0xb4c0]        # f028 <_IO_stdin_used+0x28>
    3b68:	48 89 c7             	mov    rdi,rax
    3b6b:	e8 50 d5 ff ff       	call   10c0 <puts@plt>
    3b70:	bf 01 00 00 00       	mov    edi,0x1
    3b75:	e8 b6 d5 ff ff       	call   1130 <exit@plt>
    3b7a:	be 74 00 00 00       	mov    esi,0x74
    3b7f:	48 8d 05 93 b4 00 00 	lea    rax,[rip+0xb493]        # f019 <_IO_stdin_used+0x19>
    3b86:	48 89 c7             	mov    rdi,rax
    3b89:	b8 00 00 00 00       	mov    eax,0x0
    3b8e:	e8 5d d5 ff ff       	call   10f0 <printf@plt>
    3b93:	b8 00 00 00 00       	mov    eax,0x0
    3b98:	e8 d3 d6 ff ff       	call   1270 <get_input>
    3b9d:	89 45 fc             	mov    DWORD PTR [rbp-0x4],eax
    3ba0:	81 7d fc 19 01 00 00 	cmp    DWORD PTR [rbp-0x4],0x119
    3ba7:	75 05                	jne    3bae <main+0x2897>
    3ba9:	e9 52 39 00 00       	jmp    7500 <main+0x61e9>
    3bae:	81 7d fc 94 00 00 00 	cmp    DWORD PTR [rbp-0x4],0x94
    3bb5:	0f 84 ff 0a 00 00    	je     46ba <main+0x33a3>
    3bbb:	48 8d 05 66 b4 00 00 	lea    rax,[rip+0xb466]        # f028 <_IO_stdin_used+0x28>
    3bc2:	48 89 c7             	mov    rdi,rax
    3bc5:	e8 f6 d4 ff ff       	call   10c0 <puts@plt>
    3bca:	bf 01 00 00 00       	mov    edi,0x1
    3bcf:	e8 5c d5 ff ff       	call   1130 <exit@plt>
    3bd4:	be 75 00 00 00       	mov    esi,0x75
    3bd9:	48 8d 05 39 b4 00 00 	lea    rax,[rip+0xb439]        # f019 <_IO_stdin_used+0x19>
    3be0:	48 89 c7             	mov    rdi,rax
    3be3:	b8 00 00 00 00       	mov    eax,0x0
    3be8:	e8 03 d5 ff ff       	call   10f0 <printf@plt>
    3bed:	b8 00 00 00 00       	mov    eax,0x0
    3bf2:	e8 79 d6 ff ff       	call   1270 <get_input>
    3bf7:	89 45 fc             	mov    DWORD PTR [rbp-0x4],eax
    3bfa:	81 7d fc b0 00 00 00 	cmp    DWORD PTR [rbp-0x4],0xb0
    3c01:	75 05                	jne    3c08 <main+0x28f1>
    3c03:	e9 8a 14 00 00       	jmp    5092 <main+0x3d7b>
    3c08:	81 7d fc 17 02 00 00 	cmp    DWORD PTR [rbp-0x4],0x217
    3c0f:	0f 84 a1 91 00 00    	je     cdb6 <main+0xba9f>
    3c15:	48 8d 05 0c b4 00 00 	lea    rax,[rip+0xb40c]        # f028 <_IO_stdin_used+0x28>
    3c1c:	48 89 c7             	mov    rdi,rax
    3c1f:	e8 9c d4 ff ff       	call   10c0 <puts@plt>
    3c24:	bf 01 00 00 00       	mov    edi,0x1
    3c29:	e8 02 d5 ff ff       	call   1130 <exit@plt>
    3c2e:	90                   	nop
    3c2f:	be 76 00 00 00       	mov    esi,0x76
    3c34:	48 8d 05 de b3 00 00 	lea    rax,[rip+0xb3de]        # f019 <_IO_stdin_used+0x19>
    3c3b:	48 89 c7             	mov    rdi,rax
    3c3e:	b8 00 00 00 00       	mov    eax,0x0
    3c43:	e8 a8 d4 ff ff       	call   10f0 <printf@plt>
    3c48:	b8 00 00 00 00       	mov    eax,0x0
    3c4d:	e8 1e d6 ff ff       	call   1270 <get_input>
    3c52:	89 45 fc             	mov    DWORD PTR [rbp-0x4],eax
    3c55:	81 7d fc d2 01 00 00 	cmp    DWORD PTR [rbp-0x4],0x1d2
    3c5c:	75 05                	jne    3c63 <main+0x294c>
    3c5e:	e9 86 79 00 00       	jmp    b5e9 <main+0xa2d2>
    3c63:	48 8d 05 be b3 00 00 	lea    rax,[rip+0xb3be]        # f028 <_IO_stdin_used+0x28>
    3c6a:	48 89 c7             	mov    rdi,rax
    3c6d:	e8 4e d4 ff ff       	call   10c0 <puts@plt>
    3c72:	bf 01 00 00 00       	mov    edi,0x1
    3c77:	e8 b4 d4 ff ff       	call   1130 <exit@plt>
    3c7c:	be 77 00 00 00       	mov    esi,0x77
    3c81:	48 8d 05 91 b3 00 00 	lea    rax,[rip+0xb391]        # f019 <_IO_stdin_used+0x19>
    3c88:	48 89 c7             	mov    rdi,rax
    3c8b:	b8 00 00 00 00       	mov    eax,0x0
    3c90:	e8 5b d4 ff ff       	call   10f0 <printf@plt>
    3c95:	b8 00 00 00 00       	mov    eax,0x0
    3c9a:	e8 d1 d5 ff ff       	call   1270 <get_input>
    3c9f:	89 45 fc             	mov    DWORD PTR [rbp-0x4],eax
    3ca2:	81 7d fc 3a 01 00 00 	cmp    DWORD PTR [rbp-0x4],0x13a
    3ca9:	75 05                	jne    3cb0 <main+0x2999>
    3cab:	e9 d9 43 00 00       	jmp    8089 <main+0x6d72>
    3cb0:	81 7d fc 87 01 00 00 	cmp    DWORD PTR [rbp-0x4],0x187
    3cb7:	75 05                	jne    3cbe <main+0x29a7>
    3cb9:	e9 cb 5e 00 00       	jmp    9b89 <main+0x8872>
    3cbe:	83 7d fc 69          	cmp    DWORD PTR [rbp-0x4],0x69
    3cc2:	75 05                	jne    3cc9 <main+0x29b2>
    3cc4:	e9 ba fa ff ff       	jmp    3783 <main+0x246c>
    3cc9:	48 8d 05 58 b3 00 00 	lea    rax,[rip+0xb358]        # f028 <_IO_stdin_used+0x28>
    3cd0:	48 89 c7             	mov    rdi,rax
    3cd3:	e8 e8 d3 ff ff       	call   10c0 <puts@plt>
    3cd8:	bf 01 00 00 00       	mov    edi,0x1
    3cdd:	e8 4e d4 ff ff       	call   1130 <exit@plt>
    3ce2:	be 78 00 00 00       	mov    esi,0x78
    3ce7:	48 8d 05 2b b3 00 00 	lea    rax,[rip+0xb32b]        # f019 <_IO_stdin_used+0x19>
    3cee:	48 89 c7             	mov    rdi,rax
    3cf1:	b8 00 00 00 00       	mov    eax,0x0
    3cf6:	e8 f5 d3 ff ff       	call   10f0 <printf@plt>
    3cfb:	b8 00 00 00 00       	mov    eax,0x0
    3d00:	e8 6b d5 ff ff       	call   1270 <get_input>
    3d05:	89 45 fc             	mov    DWORD PTR [rbp-0x4],eax
    3d08:	81 7d fc ab 00 00 00 	cmp    DWORD PTR [rbp-0x4],0xab
    3d0f:	75 05                	jne    3d16 <main+0x29ff>
    3d11:	e9 a0 11 00 00       	jmp    4eb6 <main+0x3b9f>
    3d16:	81 7d fc 8e 01 00 00 	cmp    DWORD PTR [rbp-0x4],0x18e
    3d1d:	75 05                	jne    3d24 <main+0x2a0d>
    3d1f:	e9 f5 60 00 00       	jmp    9e19 <main+0x8b02>
    3d24:	81 7d fc c3 01 00 00 	cmp    DWORD PTR [rbp-0x4],0x1c3
    3d2b:	75 05                	jne    3d32 <main+0x2a1b>
    3d2d:	e9 91 73 00 00       	jmp    b0c3 <main+0x9dac>
    3d32:	48 8d 05 ef b2 00 00 	lea    rax,[rip+0xb2ef]        # f028 <_IO_stdin_used+0x28>
    3d39:	48 89 c7             	mov    rdi,rax
    3d3c:	e8 7f d3 ff ff       	call   10c0 <puts@plt>
    3d41:	bf 01 00 00 00       	mov    edi,0x1
    3d46:	e8 e5 d3 ff ff       	call   1130 <exit@plt>
    3d4b:	be 79 00 00 00       	mov    esi,0x79
    3d50:	48 8d 05 c2 b2 00 00 	lea    rax,[rip+0xb2c2]        # f019 <_IO_stdin_used+0x19>
    3d57:	48 89 c7             	mov    rdi,rax
    3d5a:	b8 00 00 00 00       	mov    eax,0x0
    3d5f:	e8 8c d3 ff ff       	call   10f0 <printf@plt>
    3d64:	b8 00 00 00 00       	mov    eax,0x0
    3d69:	e8 02 d5 ff ff       	call   1270 <get_input>
    3d6e:	89 45 fc             	mov    DWORD PTR [rbp-0x4],eax
    3d71:	83 7d fc 22          	cmp    DWORD PTR [rbp-0x4],0x22
    3d75:	75 05                	jne    3d7c <main+0x2a65>
    3d77:	e9 81 e1 ff ff       	jmp    1efd <main+0xbe6>
    3d7c:	83 7d fc 53          	cmp    DWORD PTR [rbp-0x4],0x53
    3d80:	75 05                	jne    3d87 <main+0x2a70>
    3d82:	e9 2f f2 ff ff       	jmp    2fb6 <main+0x1c9f>
    3d87:	81 7d fc fb 00 00 00 	cmp    DWORD PTR [rbp-0x4],0xfb
    3d8e:	0f 84 24 2d 00 00    	je     6ab8 <main+0x57a1>
    3d94:	48 8d 05 8d b2 00 00 	lea    rax,[rip+0xb28d]        # f028 <_IO_stdin_used+0x28>
    3d9b:	48 89 c7             	mov    rdi,rax
    3d9e:	e8 1d d3 ff ff       	call   10c0 <puts@plt>
    3da3:	bf 01 00 00 00       	mov    edi,0x1
    3da8:	e8 83 d3 ff ff       	call   1130 <exit@plt>
    3dad:	be 7a 00 00 00       	mov    esi,0x7a
    3db2:	48 8d 05 60 b2 00 00 	lea    rax,[rip+0xb260]        # f019 <_IO_stdin_used+0x19>
    3db9:	48 89 c7             	mov    rdi,rax
    3dbc:	b8 00 00 00 00       	mov    eax,0x0
    3dc1:	e8 2a d3 ff ff       	call   10f0 <printf@plt>
    3dc6:	b8 00 00 00 00       	mov    eax,0x0
    3dcb:	e8 a0 d4 ff ff       	call   1270 <get_input>
    3dd0:	89 45 fc             	mov    DWORD PTR [rbp-0x4],eax
    3dd3:	81 7d fc 10 01 00 00 	cmp    DWORD PTR [rbp-0x4],0x110
    3dda:	75 05                	jne    3de1 <main+0x2aca>
    3ddc:	e9 f5 33 00 00       	jmp    71d6 <main+0x5ebf>
    3de1:	81 7d fc 82 00 00 00 	cmp    DWORD PTR [rbp-0x4],0x82
    3de8:	75 05                	jne    3def <main+0x2ad8>
    3dea:	e9 8a 02 00 00       	jmp    4079 <main+0x2d62>
    3def:	83 7d fc 4f          	cmp    DWORD PTR [rbp-0x4],0x4f
    3df3:	0f 84 61 f0 ff ff    	je     2e5a <main+0x1b43>
    3df9:	48 8d 05 28 b2 00 00 	lea    rax,[rip+0xb228]        # f028 <_IO_stdin_used+0x28>
    3e00:	48 89 c7             	mov    rdi,rax
    3e03:	e8 b8 d2 ff ff       	call   10c0 <puts@plt>
    3e08:	bf 01 00 00 00       	mov    edi,0x1
    3e0d:	e8 1e d3 ff ff       	call   1130 <exit@plt>
    3e12:	be 7b 00 00 00       	mov    esi,0x7b
    3e17:	48 8d 05 fb b1 00 00 	lea    rax,[rip+0xb1fb]        # f019 <_IO_stdin_used+0x19>
    3e1e:	48 89 c7             	mov    rdi,rax
    3e21:	b8 00 00 00 00       	mov    eax,0x0
    3e26:	e8 c5 d2 ff ff       	call   10f0 <printf@plt>
    3e2b:	b8 00 00 00 00       	mov    eax,0x0
    3e30:	e8 3b d4 ff ff       	call   1270 <get_input>
    3e35:	89 45 fc             	mov    DWORD PTR [rbp-0x4],eax
    3e38:	83 7d fc 68          	cmp    DWORD PTR [rbp-0x4],0x68
    3e3c:	75 05                	jne    3e43 <main+0x2b2c>
    3e3e:	e9 da f8 ff ff       	jmp    371d <main+0x2406>
    3e43:	81 7d fc f3 01 00 00 	cmp    DWORD PTR [rbp-0x4],0x1f3
    3e4a:	75 05                	jne    3e51 <main+0x2b3a>
    3e4c:	e9 0c 83 00 00       	jmp    c15d <main+0xae46>
    3e51:	48 8d 05 d0 b1 00 00 	lea    rax,[rip+0xb1d0]        # f028 <_IO_stdin_used+0x28>
    3e58:	48 89 c7             	mov    rdi,rax
    3e5b:	e8 60 d2 ff ff       	call   10c0 <puts@plt>
    3e60:	bf 01 00 00 00       	mov    edi,0x1
    3e65:	e8 c6 d2 ff ff       	call   1130 <exit@plt>
    3e6a:	be 7c 00 00 00       	mov    esi,0x7c
    3e6f:	48 8d 05 a3 b1 00 00 	lea    rax,[rip+0xb1a3]        # f019 <_IO_stdin_used+0x19>
    3e76:	48 89 c7             	mov    rdi,rax
    3e79:	b8 00 00 00 00       	mov    eax,0x0
    3e7e:	e8 6d d2 ff ff       	call   10f0 <printf@plt>
    3e83:	b8 00 00 00 00       	mov    eax,0x0
    3e88:	e8 e3 d3 ff ff       	call   1270 <get_input>
    3e8d:	89 45 fc             	mov    DWORD PTR [rbp-0x4],eax
    3e90:	81 7d fc 9e 01 00 00 	cmp    DWORD PTR [rbp-0x4],0x19e
    3e97:	75 05                	jne    3e9e <main+0x2b87>
    3e99:	e9 47 65 00 00       	jmp    a3e5 <main+0x90ce>
    3e9e:	81 7d fc f7 01 00 00 	cmp    DWORD PTR [rbp-0x4],0x1f7
    3ea5:	75 05                	jne    3eac <main+0x2b95>
    3ea7:	e9 06 84 00 00       	jmp    c2b2 <main+0xaf9b>
    3eac:	48 8d 05 75 b1 00 00 	lea    rax,[rip+0xb175]        # f028 <_IO_stdin_used+0x28>
    3eb3:	48 89 c7             	mov    rdi,rax
    3eb6:	e8 05 d2 ff ff       	call   10c0 <puts@plt>
    3ebb:	bf 01 00 00 00       	mov    edi,0x1
    3ec0:	e8 6b d2 ff ff       	call   1130 <exit@plt>
    3ec5:	be 7d 00 00 00       	mov    esi,0x7d
    3eca:	48 8d 05 48 b1 00 00 	lea    rax,[rip+0xb148]        # f019 <_IO_stdin_used+0x19>
    3ed1:	48 89 c7             	mov    rdi,rax
    3ed4:	b8 00 00 00 00       	mov    eax,0x0
    3ed9:	e8 12 d2 ff ff       	call   10f0 <printf@plt>
    3ede:	b8 00 00 00 00       	mov    eax,0x0
    3ee3:	e8 88 d3 ff ff       	call   1270 <get_input>
    3ee8:	89 45 fc             	mov    DWORD PTR [rbp-0x4],eax
    3eeb:	81 7d fc cd 01 00 00 	cmp    DWORD PTR [rbp-0x4],0x1cd
    3ef2:	75 05                	jne    3ef9 <main+0x2be2>
    3ef4:	e9 3e 75 00 00       	jmp    b437 <main+0xa120>
    3ef9:	83 7d fc 6c          	cmp    DWORD PTR [rbp-0x4],0x6c
    3efd:	75 05                	jne    3f04 <main+0x2bed>
    3eff:	e9 8a f9 ff ff       	jmp    388e <main+0x2577>
    3f04:	48 8d 05 1d b1 00 00 	lea    rax,[rip+0xb11d]        # f028 <_IO_stdin_used+0x28>
    3f0b:	48 89 c7             	mov    rdi,rax
    3f0e:	e8 ad d1 ff ff       	call   10c0 <puts@plt>
    3f13:	bf 01 00 00 00       	mov    edi,0x1
    3f18:	e8 13 d2 ff ff       	call   1130 <exit@plt>
    3f1d:	be 7e 00 00 00       	mov    esi,0x7e
    3f22:	48 8d 05 f0 b0 00 00 	lea    rax,[rip+0xb0f0]        # f019 <_IO_stdin_used+0x19>
    3f29:	48 89 c7             	mov    rdi,rax
    3f2c:	b8 00 00 00 00       	mov    eax,0x0
    3f31:	e8 ba d1 ff ff       	call   10f0 <printf@plt>
    3f36:	b8 00 00 00 00       	mov    eax,0x0
    3f3b:	e8 30 d3 ff ff       	call   1270 <get_input>
    3f40:	89 45 fc             	mov    DWORD PTR [rbp-0x4],eax
    3f43:	81 7d fc 03 01 00 00 	cmp    DWORD PTR [rbp-0x4],0x103
    3f4a:	75 05                	jne    3f51 <main+0x2c3a>
    3f4c:	e9 15 2e 00 00       	jmp    6d66 <main+0x5a4f>
    3f51:	81 7d fc a9 01 00 00 	cmp    DWORD PTR [rbp-0x4],0x1a9
    3f58:	75 05                	jne    3f5f <main+0x2c48>
    3f5a:	e9 7d 68 00 00       	jmp    a7dc <main+0x94c5>
    3f5f:	48 8d 05 c2 b0 00 00 	lea    rax,[rip+0xb0c2]        # f028 <_IO_stdin_used+0x28>
    3f66:	48 89 c7             	mov    rdi,rax
    3f69:	e8 52 d1 ff ff       	call   10c0 <puts@plt>
    3f6e:	bf 01 00 00 00       	mov    edi,0x1
    3f73:	e8 b8 d1 ff ff       	call   1130 <exit@plt>
    3f78:	90                   	nop
    3f79:	be 7f 00 00 00       	mov    esi,0x7f
    3f7e:	48 8d 05 94 b0 00 00 	lea    rax,[rip+0xb094]        # f019 <_IO_stdin_used+0x19>
    3f85:	48 89 c7             	mov    rdi,rax
    3f88:	b8 00 00 00 00       	mov    eax,0x0
    3f8d:	e8 5e d1 ff ff       	call   10f0 <printf@plt>
    3f92:	b8 00 00 00 00       	mov    eax,0x0
    3f97:	e8 d4 d2 ff ff       	call   1270 <get_input>
    3f9c:	89 45 fc             	mov    DWORD PTR [rbp-0x4],eax
    3f9f:	81 7d fc 53 01 00 00 	cmp    DWORD PTR [rbp-0x4],0x153
    3fa6:	75 05                	jne    3fad <main+0x2c96>
    3fa8:	e9 c1 49 00 00       	jmp    896e <main+0x7657>
    3fad:	48 8d 05 74 b0 00 00 	lea    rax,[rip+0xb074]        # f028 <_IO_stdin_used+0x28>
    3fb4:	48 89 c7             	mov    rdi,rax
    3fb7:	e8 04 d1 ff ff       	call   10c0 <puts@plt>
    3fbc:	bf 01 00 00 00       	mov    edi,0x1
    3fc1:	e8 6a d1 ff ff       	call   1130 <exit@plt>
    3fc6:	be 80 00 00 00       	mov    esi,0x80
    3fcb:	48 8d 05 47 b0 00 00 	lea    rax,[rip+0xb047]        # f019 <_IO_stdin_used+0x19>
    3fd2:	48 89 c7             	mov    rdi,rax
    3fd5:	b8 00 00 00 00       	mov    eax,0x0
    3fda:	e8 11 d1 ff ff       	call   10f0 <printf@plt>
    3fdf:	b8 00 00 00 00       	mov    eax,0x0
    3fe4:	e8 87 d2 ff ff       	call   1270 <get_input>
    3fe9:	89 45 fc             	mov    DWORD PTR [rbp-0x4],eax
    3fec:	81 7d fc 96 00 00 00 	cmp    DWORD PTR [rbp-0x4],0x96
    3ff3:	75 05                	jne    3ffa <main+0x2ce3>
    3ff5:	e9 66 07 00 00       	jmp    4760 <main+0x3449>
    3ffa:	81 7d fc e9 01 00 00 	cmp    DWORD PTR [rbp-0x4],0x1e9
    4001:	75 05                	jne    4008 <main+0x2cf1>
    4003:	e9 de 7d 00 00       	jmp    bde6 <main+0xaacf>
    4008:	48 8d 05 19 b0 00 00 	lea    rax,[rip+0xb019]        # f028 <_IO_stdin_used+0x28>
    400f:	48 89 c7             	mov    rdi,rax
    4012:	e8 a9 d0 ff ff       	call   10c0 <puts@plt>
    4017:	bf 01 00 00 00       	mov    edi,0x1
    401c:	e8 0f d1 ff ff       	call   1130 <exit@plt>
    4021:	be 81 00 00 00       	mov    esi,0x81
    4026:	48 8d 05 ec af 00 00 	lea    rax,[rip+0xafec]        # f019 <_IO_stdin_used+0x19>
    402d:	48 89 c7             	mov    rdi,rax
    4030:	b8 00 00 00 00       	mov    eax,0x0
    4035:	e8 b6 d0 ff ff       	call   10f0 <printf@plt>
    403a:	b8 00 00 00 00       	mov    eax,0x0
    403f:	e8 2c d2 ff ff       	call   1270 <get_input>
    4044:	89 45 fc             	mov    DWORD PTR [rbp-0x4],eax
    4047:	81 7d fc 37 01 00 00 	cmp    DWORD PTR [rbp-0x4],0x137
    404e:	75 05                	jne    4055 <main+0x2d3e>
    4050:	e9 18 3f 00 00       	jmp    7f6d <main+0x6c56>
    4055:	83 7d fc 4d          	cmp    DWORD PTR [rbp-0x4],0x4d
    4059:	75 05                	jne    4060 <main+0x2d49>
    405b:	e9 1f ed ff ff       	jmp    2d7f <main+0x1a68>
    4060:	48 8d 05 c1 af 00 00 	lea    rax,[rip+0xafc1]        # f028 <_IO_stdin_used+0x28>
    4067:	48 89 c7             	mov    rdi,rax
    406a:	e8 51 d0 ff ff       	call   10c0 <puts@plt>
    406f:	bf 01 00 00 00       	mov    edi,0x1
    4074:	e8 b7 d0 ff ff       	call   1130 <exit@plt>
    4079:	be 82 00 00 00       	mov    esi,0x82
    407e:	48 8d 05 94 af 00 00 	lea    rax,[rip+0xaf94]        # f019 <_IO_stdin_used+0x19>
    4085:	48 89 c7             	mov    rdi,rax
    4088:	b8 00 00 00 00       	mov    eax,0x0
    408d:	e8 5e d0 ff ff       	call   10f0 <printf@plt>
    4092:	b8 00 00 00 00       	mov    eax,0x0
    4097:	e8 d4 d1 ff ff       	call   1270 <get_input>
    409c:	89 45 fc             	mov    DWORD PTR [rbp-0x4],eax
    409f:	81 7d fc 33 02 00 00 	cmp    DWORD PTR [rbp-0x4],0x233
    40a6:	75 05                	jne    40ad <main+0x2d96>
    40a8:	e9 04 97 00 00       	jmp    d7b1 <main+0xc49a>
    40ad:	83 7d fc 7a          	cmp    DWORD PTR [rbp-0x4],0x7a
    40b1:	75 05                	jne    40b8 <main+0x2da1>
    40b3:	e9 f5 fc ff ff       	jmp    3dad <main+0x2a96>
    40b8:	81 7d fc 92 00 00 00 	cmp    DWORD PTR [rbp-0x4],0x92
    40bf:	0f 84 59 05 00 00    	je     461e <main+0x3307>
    40c5:	48 8d 05 5c af 00 00 	lea    rax,[rip+0xaf5c]        # f028 <_IO_stdin_used+0x28>
    40cc:	48 89 c7             	mov    rdi,rax
    40cf:	e8 ec cf ff ff       	call   10c0 <puts@plt>
    40d4:	bf 01 00 00 00       	mov    edi,0x1
    40d9:	e8 52 d0 ff ff       	call   1130 <exit@plt>
    40de:	be 83 00 00 00       	mov    esi,0x83
    40e3:	48 8d 05 2f af 00 00 	lea    rax,[rip+0xaf2f]        # f019 <_IO_stdin_used+0x19>
    40ea:	48 89 c7             	mov    rdi,rax
    40ed:	b8 00 00 00 00       	mov    eax,0x0
    40f2:	e8 f9 cf ff ff       	call   10f0 <printf@plt>
    40f7:	b8 00 00 00 00       	mov    eax,0x0
    40fc:	e8 6f d1 ff ff       	call   1270 <get_input>
    4101:	89 45 fc             	mov    DWORD PTR [rbp-0x4],eax
    4104:	81 7d fc be 01 00 00 	cmp    DWORD PTR [rbp-0x4],0x1be
    410b:	75 05                	jne    4112 <main+0x2dfb>
    410d:	e9 e2 6d 00 00       	jmp    aef4 <main+0x9bdd>
    4112:	81 7d fc a6 01 00 00 	cmp    DWORD PTR [rbp-0x4],0x1a6
    4119:	75 05                	jne    4120 <main+0x2e09>
    411b:	e9 ad 65 00 00       	jmp    a6cd <main+0x93b6>
    4120:	48 8d 05 01 af 00 00 	lea    rax,[rip+0xaf01]        # f028 <_IO_stdin_used+0x28>
    4127:	48 89 c7             	mov    rdi,rax
    412a:	e8 91 cf ff ff       	call   10c0 <puts@plt>
    412f:	bf 01 00 00 00       	mov    edi,0x1
    4134:	e8 f7 cf ff ff       	call   1130 <exit@plt>
    4139:	be 84 00 00 00       	mov    esi,0x84
    413e:	48 8d 05 d4 ae 00 00 	lea    rax,[rip+0xaed4]        # f019 <_IO_stdin_used+0x19>
    4145:	48 89 c7             	mov    rdi,rax
    4148:	b8 00 00 00 00       	mov    eax,0x0
    414d:	e8 9e cf ff ff       	call   10f0 <printf@plt>
    4152:	b8 00 00 00 00       	mov    eax,0x0
    4157:	e8 14 d1 ff ff       	call   1270 <get_input>
    415c:	89 45 fc             	mov    DWORD PTR [rbp-0x4],eax
    415f:	81 7d fc 45 02 00 00 	cmp    DWORD PTR [rbp-0x4],0x245
    4166:	75 05                	jne    416d <main+0x2e56>
    4168:	e9 c0 9c 00 00       	jmp    de2d <main+0xcb16>
    416d:	81 7d fc f5 01 00 00 	cmp    DWORD PTR [rbp-0x4],0x1f5
    4174:	0f 84 93 80 00 00    	je     c20d <main+0xaef6>
    417a:	48 8d 05 a7 ae 00 00 	lea    rax,[rip+0xaea7]        # f028 <_IO_stdin_used+0x28>
    4181:	48 89 c7             	mov    rdi,rax
    4184:	e8 37 cf ff ff       	call   10c0 <puts@plt>
    4189:	bf 01 00 00 00       	mov    edi,0x1
    418e:	e8 9d cf ff ff       	call   1130 <exit@plt>
    4193:	be 85 00 00 00       	mov    esi,0x85
    4198:	48 8d 05 7a ae 00 00 	lea    rax,[rip+0xae7a]        # f019 <_IO_stdin_used+0x19>
    419f:	48 89 c7             	mov    rdi,rax
    41a2:	b8 00 00 00 00       	mov    eax,0x0
    41a7:	e8 44 cf ff ff       	call   10f0 <printf@plt>
    41ac:	b8 00 00 00 00       	mov    eax,0x0
    41b1:	e8 ba d0 ff ff       	call   1270 <get_input>
    41b6:	89 45 fc             	mov    DWORD PTR [rbp-0x4],eax
    41b9:	83 7d fc 42          	cmp    DWORD PTR [rbp-0x4],0x42
    41bd:	75 05                	jne    41c4 <main+0x2ead>
    41bf:	e9 b6 e7 ff ff       	jmp    297a <main+0x1663>
    41c4:	81 7d fc 25 01 00 00 	cmp    DWORD PTR [rbp-0x4],0x125
    41cb:	75 05                	jne    41d2 <main+0x2ebb>
    41cd:	e9 3c 37 00 00       	jmp    790e <main+0x65f7>
    41d2:	48 8d 05 4f ae 00 00 	lea    rax,[rip+0xae4f]        # f028 <_IO_stdin_used+0x28>
    41d9:	48 89 c7             	mov    rdi,rax
    41dc:	e8 df ce ff ff       	call   10c0 <puts@plt>
    41e1:	bf 01 00 00 00       	mov    edi,0x1
    41e6:	e8 45 cf ff ff       	call   1130 <exit@plt>
    41eb:	90                   	nop
    41ec:	be 86 00 00 00       	mov    esi,0x86
    41f1:	48 8d 05 21 ae 00 00 	lea    rax,[rip+0xae21]        # f019 <_IO_stdin_used+0x19>
    41f8:	48 89 c7             	mov    rdi,rax
    41fb:	b8 00 00 00 00       	mov    eax,0x0
    4200:	e8 eb ce ff ff       	call   10f0 <printf@plt>
    4205:	b8 00 00 00 00       	mov    eax,0x0
    420a:	e8 61 d0 ff ff       	call   1270 <get_input>
    420f:	89 45 fc             	mov    DWORD PTR [rbp-0x4],eax
    4212:	83 7d fc 6d          	cmp    DWORD PTR [rbp-0x4],0x6d
    4216:	75 05                	jne    421d <main+0x2f06>
    4218:	e9 d6 f6 ff ff       	jmp    38f3 <main+0x25dc>
    421d:	48 8d 05 04 ae 00 00 	lea    rax,[rip+0xae04]        # f028 <_IO_stdin_used+0x28>
    4224:	48 89 c7             	mov    rdi,rax
    4227:	e8 94 ce ff ff       	call   10c0 <puts@plt>
    422c:	bf 01 00 00 00       	mov    edi,0x1
    4231:	e8 fa ce ff ff       	call   1130 <exit@plt>
    4236:	90                   	nop
    4237:	be 87 00 00 00       	mov    esi,0x87
    423c:	48 8d 05 d6 ad 00 00 	lea    rax,[rip+0xadd6]        # f019 <_IO_stdin_used+0x19>
    4243:	48 89 c7             	mov    rdi,rax
    4246:	b8 00 00 00 00       	mov    eax,0x0
    424b:	e8 a0 ce ff ff       	call   10f0 <printf@plt>
    4250:	b8 00 00 00 00       	mov    eax,0x0
    4255:	e8 16 d0 ff ff       	call   1270 <get_input>
    425a:	89 45 fc             	mov    DWORD PTR [rbp-0x4],eax
    425d:	81 7d fc 03 01 00 00 	cmp    DWORD PTR [rbp-0x4],0x103
    4264:	75 05                	jne    426b <main+0x2f54>
    4266:	e9 fb 2a 00 00       	jmp    6d66 <main+0x5a4f>
    426b:	48 8d 05 b6 ad 00 00 	lea    rax,[rip+0xadb6]        # f028 <_IO_stdin_used+0x28>
    4272:	48 89 c7             	mov    rdi,rax
    4275:	e8 46 ce ff ff       	call   10c0 <puts@plt>
    427a:	bf 01 00 00 00       	mov    edi,0x1
    427f:	e8 ac ce ff ff       	call   1130 <exit@plt>
    4284:	90                   	nop
    4285:	be 88 00 00 00       	mov    esi,0x88
    428a:	48 8d 05 88 ad 00 00 	lea    rax,[rip+0xad88]        # f019 <_IO_stdin_used+0x19>
    4291:	48 89 c7             	mov    rdi,rax
    4294:	b8 00 00 00 00       	mov    eax,0x0
    4299:	e8 52 ce ff ff       	call   10f0 <printf@plt>
    429e:	b8 00 00 00 00       	mov    eax,0x0
    42a3:	e8 c8 cf ff ff       	call   1270 <get_input>
    42a8:	89 45 fc             	mov    DWORD PTR [rbp-0x4],eax
    42ab:	83 7d fc 22          	cmp    DWORD PTR [rbp-0x4],0x22
    42af:	75 05                	jne    42b6 <main+0x2f9f>
    42b1:	e9 47 dc ff ff       	jmp    1efd <main+0xbe6>
    42b6:	48 8d 05 6b ad 00 00 	lea    rax,[rip+0xad6b]        # f028 <_IO_stdin_used+0x28>
    42bd:	48 89 c7             	mov    rdi,rax
    42c0:	e8 fb cd ff ff       	call   10c0 <puts@plt>
    42c5:	bf 01 00 00 00       	mov    edi,0x1
    42ca:	e8 61 ce ff ff       	call   1130 <exit@plt>
    42cf:	be 89 00 00 00       	mov    esi,0x89
    42d4:	48 8d 05 3e ad 00 00 	lea    rax,[rip+0xad3e]        # f019 <_IO_stdin_used+0x19>
    42db:	48 89 c7             	mov    rdi,rax
    42de:	b8 00 00 00 00       	mov    eax,0x0
    42e3:	e8 08 ce ff ff       	call   10f0 <printf@plt>
    42e8:	b8 00 00 00 00       	mov    eax,0x0
    42ed:	e8 7e cf ff ff       	call   1270 <get_input>
    42f2:	89 45 fc             	mov    DWORD PTR [rbp-0x4],eax
    42f5:	81 7d fc 2d 02 00 00 	cmp    DWORD PTR [rbp-0x4],0x22d
    42fc:	0f 84 78 92 00 00    	je     d57a <main+0xc263>
    4302:	81 7d fc ed 00 00 00 	cmp    DWORD PTR [rbp-0x4],0xed
    4309:	75 05                	jne    4310 <main+0x2ff9>
    430b:	e9 9c 22 00 00       	jmp    65ac <main+0x5295>
    4310:	48 8d 05 11 ad 00 00 	lea    rax,[rip+0xad11]        # f028 <_IO_stdin_used+0x28>
    4317:	48 89 c7             	mov    rdi,rax
    431a:	e8 a1 cd ff ff       	call   10c0 <puts@plt>
    431f:	bf 01 00 00 00       	mov    edi,0x1
    4324:	e8 07 ce ff ff       	call   1130 <exit@plt>
    4329:	be 8a 00 00 00       	mov    esi,0x8a
    432e:	48 8d 05 e4 ac 00 00 	lea    rax,[rip+0xace4]        # f019 <_IO_stdin_used+0x19>
    4335:	48 89 c7             	mov    rdi,rax
    4338:	b8 00 00 00 00       	mov    eax,0x0
    433d:	e8 ae cd ff ff       	call   10f0 <printf@plt>
    4342:	b8 00 00 00 00       	mov    eax,0x0
    4347:	e8 24 cf ff ff       	call   1270 <get_input>
    434c:	89 45 fc             	mov    DWORD PTR [rbp-0x4],eax
    434f:	81 7d fc 7e 01 00 00 	cmp    DWORD PTR [rbp-0x4],0x17e
    4356:	75 05                	jne    435d <main+0x3046>
    4358:	e9 ea 54 00 00       	jmp    9847 <main+0x8530>
    435d:	81 7d fc 76 01 00 00 	cmp    DWORD PTR [rbp-0x4],0x176
    4364:	75 05                	jne    436b <main+0x3054>
    4366:	e9 2a 52 00 00       	jmp    9595 <main+0x827e>
    436b:	48 8d 05 b6 ac 00 00 	lea    rax,[rip+0xacb6]        # f028 <_IO_stdin_used+0x28>
    4372:	48 89 c7             	mov    rdi,rax
    4375:	e8 46 cd ff ff       	call   10c0 <puts@plt>
    437a:	bf 01 00 00 00       	mov    edi,0x1
    437f:	e8 ac cd ff ff       	call   1130 <exit@plt>
    4384:	be 8b 00 00 00       	mov    esi,0x8b
    4389:	48 8d 05 89 ac 00 00 	lea    rax,[rip+0xac89]        # f019 <_IO_stdin_used+0x19>
    4390:	48 89 c7             	mov    rdi,rax
    4393:	b8 00 00 00 00       	mov    eax,0x0
    4398:	e8 53 cd ff ff       	call   10f0 <printf@plt>
    439d:	b8 00 00 00 00       	mov    eax,0x0
    43a2:	e8 c9 ce ff ff       	call   1270 <get_input>
    43a7:	89 45 fc             	mov    DWORD PTR [rbp-0x4],eax
    43aa:	83 7d fc 6f          	cmp    DWORD PTR [rbp-0x4],0x6f
    43ae:	75 05                	jne    43b5 <main+0x309e>
    43b0:	e9 ef f5 ff ff       	jmp    39a4 <main+0x268d>
    43b5:	81 7d fc 62 01 00 00 	cmp    DWORD PTR [rbp-0x4],0x162
    43bc:	0f 84 df 4a 00 00    	je     8ea1 <main+0x7b8a>
    43c2:	48 8d 05 5f ac 00 00 	lea    rax,[rip+0xac5f]        # f028 <_IO_stdin_used+0x28>
    43c9:	48 89 c7             	mov    rdi,rax
    43cc:	e8 ef cc ff ff       	call   10c0 <puts@plt>
    43d1:	bf 01 00 00 00       	mov    edi,0x1
    43d6:	e8 55 cd ff ff       	call   1130 <exit@plt>
    43db:	be 8c 00 00 00       	mov    esi,0x8c
    43e0:	48 8d 05 32 ac 00 00 	lea    rax,[rip+0xac32]        # f019 <_IO_stdin_used+0x19>
    43e7:	48 89 c7             	mov    rdi,rax
    43ea:	b8 00 00 00 00       	mov    eax,0x0
    43ef:	e8 fc cc ff ff       	call   10f0 <printf@plt>
    43f4:	b8 00 00 00 00       	mov    eax,0x0
    43f9:	e8 72 ce ff ff       	call   1270 <get_input>
    43fe:	89 45 fc             	mov    DWORD PTR [rbp-0x4],eax
    4401:	83 7d fc 34          	cmp    DWORD PTR [rbp-0x4],0x34
    4405:	75 05                	jne    440c <main+0x30f5>
    4407:	e9 c0 e0 ff ff       	jmp    24cc <main+0x11b5>
    440c:	81 7d fc c8 00 00 00 	cmp    DWORD PTR [rbp-0x4],0xc8
    4413:	75 05                	jne    441a <main+0x3103>
    4415:	e9 c3 14 00 00       	jmp    58dd <main+0x45c6>
    441a:	48 8d 05 07 ac 00 00 	lea    rax,[rip+0xac07]        # f028 <_IO_stdin_used+0x28>
    4421:	48 89 c7             	mov    rdi,rax
    4424:	e8 97 cc ff ff       	call   10c0 <puts@plt>
    4429:	bf 01 00 00 00       	mov    edi,0x1
    442e:	e8 fd cc ff ff       	call   1130 <exit@plt>
    4433:	be 8d 00 00 00       	mov    esi,0x8d
    4438:	48 8d 05 da ab 00 00 	lea    rax,[rip+0xabda]        # f019 <_IO_stdin_used+0x19>
    443f:	48 89 c7             	mov    rdi,rax
    4442:	b8 00 00 00 00       	mov    eax,0x0
    4447:	e8 a4 cc ff ff       	call   10f0 <printf@plt>
    444c:	b8 00 00 00 00       	mov    eax,0x0
    4451:	e8 1a ce ff ff       	call   1270 <get_input>
    4456:	89 45 fc             	mov    DWORD PTR [rbp-0x4],eax
    4459:	83 7d fc 39          	cmp    DWORD PTR [rbp-0x4],0x39
    445d:	0f 84 11 e2 ff ff    	je     2674 <main+0x135d>
    4463:	81 7d fc d2 00 00 00 	cmp    DWORD PTR [rbp-0x4],0xd2
    446a:	75 05                	jne    4471 <main+0x315a>
    446c:	e9 e1 17 00 00       	jmp    5c52 <main+0x493b>
    4471:	48 8d 05 b0 ab 00 00 	lea    rax,[rip+0xabb0]        # f028 <_IO_stdin_used+0x28>
    4478:	48 89 c7             	mov    rdi,rax
    447b:	e8 40 cc ff ff       	call   10c0 <puts@plt>
    4480:	bf 01 00 00 00       	mov    edi,0x1
    4485:	e8 a6 cc ff ff       	call   1130 <exit@plt>
    448a:	be 8e 00 00 00       	mov    esi,0x8e
    448f:	48 8d 05 83 ab 00 00 	lea    rax,[rip+0xab83]        # f019 <_IO_stdin_used+0x19>
    4496:	48 89 c7             	mov    rdi,rax
    4499:	b8 00 00 00 00       	mov    eax,0x0
    449e:	e8 4d cc ff ff       	call   10f0 <printf@plt>
    44a3:	b8 00 00 00 00       	mov    eax,0x0
    44a8:	e8 c3 cd ff ff       	call   1270 <get_input>
    44ad:	89 45 fc             	mov    DWORD PTR [rbp-0x4],eax
    44b0:	81 7d fc 61 01 00 00 	cmp    DWORD PTR [rbp-0x4],0x161
    44b7:	75 05                	jne    44be <main+0x31a7>
    44b9:	e9 7b 49 00 00       	jmp    8e39 <main+0x7b22>
    44be:	81 7d fc da 00 00 00 	cmp    DWORD PTR [rbp-0x4],0xda
    44c5:	0f 84 4e 1a 00 00    	je     5f19 <main+0x4c02>
    44cb:	81 7d fc 64 01 00 00 	cmp    DWORD PTR [rbp-0x4],0x164
    44d2:	75 05                	jne    44d9 <main+0x31c2>
    44d4:	e9 64 4a 00 00       	jmp    8f3d <main+0x7c26>
    44d9:	81 7d fc 2b 02 00 00 	cmp    DWORD PTR [rbp-0x4],0x22b
    44e0:	75 05                	jne    44e7 <main+0x31d0>
    44e2:	e9 be 8f 00 00       	jmp    d4a5 <main+0xc18e>
    44e7:	48 8d 05 3a ab 00 00 	lea    rax,[rip+0xab3a]        # f028 <_IO_stdin_used+0x28>
    44ee:	48 89 c7             	mov    rdi,rax
    44f1:	e8 ca cb ff ff       	call   10c0 <puts@plt>
    44f6:	bf 01 00 00 00       	mov    edi,0x1
    44fb:	e8 30 cc ff ff       	call   1130 <exit@plt>
    4500:	be 8f 00 00 00       	mov    esi,0x8f
    4505:	48 8d 05 0d ab 00 00 	lea    rax,[rip+0xab0d]        # f019 <_IO_stdin_used+0x19>
    450c:	48 89 c7             	mov    rdi,rax
    450f:	b8 00 00 00 00       	mov    eax,0x0
    4514:	e8 d7 cb ff ff       	call   10f0 <printf@plt>
    4519:	b8 00 00 00 00       	mov    eax,0x0
    451e:	e8 4d cd ff ff       	call   1270 <get_input>
    4523:	89 45 fc             	mov    DWORD PTR [rbp-0x4],eax
    4526:	81 7d fc bb 01 00 00 	cmp    DWORD PTR [rbp-0x4],0x1bb
    452d:	0f 84 c4 68 00 00    	je     adf7 <main+0x9ae0>
    4533:	81 7d fc a1 00 00 00 	cmp    DWORD PTR [rbp-0x4],0xa1
    453a:	75 05                	jne    4541 <main+0x322a>
    453c:	e9 16 06 00 00       	jmp    4b57 <main+0x3840>
    4541:	81 7d fc ac 01 00 00 	cmp    DWORD PTR [rbp-0x4],0x1ac
    4548:	0f 84 b4 63 00 00    	je     a902 <main+0x95eb>
    454e:	81 7d fc e3 01 00 00 	cmp    DWORD PTR [rbp-0x4],0x1e3
    4555:	75 05                	jne    455c <main+0x3245>
    4557:	e9 7c 76 00 00       	jmp    bbd8 <main+0xa8c1>
    455c:	48 8d 05 c5 aa 00 00 	lea    rax,[rip+0xaac5]        # f028 <_IO_stdin_used+0x28>
    4563:	48 89 c7             	mov    rdi,rax
    4566:	e8 55 cb ff ff       	call   10c0 <puts@plt>
    456b:	bf 01 00 00 00       	mov    edi,0x1
    4570:	e8 bb cb ff ff       	call   1130 <exit@plt>
    4575:	be 90 00 00 00       	mov    esi,0x90
    457a:	48 8d 05 98 aa 00 00 	lea    rax,[rip+0xaa98]        # f019 <_IO_stdin_used+0x19>
    4581:	48 89 c7             	mov    rdi,rax
    4584:	b8 00 00 00 00       	mov    eax,0x0
    4589:	e8 62 cb ff ff       	call   10f0 <printf@plt>
    458e:	b8 00 00 00 00       	mov    eax,0x0
    4593:	e8 d8 cc ff ff       	call   1270 <get_input>
    4598:	89 45 fc             	mov    DWORD PTR [rbp-0x4],eax
    459b:	81 7d fc 22 01 00 00 	cmp    DWORD PTR [rbp-0x4],0x122
    45a2:	75 05                	jne    45a9 <main+0x3292>
    45a4:	e9 75 32 00 00       	jmp    781e <main+0x6507>
    45a9:	81 7d fc 95 00 00 00 	cmp    DWORD PTR [rbp-0x4],0x95
    45b0:	75 05                	jne    45b7 <main+0x32a0>
    45b2:	e9 4e 01 00 00       	jmp    4705 <main+0x33ee>
    45b7:	48 8d 05 6a aa 00 00 	lea    rax,[rip+0xaa6a]        # f028 <_IO_stdin_used+0x28>
    45be:	48 89 c7             	mov    rdi,rax
    45c1:	e8 fa ca ff ff       	call   10c0 <puts@plt>
    45c6:	bf 01 00 00 00       	mov    edi,0x1
    45cb:	e8 60 cb ff ff       	call   1130 <exit@plt>
    45d0:	90                   	nop
    45d1:	be 91 00 00 00       	mov    esi,0x91
    45d6:	48 8d 05 3c aa 00 00 	lea    rax,[rip+0xaa3c]        # f019 <_IO_stdin_used+0x19>
    45dd:	48 89 c7             	mov    rdi,rax
    45e0:	b8 00 00 00 00       	mov    eax,0x0
    45e5:	e8 06 cb ff ff       	call   10f0 <printf@plt>
    45ea:	b8 00 00 00 00       	mov    eax,0x0
    45ef:	e8 7c cc ff ff       	call   1270 <get_input>
    45f4:	89 45 fc             	mov    DWORD PTR [rbp-0x4],eax
    45f7:	81 7d fc 5d 01 00 00 	cmp    DWORD PTR [rbp-0x4],0x15d
    45fe:	75 05                	jne    4605 <main+0x32ee>
    4600:	e9 dc 46 00 00       	jmp    8ce1 <main+0x79ca>
    4605:	48 8d 05 1c aa 00 00 	lea    rax,[rip+0xaa1c]        # f028 <_IO_stdin_used+0x28>
    460c:	48 89 c7             	mov    rdi,rax
    460f:	e8 ac ca ff ff       	call   10c0 <puts@plt>
    4614:	bf 01 00 00 00       	mov    edi,0x1
    4619:	e8 12 cb ff ff       	call   1130 <exit@plt>
    461e:	90                   	nop
    461f:	be 92 00 00 00       	mov    esi,0x92
    4624:	48 8d 05 ee a9 00 00 	lea    rax,[rip+0xa9ee]        # f019 <_IO_stdin_used+0x19>
    462b:	48 89 c7             	mov    rdi,rax
    462e:	b8 00 00 00 00       	mov    eax,0x0
    4633:	e8 b8 ca ff ff       	call   10f0 <printf@plt>
    4638:	b8 00 00 00 00       	mov    eax,0x0
    463d:	e8 2e cc ff ff       	call   1270 <get_input>
    4642:	89 45 fc             	mov    DWORD PTR [rbp-0x4],eax
    4645:	81 7d fc 82 00 00 00 	cmp    DWORD PTR [rbp-0x4],0x82
    464c:	75 05                	jne    4653 <main+0x333c>
    464e:	e9 26 fa ff ff       	jmp    4079 <main+0x2d62>
    4653:	48 8d 05 ce a9 00 00 	lea    rax,[rip+0xa9ce]        # f028 <_IO_stdin_used+0x28>
    465a:	48 89 c7             	mov    rdi,rax
    465d:	e8 5e ca ff ff       	call   10c0 <puts@plt>
    4662:	bf 01 00 00 00       	mov    edi,0x1
    4667:	e8 c4 ca ff ff       	call   1130 <exit@plt>
    466c:	90                   	nop
    466d:	be 93 00 00 00       	mov    esi,0x93
    4672:	48 8d 05 a0 a9 00 00 	lea    rax,[rip+0xa9a0]        # f019 <_IO_stdin_used+0x19>
    4679:	48 89 c7             	mov    rdi,rax
    467c:	b8 00 00 00 00       	mov    eax,0x0
    4681:	e8 6a ca ff ff       	call   10f0 <printf@plt>
    4686:	b8 00 00 00 00       	mov    eax,0x0
    468b:	e8 e0 cb ff ff       	call   1270 <get_input>
    4690:	89 45 fc             	mov    DWORD PTR [rbp-0x4],eax
    4693:	81 7d fc 80 01 00 00 	cmp    DWORD PTR [rbp-0x4],0x180
    469a:	75 05                	jne    46a1 <main+0x338a>
    469c:	e9 74 52 00 00       	jmp    9915 <main+0x85fe>
    46a1:	48 8d 05 80 a9 00 00 	lea    rax,[rip+0xa980]        # f028 <_IO_stdin_used+0x28>
    46a8:	48 89 c7             	mov    rdi,rax
    46ab:	e8 10 ca ff ff       	call   10c0 <puts@plt>
    46b0:	bf 01 00 00 00       	mov    edi,0x1
    46b5:	e8 76 ca ff ff       	call   1130 <exit@plt>
    46ba:	90                   	nop
    46bb:	be 94 00 00 00       	mov    esi,0x94
    46c0:	48 8d 05 52 a9 00 00 	lea    rax,[rip+0xa952]        # f019 <_IO_stdin_used+0x19>
    46c7:	48 89 c7             	mov    rdi,rax
    46ca:	b8 00 00 00 00       	mov    eax,0x0
    46cf:	e8 1c ca ff ff       	call   10f0 <printf@plt>
    46d4:	b8 00 00 00 00       	mov    eax,0x0
    46d9:	e8 92 cb ff ff       	call   1270 <get_input>
    46de:	89 45 fc             	mov    DWORD PTR [rbp-0x4],eax
    46e1:	83 7d fc 74          	cmp    DWORD PTR [rbp-0x4],0x74
    46e5:	75 05                	jne    46ec <main+0x33d5>
    46e7:	e9 8e f4 ff ff       	jmp    3b7a <main+0x2863>
    46ec:	48 8d 05 35 a9 00 00 	lea    rax,[rip+0xa935]        # f028 <_IO_stdin_used+0x28>
    46f3:	48 89 c7             	mov    rdi,rax
    46f6:	e8 c5 c9 ff ff       	call   10c0 <puts@plt>
    46fb:	bf 01 00 00 00       	mov    edi,0x1
    4700:	e8 2b ca ff ff       	call   1130 <exit@plt>
    4705:	be 95 00 00 00       	mov    esi,0x95
    470a:	48 8d 05 08 a9 00 00 	lea    rax,[rip+0xa908]        # f019 <_IO_stdin_used+0x19>
    4711:	48 89 c7             	mov    rdi,rax
    4714:	b8 00 00 00 00       	mov    eax,0x0
    4719:	e8 d2 c9 ff ff       	call   10f0 <printf@plt>
    471e:	b8 00 00 00 00       	mov    eax,0x0
    4723:	e8 48 cb ff ff       	call   1270 <get_input>
    4728:	89 45 fc             	mov    DWORD PTR [rbp-0x4],eax
    472b:	81 7d fc 90 00 00 00 	cmp    DWORD PTR [rbp-0x4],0x90
    4732:	75 05                	jne    4739 <main+0x3422>
    4734:	e9 3c fe ff ff       	jmp    4575 <main+0x325e>
    4739:	81 7d fc c0 01 00 00 	cmp    DWORD PTR [rbp-0x4],0x1c0
    4740:	75 05                	jne    4747 <main+0x3430>
    4742:	e9 60 68 00 00       	jmp    afa7 <main+0x9c90>
    4747:	48 8d 05 da a8 00 00 	lea    rax,[rip+0xa8da]        # f028 <_IO_stdin_used+0x28>
    474e:	48 89 c7             	mov    rdi,rax
    4751:	e8 6a c9 ff ff       	call   10c0 <puts@plt>
    4756:	bf 01 00 00 00       	mov    edi,0x1
    475b:	e8 d0 c9 ff ff       	call   1130 <exit@plt>
    4760:	be 96 00 00 00       	mov    esi,0x96
    4765:	48 8d 05 ad a8 00 00 	lea    rax,[rip+0xa8ad]        # f019 <_IO_stdin_used+0x19>
    476c:	48 89 c7             	mov    rdi,rax
    476f:	b8 00 00 00 00       	mov    eax,0x0
    4774:	e8 77 c9 ff ff       	call   10f0 <printf@plt>
    4779:	b8 00 00 00 00       	mov    eax,0x0
    477e:	e8 ed ca ff ff       	call   1270 <get_input>
    4783:	89 45 fc             	mov    DWORD PTR [rbp-0x4],eax
    4786:	83 7d fc 3a          	cmp    DWORD PTR [rbp-0x4],0x3a
    478a:	75 05                	jne    4791 <main+0x347a>
    478c:	e9 31 df ff ff       	jmp    26c2 <main+0x13ab>
    4791:	81 7d fc ee 00 00 00 	cmp    DWORD PTR [rbp-0x4],0xee
    4798:	75 05                	jne    479f <main+0x3488>
    479a:	e9 68 1e 00 00       	jmp    6607 <main+0x52f0>
    479f:	81 7d fc 80 00 00 00 	cmp    DWORD PTR [rbp-0x4],0x80
    47a6:	75 05                	jne    47ad <main+0x3496>
    47a8:	e9 19 f8 ff ff       	jmp    3fc6 <main+0x2caf>
    47ad:	48 8d 05 74 a8 00 00 	lea    rax,[rip+0xa874]        # f028 <_IO_stdin_used+0x28>
    47b4:	48 89 c7             	mov    rdi,rax
    47b7:	e8 04 c9 ff ff       	call   10c0 <puts@plt>
    47bc:	bf 01 00 00 00       	mov    edi,0x1
    47c1:	e8 6a c9 ff ff       	call   1130 <exit@plt>
    47c6:	be 97 00 00 00       	mov    esi,0x97
    47cb:	48 8d 05 47 a8 00 00 	lea    rax,[rip+0xa847]        # f019 <_IO_stdin_used+0x19>
    47d2:	48 89 c7             	mov    rdi,rax
    47d5:	b8 00 00 00 00       	mov    eax,0x0
    47da:	e8 11 c9 ff ff       	call   10f0 <printf@plt>
    47df:	b8 00 00 00 00       	mov    eax,0x0
    47e4:	e8 87 ca ff ff       	call   1270 <get_input>
    47e9:	89 45 fc             	mov    DWORD PTR [rbp-0x4],eax
    47ec:	81 7d fc 22 02 00 00 	cmp    DWORD PTR [rbp-0x4],0x222
    47f3:	75 05                	jne    47fa <main+0x34e3>
    47f5:	e9 73 89 00 00       	jmp    d16d <main+0xbe56>
    47fa:	81 7d fc 83 01 00 00 	cmp    DWORD PTR [rbp-0x4],0x183
    4801:	75 05                	jne    4808 <main+0x34f1>
    4803:	e9 1b 52 00 00       	jmp    9a23 <main+0x870c>
    4808:	48 8d 05 19 a8 00 00 	lea    rax,[rip+0xa819]        # f028 <_IO_stdin_used+0x28>
    480f:	48 89 c7             	mov    rdi,rax
    4812:	e8 a9 c8 ff ff       	call   10c0 <puts@plt>
    4817:	bf 01 00 00 00       	mov    edi,0x1
    481c:	e8 0f c9 ff ff       	call   1130 <exit@plt>
    4821:	be 98 00 00 00       	mov    esi,0x98
    4826:	48 8d 05 ec a7 00 00 	lea    rax,[rip+0xa7ec]        # f019 <_IO_stdin_used+0x19>
    482d:	48 89 c7             	mov    rdi,rax
    4830:	b8 00 00 00 00       	mov    eax,0x0
    4835:	e8 b6 c8 ff ff       	call   10f0 <printf@plt>
    483a:	b8 00 00 00 00       	mov    eax,0x0
    483f:	e8 2c ca ff ff       	call   1270 <get_input>
    4844:	89 45 fc             	mov    DWORD PTR [rbp-0x4],eax
    4847:	81 7d fc 26 01 00 00 	cmp    DWORD PTR [rbp-0x4],0x126
    484e:	75 05                	jne    4855 <main+0x353e>
    4850:	e9 20 31 00 00       	jmp    7975 <main+0x665e>
    4855:	81 7d fc 41 01 00 00 	cmp    DWORD PTR [rbp-0x4],0x141
    485c:	75 05                	jne    4863 <main+0x354c>
    485e:	e9 a5 3a 00 00       	jmp    8308 <main+0x6ff1>
    4863:	81 7d fc bc 00 00 00 	cmp    DWORD PTR [rbp-0x4],0xbc
    486a:	75 05                	jne    4871 <main+0x355a>
    486c:	e9 38 0c 00 00       	jmp    54a9 <main+0x4192>
    4871:	48 8d 05 b0 a7 00 00 	lea    rax,[rip+0xa7b0]        # f028 <_IO_stdin_used+0x28>
    4878:	48 89 c7             	mov    rdi,rax
    487b:	e8 40 c8 ff ff       	call   10c0 <puts@plt>
    4880:	bf 01 00 00 00       	mov    edi,0x1
    4885:	e8 a6 c8 ff ff       	call   1130 <exit@plt>
    488a:	be 99 00 00 00       	mov    esi,0x99
    488f:	48 8d 05 83 a7 00 00 	lea    rax,[rip+0xa783]        # f019 <_IO_stdin_used+0x19>
    4896:	48 89 c7             	mov    rdi,rax
    4899:	b8 00 00 00 00       	mov    eax,0x0
    489e:	e8 4d c8 ff ff       	call   10f0 <printf@plt>
    48a3:	b8 00 00 00 00       	mov    eax,0x0
    48a8:	e8 c3 c9 ff ff       	call   1270 <get_input>
    48ad:	89 45 fc             	mov    DWORD PTR [rbp-0x4],eax
    48b0:	81 7d fc e7 01 00 00 	cmp    DWORD PTR [rbp-0x4],0x1e7
    48b7:	75 05                	jne    48be <main+0x35a7>
    48b9:	e9 76 74 00 00       	jmp    bd34 <main+0xaa1d>
    48be:	81 7d fc 55 01 00 00 	cmp    DWORD PTR [rbp-0x4],0x155
    48c5:	0f 84 6f 41 00 00    	je     8a3a <main+0x7723>
    48cb:	81 7d fc 60 02 00 00 	cmp    DWORD PTR [rbp-0x4],0x260
    48d2:	75 05                	jne    48d9 <main+0x35c2>
    48d4:	e9 42 9f 00 00       	jmp    e81b <main+0xd504>
    48d9:	48 8d 05 48 a7 00 00 	lea    rax,[rip+0xa748]        # f028 <_IO_stdin_used+0x28>
    48e0:	48 89 c7             	mov    rdi,rax
    48e3:	e8 d8 c7 ff ff       	call   10c0 <puts@plt>
    48e8:	bf 01 00 00 00       	mov    edi,0x1
    48ed:	e8 3e c8 ff ff       	call   1130 <exit@plt>
    48f2:	be 9a 00 00 00       	mov    esi,0x9a
    48f7:	48 8d 05 1b a7 00 00 	lea    rax,[rip+0xa71b]        # f019 <_IO_stdin_used+0x19>
    48fe:	48 89 c7             	mov    rdi,rax
    4901:	b8 00 00 00 00       	mov    eax,0x0
    4906:	e8 e5 c7 ff ff       	call   10f0 <printf@plt>
    490b:	b8 00 00 00 00       	mov    eax,0x0
    4910:	e8 5b c9 ff ff       	call   1270 <get_input>
    4915:	89 45 fc             	mov    DWORD PTR [rbp-0x4],eax
    4918:	81 7d fc a5 01 00 00 	cmp    DWORD PTR [rbp-0x4],0x1a5
    491f:	75 05                	jne    4926 <main+0x360f>
    4921:	e9 3e 5d 00 00       	jmp    a664 <main+0x934d>
    4926:	83 7d fc 53          	cmp    DWORD PTR [rbp-0x4],0x53
    492a:	75 05                	jne    4931 <main+0x361a>
    492c:	e9 85 e6 ff ff       	jmp    2fb6 <main+0x1c9f>
    4931:	81 7d fc d9 00 00 00 	cmp    DWORD PTR [rbp-0x4],0xd9
    4938:	75 05                	jne    493f <main+0x3628>
    493a:	e9 72 15 00 00       	jmp    5eb1 <main+0x4b9a>
    493f:	48 8d 05 e2 a6 00 00 	lea    rax,[rip+0xa6e2]        # f028 <_IO_stdin_used+0x28>
    4946:	48 89 c7             	mov    rdi,rax
    4949:	e8 72 c7 ff ff       	call   10c0 <puts@plt>
    494e:	bf 01 00 00 00       	mov    edi,0x1
    4953:	e8 d8 c7 ff ff       	call   1130 <exit@plt>
    4958:	90                   	nop
    4959:	be 9b 00 00 00       	mov    esi,0x9b
    495e:	48 8d 05 b4 a6 00 00 	lea    rax,[rip+0xa6b4]        # f019 <_IO_stdin_used+0x19>
    4965:	48 89 c7             	mov    rdi,rax
    4968:	b8 00 00 00 00       	mov    eax,0x0
    496d:	e8 7e c7 ff ff       	call   10f0 <printf@plt>
    4972:	b8 00 00 00 00       	mov    eax,0x0
    4977:	e8 f4 c8 ff ff       	call   1270 <get_input>
    497c:	89 45 fc             	mov    DWORD PTR [rbp-0x4],eax
    497f:	83 7d fc 44          	cmp    DWORD PTR [rbp-0x4],0x44
    4983:	75 05                	jne    498a <main+0x3673>
    4985:	e9 b3 e0 ff ff       	jmp    2a3d <main+0x1726>
    498a:	48 8d 05 97 a6 00 00 	lea    rax,[rip+0xa697]        # f028 <_IO_stdin_used+0x28>
    4991:	48 89 c7             	mov    rdi,rax
    4994:	e8 27 c7 ff ff       	call   10c0 <puts@plt>
    4999:	bf 01 00 00 00       	mov    edi,0x1
    499e:	e8 8d c7 ff ff       	call   1130 <exit@plt>
    49a3:	90                   	nop
    49a4:	be 9c 00 00 00       	mov    esi,0x9c
    49a9:	48 8d 05 69 a6 00 00 	lea    rax,[rip+0xa669]        # f019 <_IO_stdin_used+0x19>
    49b0:	48 89 c7             	mov    rdi,rax
    49b3:	b8 00 00 00 00       	mov    eax,0x0
    49b8:	e8 33 c7 ff ff       	call   10f0 <printf@plt>
    49bd:	b8 00 00 00 00       	mov    eax,0x0
    49c2:	e8 a9 c8 ff ff       	call   1270 <get_input>
    49c7:	89 45 fc             	mov    DWORD PTR [rbp-0x4],eax
    49ca:	81 7d fc 54 01 00 00 	cmp    DWORD PTR [rbp-0x4],0x154
    49d1:	75 05                	jne    49d8 <main+0x36c1>
    49d3:	e9 fb 3f 00 00       	jmp    89d3 <main+0x76bc>
    49d8:	48 8d 05 49 a6 00 00 	lea    rax,[rip+0xa649]        # f028 <_IO_stdin_used+0x28>
    49df:	48 89 c7             	mov    rdi,rax
    49e2:	e8 d9 c6 ff ff       	call   10c0 <puts@plt>
    49e7:	bf 01 00 00 00       	mov    edi,0x1
    49ec:	e8 3f c7 ff ff       	call   1130 <exit@plt>
    49f1:	be 9d 00 00 00       	mov    esi,0x9d
    49f6:	48 8d 05 1c a6 00 00 	lea    rax,[rip+0xa61c]        # f019 <_IO_stdin_used+0x19>
    49fd:	48 89 c7             	mov    rdi,rax
    4a00:	b8 00 00 00 00       	mov    eax,0x0
    4a05:	e8 e6 c6 ff ff       	call   10f0 <printf@plt>
    4a0a:	b8 00 00 00 00       	mov    eax,0x0
    4a0f:	e8 5c c8 ff ff       	call   1270 <get_input>
    4a14:	89 45 fc             	mov    DWORD PTR [rbp-0x4],eax
    4a17:	81 7d fc d1 01 00 00 	cmp    DWORD PTR [rbp-0x4],0x1d1
    4a1e:	75 05                	jne    4a25 <main+0x370e>
    4a20:	e9 6c 6b 00 00       	jmp    b591 <main+0xa27a>
    4a25:	81 7d fc c0 01 00 00 	cmp    DWORD PTR [rbp-0x4],0x1c0
    4a2c:	75 05                	jne    4a33 <main+0x371c>
    4a2e:	e9 74 65 00 00       	jmp    afa7 <main+0x9c90>
    4a33:	48 8d 05 ee a5 00 00 	lea    rax,[rip+0xa5ee]        # f028 <_IO_stdin_used+0x28>
    4a3a:	48 89 c7             	mov    rdi,rax
    4a3d:	e8 7e c6 ff ff       	call   10c0 <puts@plt>
    4a42:	bf 01 00 00 00       	mov    edi,0x1
    4a47:	e8 e4 c6 ff ff       	call   1130 <exit@plt>
    4a4c:	be 9e 00 00 00       	mov    esi,0x9e
    4a51:	48 8d 05 c1 a5 00 00 	lea    rax,[rip+0xa5c1]        # f019 <_IO_stdin_used+0x19>
    4a58:	48 89 c7             	mov    rdi,rax
    4a5b:	b8 00 00 00 00       	mov    eax,0x0
    4a60:	e8 8b c6 ff ff       	call   10f0 <printf@plt>
    4a65:	b8 00 00 00 00       	mov    eax,0x0
    4a6a:	e8 01 c8 ff ff       	call   1270 <get_input>
    4a6f:	89 45 fc             	mov    DWORD PTR [rbp-0x4],eax
    4a72:	81 7d fc 0a 01 00 00 	cmp    DWORD PTR [rbp-0x4],0x10a
    4a79:	75 05                	jne    4a80 <main+0x3769>
    4a7b:	e9 42 25 00 00       	jmp    6fc2 <main+0x5cab>
    4a80:	83 7d fc 28          	cmp    DWORD PTR [rbp-0x4],0x28
    4a84:	75 05                	jne    4a8b <main+0x3774>
    4a86:	e9 66 d6 ff ff       	jmp    20f1 <main+0xdda>
    4a8b:	48 8d 05 96 a5 00 00 	lea    rax,[rip+0xa596]        # f028 <_IO_stdin_used+0x28>
    4a92:	48 89 c7             	mov    rdi,rax
    4a95:	e8 26 c6 ff ff       	call   10c0 <puts@plt>
    4a9a:	bf 01 00 00 00       	mov    edi,0x1
    4a9f:	e8 8c c6 ff ff       	call   1130 <exit@plt>
    4aa4:	be 9f 00 00 00       	mov    esi,0x9f
    4aa9:	48 8d 05 69 a5 00 00 	lea    rax,[rip+0xa569]        # f019 <_IO_stdin_used+0x19>
    4ab0:	48 89 c7             	mov    rdi,rax
    4ab3:	b8 00 00 00 00       	mov    eax,0x0
    4ab8:	e8 33 c6 ff ff       	call   10f0 <printf@plt>
    4abd:	b8 00 00 00 00       	mov    eax,0x0
    4ac2:	e8 a9 c7 ff ff       	call   1270 <get_input>
    4ac7:	89 45 fc             	mov    DWORD PTR [rbp-0x4],eax
    4aca:	81 7d fc db 01 00 00 	cmp    DWORD PTR [rbp-0x4],0x1db
    4ad1:	75 05                	jne    4ad8 <main+0x37c1>
    4ad3:	e9 45 6e 00 00       	jmp    b91d <main+0xa606>
    4ad8:	81 7d fc 37 02 00 00 	cmp    DWORD PTR [rbp-0x4],0x237
    4adf:	75 05                	jne    4ae6 <main+0x37cf>
    4ae1:	e9 46 8e 00 00       	jmp    d92c <main+0xc615>
    4ae6:	48 8d 05 3b a5 00 00 	lea    rax,[rip+0xa53b]        # f028 <_IO_stdin_used+0x28>
    4aed:	48 89 c7             	mov    rdi,rax
    4af0:	e8 cb c5 ff ff       	call   10c0 <puts@plt>
    4af5:	bf 01 00 00 00       	mov    edi,0x1
    4afa:	e8 31 c6 ff ff       	call   1130 <exit@plt>
    4aff:	be a0 00 00 00       	mov    esi,0xa0
    4b04:	48 8d 05 0e a5 00 00 	lea    rax,[rip+0xa50e]        # f019 <_IO_stdin_used+0x19>
    4b0b:	48 89 c7             	mov    rdi,rax
    4b0e:	b8 00 00 00 00       	mov    eax,0x0
    4b13:	e8 d8 c5 ff ff       	call   10f0 <printf@plt>
    4b18:	b8 00 00 00 00       	mov    eax,0x0
    4b1d:	e8 4e c7 ff ff       	call   1270 <get_input>
    4b22:	89 45 fc             	mov    DWORD PTR [rbp-0x4],eax
    4b25:	83 7d fc 19          	cmp    DWORD PTR [rbp-0x4],0x19
    4b29:	75 05                	jne    4b30 <main+0x3819>
    4b2b:	e9 84 d0 ff ff       	jmp    1bb4 <main+0x89d>
    4b30:	81 7d fc cd 00 00 00 	cmp    DWORD PTR [rbp-0x4],0xcd
    4b37:	75 05                	jne    4b3e <main+0x3827>
    4b39:	e9 5e 0f 00 00       	jmp    5a9c <main+0x4785>
    4b3e:	48 8d 05 e3 a4 00 00 	lea    rax,[rip+0xa4e3]        # f028 <_IO_stdin_used+0x28>
    4b45:	48 89 c7             	mov    rdi,rax
    4b48:	e8 73 c5 ff ff       	call   10c0 <puts@plt>
    4b4d:	bf 01 00 00 00       	mov    edi,0x1
    4b52:	e8 d9 c5 ff ff       	call   1130 <exit@plt>
    4b57:	be a1 00 00 00       	mov    esi,0xa1
    4b5c:	48 8d 05 b6 a4 00 00 	lea    rax,[rip+0xa4b6]        # f019 <_IO_stdin_used+0x19>
    4b63:	48 89 c7             	mov    rdi,rax
    4b66:	b8 00 00 00 00       	mov    eax,0x0
    4b6b:	e8 80 c5 ff ff       	call   10f0 <printf@plt>
    4b70:	b8 00 00 00 00       	mov    eax,0x0
    4b75:	e8 f6 c6 ff ff       	call   1270 <get_input>
    4b7a:	89 45 fc             	mov    DWORD PTR [rbp-0x4],eax
    4b7d:	81 7d fc 8f 00 00 00 	cmp    DWORD PTR [rbp-0x4],0x8f
    4b84:	75 05                	jne    4b8b <main+0x3874>
    4b86:	e9 75 f9 ff ff       	jmp    4500 <main+0x31e9>
    4b8b:	81 7d fc 8f 01 00 00 	cmp    DWORD PTR [rbp-0x4],0x18f
    4b92:	75 05                	jne    4b99 <main+0x3882>
    4b94:	e9 e6 52 00 00       	jmp    9e7f <main+0x8b68>
    4b99:	48 8d 05 88 a4 00 00 	lea    rax,[rip+0xa488]        # f028 <_IO_stdin_used+0x28>
    4ba0:	48 89 c7             	mov    rdi,rax
    4ba3:	e8 18 c5 ff ff       	call   10c0 <puts@plt>
    4ba8:	bf 01 00 00 00       	mov    edi,0x1
    4bad:	e8 7e c5 ff ff       	call   1130 <exit@plt>
    4bb2:	90                   	nop
    4bb3:	be a2 00 00 00       	mov    esi,0xa2
    4bb8:	48 8d 05 5a a4 00 00 	lea    rax,[rip+0xa45a]        # f019 <_IO_stdin_used+0x19>
    4bbf:	48 89 c7             	mov    rdi,rax
    4bc2:	b8 00 00 00 00       	mov    eax,0x0
    4bc7:	e8 24 c5 ff ff       	call   10f0 <printf@plt>
    4bcc:	b8 00 00 00 00       	mov    eax,0x0
    4bd1:	e8 9a c6 ff ff       	call   1270 <get_input>
    4bd6:	89 45 fc             	mov    DWORD PTR [rbp-0x4],eax
    4bd9:	81 7d fc ac 00 00 00 	cmp    DWORD PTR [rbp-0x4],0xac
    4be0:	75 05                	jne    4be7 <main+0x38d0>
    4be2:	e9 34 03 00 00       	jmp    4f1b <main+0x3c04>
    4be7:	48 8d 05 3a a4 00 00 	lea    rax,[rip+0xa43a]        # f028 <_IO_stdin_used+0x28>
    4bee:	48 89 c7             	mov    rdi,rax
    4bf1:	e8 ca c4 ff ff       	call   10c0 <puts@plt>
    4bf6:	bf 01 00 00 00       	mov    edi,0x1
    4bfb:	e8 30 c5 ff ff       	call   1130 <exit@plt>
    4c00:	be a3 00 00 00       	mov    esi,0xa3
    4c05:	48 8d 05 0d a4 00 00 	lea    rax,[rip+0xa40d]        # f019 <_IO_stdin_used+0x19>
    4c0c:	48 89 c7             	mov    rdi,rax
    4c0f:	b8 00 00 00 00       	mov    eax,0x0
    4c14:	e8 d7 c4 ff ff       	call   10f0 <printf@plt>
    4c19:	b8 00 00 00 00       	mov    eax,0x0
    4c1e:	e8 4d c6 ff ff       	call   1270 <get_input>
    4c23:	89 45 fc             	mov    DWORD PTR [rbp-0x4],eax
    4c26:	83 7d fc 55          	cmp    DWORD PTR [rbp-0x4],0x55
    4c2a:	75 05                	jne    4c31 <main+0x391a>
    4c2c:	e9 35 e4 ff ff       	jmp    3066 <main+0x1d4f>
    4c31:	81 7d fc 32 02 00 00 	cmp    DWORD PTR [rbp-0x4],0x232
    4c38:	75 05                	jne    4c3f <main+0x3928>
    4c3a:	e9 09 8b 00 00       	jmp    d748 <main+0xc431>
    4c3f:	48 8d 05 e2 a3 00 00 	lea    rax,[rip+0xa3e2]        # f028 <_IO_stdin_used+0x28>
    4c46:	48 89 c7             	mov    rdi,rax
    4c49:	e8 72 c4 ff ff       	call   10c0 <puts@plt>
    4c4e:	bf 01 00 00 00       	mov    edi,0x1
    4c53:	e8 d8 c4 ff ff       	call   1130 <exit@plt>
    4c58:	90                   	nop
    4c59:	be a4 00 00 00       	mov    esi,0xa4
    4c5e:	48 8d 05 b4 a3 00 00 	lea    rax,[rip+0xa3b4]        # f019 <_IO_stdin_used+0x19>
    4c65:	48 89 c7             	mov    rdi,rax
    4c68:	b8 00 00 00 00       	mov    eax,0x0
    4c6d:	e8 7e c4 ff ff       	call   10f0 <printf@plt>
    4c72:	b8 00 00 00 00       	mov    eax,0x0
    4c77:	e8 f4 c5 ff ff       	call   1270 <get_input>
    4c7c:	89 45 fc             	mov    DWORD PTR [rbp-0x4],eax
    4c7f:	83 7d fc 0c          	cmp    DWORD PTR [rbp-0x4],0xc
    4c83:	75 05                	jne    4c8a <main+0x3973>
    4c85:	e9 a2 ca ff ff       	jmp    172c <main+0x415>
    4c8a:	48 8d 05 97 a3 00 00 	lea    rax,[rip+0xa397]        # f028 <_IO_stdin_used+0x28>
    4c91:	48 89 c7             	mov    rdi,rax
    4c94:	e8 27 c4 ff ff       	call   10c0 <puts@plt>
    4c99:	bf 01 00 00 00       	mov    edi,0x1
    4c9e:	e8 8d c4 ff ff       	call   1130 <exit@plt>
    4ca3:	be a5 00 00 00       	mov    esi,0xa5
    4ca8:	48 8d 05 6a a3 00 00 	lea    rax,[rip+0xa36a]        # f019 <_IO_stdin_used+0x19>
    4caf:	48 89 c7             	mov    rdi,rax
    4cb2:	b8 00 00 00 00       	mov    eax,0x0
    4cb7:	e8 34 c4 ff ff       	call   10f0 <printf@plt>
    4cbc:	b8 00 00 00 00       	mov    eax,0x0
    4cc1:	e8 aa c5 ff ff       	call   1270 <get_input>
    4cc6:	89 45 fc             	mov    DWORD PTR [rbp-0x4],eax
    4cc9:	81 7d fc 4f 02 00 00 	cmp    DWORD PTR [rbp-0x4],0x24f
    4cd0:	75 05                	jne    4cd7 <main+0x39c0>
    4cd2:	e9 12 95 00 00       	jmp    e1e9 <main+0xced2>
    4cd7:	81 7d fc ad 00 00 00 	cmp    DWORD PTR [rbp-0x4],0xad
    4cde:	75 05                	jne    4ce5 <main+0x39ce>
    4ce0:	e9 90 02 00 00       	jmp    4f75 <main+0x3c5e>
    4ce5:	48 8d 05 3c a3 00 00 	lea    rax,[rip+0xa33c]        # f028 <_IO_stdin_used+0x28>
    4cec:	48 89 c7             	mov    rdi,rax
    4cef:	e8 cc c3 ff ff       	call   10c0 <puts@plt>
    4cf4:	bf 01 00 00 00       	mov    edi,0x1
    4cf9:	e8 32 c4 ff ff       	call   1130 <exit@plt>
    4cfe:	90                   	nop
    4cff:	be a6 00 00 00       	mov    esi,0xa6
    4d04:	48 8d 05 0e a3 00 00 	lea    rax,[rip+0xa30e]        # f019 <_IO_stdin_used+0x19>
    4d0b:	48 89 c7             	mov    rdi,rax
    4d0e:	b8 00 00 00 00       	mov    eax,0x0
    4d13:	e8 d8 c3 ff ff       	call   10f0 <printf@plt>
    4d18:	b8 00 00 00 00       	mov    eax,0x0
    4d1d:	e8 4e c5 ff ff       	call   1270 <get_input>
    4d22:	89 45 fc             	mov    DWORD PTR [rbp-0x4],eax
    4d25:	83 7d fc 4d          	cmp    DWORD PTR [rbp-0x4],0x4d
    4d29:	75 05                	jne    4d30 <main+0x3a19>
    4d2b:	e9 4f e0 ff ff       	jmp    2d7f <main+0x1a68>
    4d30:	48 8d 05 f1 a2 00 00 	lea    rax,[rip+0xa2f1]        # f028 <_IO_stdin_used+0x28>
    4d37:	48 89 c7             	mov    rdi,rax
    4d3a:	e8 81 c3 ff ff       	call   10c0 <puts@plt>
    4d3f:	bf 01 00 00 00       	mov    edi,0x1
    4d44:	e8 e7 c3 ff ff       	call   1130 <exit@plt>
    4d49:	90                   	nop
    4d4a:	be a7 00 00 00       	mov    esi,0xa7
    4d4f:	48 8d 05 c3 a2 00 00 	lea    rax,[rip+0xa2c3]        # f019 <_IO_stdin_used+0x19>
    4d56:	48 89 c7             	mov    rdi,rax
    4d59:	b8 00 00 00 00       	mov    eax,0x0
    4d5e:	e8 8d c3 ff ff       	call   10f0 <printf@plt>
    4d63:	b8 00 00 00 00       	mov    eax,0x0
    4d68:	e8 03 c5 ff ff       	call   1270 <get_input>
    4d6d:	89 45 fc             	mov    DWORD PTR [rbp-0x4],eax
    4d70:	81 7d fc 50 02 00 00 	cmp    DWORD PTR [rbp-0x4],0x250
    4d77:	75 05                	jne    4d7e <main+0x3a67>
    4d79:	e9 d3 94 00 00       	jmp    e251 <main+0xcf3a>
    4d7e:	48 8d 05 a3 a2 00 00 	lea    rax,[rip+0xa2a3]        # f028 <_IO_stdin_used+0x28>
    4d85:	48 89 c7             	mov    rdi,rax
    4d88:	e8 33 c3 ff ff       	call   10c0 <puts@plt>
    4d8d:	bf 01 00 00 00       	mov    edi,0x1
    4d92:	e8 99 c3 ff ff       	call   1130 <exit@plt>
    4d97:	be a8 00 00 00       	mov    esi,0xa8
    4d9c:	48 8d 05 76 a2 00 00 	lea    rax,[rip+0xa276]        # f019 <_IO_stdin_used+0x19>
    4da3:	48 89 c7             	mov    rdi,rax
    4da6:	b8 00 00 00 00       	mov    eax,0x0
    4dab:	e8 40 c3 ff ff       	call   10f0 <printf@plt>
    4db0:	b8 00 00 00 00       	mov    eax,0x0
    4db5:	e8 b6 c4 ff ff       	call   1270 <get_input>
    4dba:	89 45 fc             	mov    DWORD PTR [rbp-0x4],eax
    4dbd:	81 7d fc 10 02 00 00 	cmp    DWORD PTR [rbp-0x4],0x210
    4dc4:	75 05                	jne    4dcb <main+0x3ab4>
    4dc6:	e9 50 7d 00 00       	jmp    cb1b <main+0xb804>
    4dcb:	81 7d fc 12 02 00 00 	cmp    DWORD PTR [rbp-0x4],0x212
    4dd2:	75 05                	jne    4dd9 <main+0x3ac2>
    4dd4:	e9 05 7e 00 00       	jmp    cbde <main+0xb8c7>
    4dd9:	81 7d fc 5a 01 00 00 	cmp    DWORD PTR [rbp-0x4],0x15a
    4de0:	75 05                	jne    4de7 <main+0x3ad0>
    4de2:	e9 f7 3d 00 00       	jmp    8bde <main+0x78c7>
    4de7:	48 8d 05 3a a2 00 00 	lea    rax,[rip+0xa23a]        # f028 <_IO_stdin_used+0x28>
    4dee:	48 89 c7             	mov    rdi,rax
    4df1:	e8 ca c2 ff ff       	call   10c0 <puts@plt>
    4df6:	bf 01 00 00 00       	mov    edi,0x1
    4dfb:	e8 30 c3 ff ff       	call   1130 <exit@plt>
    4e00:	be a9 00 00 00       	mov    esi,0xa9
    4e05:	48 8d 05 0d a2 00 00 	lea    rax,[rip+0xa20d]        # f019 <_IO_stdin_used+0x19>
    4e0c:	48 89 c7             	mov    rdi,rax
    4e0f:	b8 00 00 00 00       	mov    eax,0x0
    4e14:	e8 d7 c2 ff ff       	call   10f0 <printf@plt>
    4e19:	b8 00 00 00 00       	mov    eax,0x0
    4e1e:	e8 4d c4 ff ff       	call   1270 <get_input>
    4e23:	89 45 fc             	mov    DWORD PTR [rbp-0x4],eax
    4e26:	81 7d fc a9 01 00 00 	cmp    DWORD PTR [rbp-0x4],0x1a9
    4e2d:	75 05                	jne    4e34 <main+0x3b1d>
    4e2f:	e9 a8 59 00 00       	jmp    a7dc <main+0x94c5>
    4e34:	81 7d fc 2b 02 00 00 	cmp    DWORD PTR [rbp-0x4],0x22b
    4e3b:	75 05                	jne    4e42 <main+0x3b2b>
    4e3d:	e9 63 86 00 00       	jmp    d4a5 <main+0xc18e>
    4e42:	48 8d 05 df a1 00 00 	lea    rax,[rip+0xa1df]        # f028 <_IO_stdin_used+0x28>
    4e49:	48 89 c7             	mov    rdi,rax
    4e4c:	e8 6f c2 ff ff       	call   10c0 <puts@plt>
    4e51:	bf 01 00 00 00       	mov    edi,0x1
    4e56:	e8 d5 c2 ff ff       	call   1130 <exit@plt>
    4e5b:	be aa 00 00 00       	mov    esi,0xaa
    4e60:	48 8d 05 b2 a1 00 00 	lea    rax,[rip+0xa1b2]        # f019 <_IO_stdin_used+0x19>
    4e67:	48 89 c7             	mov    rdi,rax
    4e6a:	b8 00 00 00 00       	mov    eax,0x0
    4e6f:	e8 7c c2 ff ff       	call   10f0 <printf@plt>
    4e74:	b8 00 00 00 00       	mov    eax,0x0
    4e79:	e8 f2 c3 ff ff       	call   1270 <get_input>
    4e7e:	89 45 fc             	mov    DWORD PTR [rbp-0x4],eax
    4e81:	81 7d fc 31 02 00 00 	cmp    DWORD PTR [rbp-0x4],0x231
    4e88:	75 05                	jne    4e8f <main+0x3b78>
    4e8a:	e9 5e 88 00 00       	jmp    d6ed <main+0xc3d6>
    4e8f:	81 7d fc f8 00 00 00 	cmp    DWORD PTR [rbp-0x4],0xf8
    4e96:	75 05                	jne    4e9d <main+0x3b86>
    4e98:	e9 de 1a 00 00       	jmp    697b <main+0x5664>
    4e9d:	48 8d 05 84 a1 00 00 	lea    rax,[rip+0xa184]        # f028 <_IO_stdin_used+0x28>
    4ea4:	48 89 c7             	mov    rdi,rax
    4ea7:	e8 14 c2 ff ff       	call   10c0 <puts@plt>
    4eac:	bf 01 00 00 00       	mov    edi,0x1
    4eb1:	e8 7a c2 ff ff       	call   1130 <exit@plt>
    4eb6:	be ab 00 00 00       	mov    esi,0xab
    4ebb:	48 8d 05 57 a1 00 00 	lea    rax,[rip+0xa157]        # f019 <_IO_stdin_used+0x19>
    4ec2:	48 89 c7             	mov    rdi,rax
    4ec5:	b8 00 00 00 00       	mov    eax,0x0
    4eca:	e8 21 c2 ff ff       	call   10f0 <printf@plt>
    4ecf:	b8 00 00 00 00       	mov    eax,0x0
    4ed4:	e8 97 c3 ff ff       	call   1270 <get_input>
    4ed9:	89 45 fc             	mov    DWORD PTR [rbp-0x4],eax
    4edc:	83 7d fc 78          	cmp    DWORD PTR [rbp-0x4],0x78
    4ee0:	75 05                	jne    4ee7 <main+0x3bd0>
    4ee2:	e9 fb ed ff ff       	jmp    3ce2 <main+0x29cb>
    4ee7:	81 7d fc 4f 02 00 00 	cmp    DWORD PTR [rbp-0x4],0x24f
    4eee:	75 05                	jne    4ef5 <main+0x3bde>
    4ef0:	e9 f4 92 00 00       	jmp    e1e9 <main+0xced2>
    4ef5:	81 7d fc 0a 02 00 00 	cmp    DWORD PTR [rbp-0x4],0x20a
    4efc:	0f 84 1d 7a 00 00    	je     c91f <main+0xb608>
    4f02:	48 8d 05 1f a1 00 00 	lea    rax,[rip+0xa11f]        # f028 <_IO_stdin_used+0x28>
    4f09:	48 89 c7             	mov    rdi,rax
    4f0c:	e8 af c1 ff ff       	call   10c0 <puts@plt>
    4f11:	bf 01 00 00 00       	mov    edi,0x1
    4f16:	e8 15 c2 ff ff       	call   1130 <exit@plt>
    4f1b:	be ac 00 00 00       	mov    esi,0xac
    4f20:	48 8d 05 f2 a0 00 00 	lea    rax,[rip+0xa0f2]        # f019 <_IO_stdin_used+0x19>
    4f27:	48 89 c7             	mov    rdi,rax
    4f2a:	b8 00 00 00 00       	mov    eax,0x0
    4f2f:	e8 bc c1 ff ff       	call   10f0 <printf@plt>
    4f34:	b8 00 00 00 00       	mov    eax,0x0
    4f39:	e8 32 c3 ff ff       	call   1270 <get_input>
    4f3e:	89 45 fc             	mov    DWORD PTR [rbp-0x4],eax
    4f41:	81 7d fc a3 01 00 00 	cmp    DWORD PTR [rbp-0x4],0x1a3
    4f48:	75 05                	jne    4f4f <main+0x3c38>
    4f4a:	e9 55 56 00 00       	jmp    a5a4 <main+0x928d>
    4f4f:	81 7d fc a2 00 00 00 	cmp    DWORD PTR [rbp-0x4],0xa2
    4f56:	0f 84 56 fc ff ff    	je     4bb2 <main+0x389b>
    4f5c:	48 8d 05 c5 a0 00 00 	lea    rax,[rip+0xa0c5]        # f028 <_IO_stdin_used+0x28>
    4f63:	48 89 c7             	mov    rdi,rax
    4f66:	e8 55 c1 ff ff       	call   10c0 <puts@plt>
    4f6b:	bf 01 00 00 00       	mov    edi,0x1
    4f70:	e8 bb c1 ff ff       	call   1130 <exit@plt>
    4f75:	be ad 00 00 00       	mov    esi,0xad
    4f7a:	48 8d 05 98 a0 00 00 	lea    rax,[rip+0xa098]        # f019 <_IO_stdin_used+0x19>
    4f81:	48 89 c7             	mov    rdi,rax
    4f84:	b8 00 00 00 00       	mov    eax,0x0
    4f89:	e8 62 c1 ff ff       	call   10f0 <printf@plt>
    4f8e:	b8 00 00 00 00       	mov    eax,0x0
    4f93:	e8 d8 c2 ff ff       	call   1270 <get_input>
    4f98:	89 45 fc             	mov    DWORD PTR [rbp-0x4],eax
    4f9b:	81 7d fc a5 00 00 00 	cmp    DWORD PTR [rbp-0x4],0xa5
    4fa2:	75 05                	jne    4fa9 <main+0x3c92>
    4fa4:	e9 fa fc ff ff       	jmp    4ca3 <main+0x398c>
    4fa9:	81 7d fc 1e 01 00 00 	cmp    DWORD PTR [rbp-0x4],0x11e
    4fb0:	75 05                	jne    4fb7 <main+0x3ca0>
    4fb2:	e9 12 27 00 00       	jmp    76c9 <main+0x63b2>
    4fb7:	48 8d 05 6a a0 00 00 	lea    rax,[rip+0xa06a]        # f028 <_IO_stdin_used+0x28>
    4fbe:	48 89 c7             	mov    rdi,rax
    4fc1:	e8 fa c0 ff ff       	call   10c0 <puts@plt>
    4fc6:	bf 01 00 00 00       	mov    edi,0x1
    4fcb:	e8 60 c1 ff ff       	call   1130 <exit@plt>
    4fd0:	be ae 00 00 00       	mov    esi,0xae
    4fd5:	48 8d 05 3d a0 00 00 	lea    rax,[rip+0xa03d]        # f019 <_IO_stdin_used+0x19>
    4fdc:	48 89 c7             	mov    rdi,rax
    4fdf:	b8 00 00 00 00       	mov    eax,0x0
    4fe4:	e8 07 c1 ff ff       	call   10f0 <printf@plt>
    4fe9:	b8 00 00 00 00       	mov    eax,0x0
    4fee:	e8 7d c2 ff ff       	call   1270 <get_input>
    4ff3:	89 45 fc             	mov    DWORD PTR [rbp-0x4],eax
    4ff6:	81 7d fc d3 00 00 00 	cmp    DWORD PTR [rbp-0x4],0xd3
    4ffd:	75 05                	jne    5004 <main+0x3ced>
    4fff:	e9 a9 0c 00 00       	jmp    5cad <main+0x4996>
    5004:	81 7d fc e8 00 00 00 	cmp    DWORD PTR [rbp-0x4],0xe8
    500b:	75 05                	jne    5012 <main+0x3cfb>
    500d:	e9 db 13 00 00       	jmp    63ed <main+0x50d6>
    5012:	48 8d 05 0f a0 00 00 	lea    rax,[rip+0xa00f]        # f028 <_IO_stdin_used+0x28>
    5019:	48 89 c7             	mov    rdi,rax
    501c:	e8 9f c0 ff ff       	call   10c0 <puts@plt>
    5021:	bf 01 00 00 00       	mov    edi,0x1
    5026:	e8 05 c1 ff ff       	call   1130 <exit@plt>
    502b:	be af 00 00 00       	mov    esi,0xaf
    5030:	48 8d 05 e2 9f 00 00 	lea    rax,[rip+0x9fe2]        # f019 <_IO_stdin_used+0x19>
    5037:	48 89 c7             	mov    rdi,rax
    503a:	b8 00 00 00 00       	mov    eax,0x0
    503f:	e8 ac c0 ff ff       	call   10f0 <printf@plt>
    5044:	b8 00 00 00 00       	mov    eax,0x0
    5049:	e8 22 c2 ff ff       	call   1270 <get_input>
    504e:	89 45 fc             	mov    DWORD PTR [rbp-0x4],eax
    5051:	81 7d fc 63 02 00 00 	cmp    DWORD PTR [rbp-0x4],0x263
    5058:	0f 84 d9 98 00 00    	je     e937 <main+0xd620>
    505e:	81 7d fc 6d 02 00 00 	cmp    DWORD PTR [rbp-0x4],0x26d
    5065:	0f 84 7f 9c 00 00    	je     ecea <main+0xd9d3>
    506b:	81 7d fc ef 00 00 00 	cmp    DWORD PTR [rbp-0x4],0xef
    5072:	75 05                	jne    5079 <main+0x3d62>
    5074:	e9 e9 15 00 00       	jmp    6662 <main+0x534b>
    5079:	48 8d 05 a8 9f 00 00 	lea    rax,[rip+0x9fa8]        # f028 <_IO_stdin_used+0x28>
    5080:	48 89 c7             	mov    rdi,rax
    5083:	e8 38 c0 ff ff       	call   10c0 <puts@plt>
    5088:	bf 01 00 00 00       	mov    edi,0x1
    508d:	e8 9e c0 ff ff       	call   1130 <exit@plt>
    5092:	be b0 00 00 00       	mov    esi,0xb0
    5097:	48 8d 05 7b 9f 00 00 	lea    rax,[rip+0x9f7b]        # f019 <_IO_stdin_used+0x19>
    509e:	48 89 c7             	mov    rdi,rax
    50a1:	b8 00 00 00 00       	mov    eax,0x0
    50a6:	e8 45 c0 ff ff       	call   10f0 <printf@plt>
    50ab:	b8 00 00 00 00       	mov    eax,0x0
    50b0:	e8 bb c1 ff ff       	call   1270 <get_input>
    50b5:	89 45 fc             	mov    DWORD PTR [rbp-0x4],eax
    50b8:	83 7d fc 75          	cmp    DWORD PTR [rbp-0x4],0x75
    50bc:	75 05                	jne    50c3 <main+0x3dac>
    50be:	e9 11 eb ff ff       	jmp    3bd4 <main+0x28bd>
    50c3:	81 7d fc 64 02 00 00 	cmp    DWORD PTR [rbp-0x4],0x264
    50ca:	75 05                	jne    50d1 <main+0x3dba>
    50cc:	e9 b4 98 00 00       	jmp    e985 <main+0xd66e>
    50d1:	48 8d 05 50 9f 00 00 	lea    rax,[rip+0x9f50]        # f028 <_IO_stdin_used+0x28>
    50d8:	48 89 c7             	mov    rdi,rax
    50db:	e8 e0 bf ff ff       	call   10c0 <puts@plt>
    50e0:	bf 01 00 00 00       	mov    edi,0x1
    50e5:	e8 46 c0 ff ff       	call   1130 <exit@plt>
    50ea:	90                   	nop
    50eb:	be b1 00 00 00       	mov    esi,0xb1
    50f0:	48 8d 05 22 9f 00 00 	lea    rax,[rip+0x9f22]        # f019 <_IO_stdin_used+0x19>
    50f7:	48 89 c7             	mov    rdi,rax
    50fa:	b8 00 00 00 00       	mov    eax,0x0
    50ff:	e8 ec bf ff ff       	call   10f0 <printf@plt>
    5104:	b8 00 00 00 00       	mov    eax,0x0
    5109:	e8 62 c1 ff ff       	call   1270 <get_input>
    510e:	89 45 fc             	mov    DWORD PTR [rbp-0x4],eax
    5111:	81 7d fc fa 01 00 00 	cmp    DWORD PTR [rbp-0x4],0x1fa
    5118:	75 05                	jne    511f <main+0x3e08>
    511a:	e9 9c 72 00 00       	jmp    c3bb <main+0xb0a4>
    511f:	48 8d 05 02 9f 00 00 	lea    rax,[rip+0x9f02]        # f028 <_IO_stdin_used+0x28>
    5126:	48 89 c7             	mov    rdi,rax
    5129:	e8 92 bf ff ff       	call   10c0 <puts@plt>
    512e:	bf 01 00 00 00       	mov    edi,0x1
    5133:	e8 f8 bf ff ff       	call   1130 <exit@plt>
    5138:	90                   	nop
    5139:	be b2 00 00 00       	mov    esi,0xb2
    513e:	48 8d 05 d4 9e 00 00 	lea    rax,[rip+0x9ed4]        # f019 <_IO_stdin_used+0x19>
    5145:	48 89 c7             	mov    rdi,rax
    5148:	b8 00 00 00 00       	mov    eax,0x0
    514d:	e8 9e bf ff ff       	call   10f0 <printf@plt>
    5152:	b8 00 00 00 00       	mov    eax,0x0
    5157:	e8 14 c1 ff ff       	call   1270 <get_input>
    515c:	89 45 fc             	mov    DWORD PTR [rbp-0x4],eax
    515f:	81 7d fc 3e 02 00 00 	cmp    DWORD PTR [rbp-0x4],0x23e
    5166:	75 05                	jne    516d <main+0x3e56>
    5168:	e9 5c 8a 00 00       	jmp    dbc9 <main+0xc8b2>
    516d:	48 8d 05 b4 9e 00 00 	lea    rax,[rip+0x9eb4]        # f028 <_IO_stdin_used+0x28>
    5174:	48 89 c7             	mov    rdi,rax
    5177:	e8 44 bf ff ff       	call   10c0 <puts@plt>
    517c:	bf 01 00 00 00       	mov    edi,0x1
    5181:	e8 aa bf ff ff       	call   1130 <exit@plt>
    5186:	be b3 00 00 00       	mov    esi,0xb3
    518b:	48 8d 05 87 9e 00 00 	lea    rax,[rip+0x9e87]        # f019 <_IO_stdin_used+0x19>
    5192:	48 89 c7             	mov    rdi,rax
    5195:	b8 00 00 00 00       	mov    eax,0x0
    519a:	e8 51 bf ff ff       	call   10f0 <printf@plt>
    519f:	b8 00 00 00 00       	mov    eax,0x0
    51a4:	e8 c7 c0 ff ff       	call   1270 <get_input>
    51a9:	89 45 fc             	mov    DWORD PTR [rbp-0x4],eax
    51ac:	81 7d fc 4f 01 00 00 	cmp    DWORD PTR [rbp-0x4],0x14f
    51b3:	75 05                	jne    51ba <main+0x3ea3>
    51b5:	e9 5b 36 00 00       	jmp    8815 <main+0x74fe>
    51ba:	83 7d fc 64          	cmp    DWORD PTR [rbp-0x4],0x64
    51be:	75 05                	jne    51c5 <main+0x3eae>
    51c0:	e9 ef e3 ff ff       	jmp    35b4 <main+0x229d>
    51c5:	48 8d 05 5c 9e 00 00 	lea    rax,[rip+0x9e5c]        # f028 <_IO_stdin_used+0x28>
    51cc:	48 89 c7             	mov    rdi,rax
    51cf:	e8 ec be ff ff       	call   10c0 <puts@plt>
    51d4:	bf 01 00 00 00       	mov    edi,0x1
    51d9:	e8 52 bf ff ff       	call   1130 <exit@plt>
    51de:	be b4 00 00 00       	mov    esi,0xb4
    51e3:	48 8d 05 2f 9e 00 00 	lea    rax,[rip+0x9e2f]        # f019 <_IO_stdin_used+0x19>
    51ea:	48 89 c7             	mov    rdi,rax
    51ed:	b8 00 00 00 00       	mov    eax,0x0
    51f2:	e8 f9 be ff ff       	call   10f0 <printf@plt>
    51f7:	b8 00 00 00 00       	mov    eax,0x0
    51fc:	e8 6f c0 ff ff       	call   1270 <get_input>
    5201:	89 45 fc             	mov    DWORD PTR [rbp-0x4],eax
    5204:	81 7d fc a3 01 00 00 	cmp    DWORD PTR [rbp-0x4],0x1a3
    520b:	75 05                	jne    5212 <main+0x3efb>
    520d:	e9 92 53 00 00       	jmp    a5a4 <main+0x928d>
    5212:	81 7d fc e2 00 00 00 	cmp    DWORD PTR [rbp-0x4],0xe2
    5219:	0f 84 d5 0f 00 00    	je     61f4 <main+0x4edd>
    521f:	48 8d 05 02 9e 00 00 	lea    rax,[rip+0x9e02]        # f028 <_IO_stdin_used+0x28>
    5226:	48 89 c7             	mov    rdi,rax
    5229:	e8 92 be ff ff       	call   10c0 <puts@plt>
    522e:	bf 01 00 00 00       	mov    edi,0x1
    5233:	e8 f8 be ff ff       	call   1130 <exit@plt>
    5238:	be b5 00 00 00       	mov    esi,0xb5
    523d:	48 8d 05 d5 9d 00 00 	lea    rax,[rip+0x9dd5]        # f019 <_IO_stdin_used+0x19>
    5244:	48 89 c7             	mov    rdi,rax
    5247:	b8 00 00 00 00       	mov    eax,0x0
    524c:	e8 9f be ff ff       	call   10f0 <printf@plt>
    5251:	b8 00 00 00 00       	mov    eax,0x0
    5256:	e8 15 c0 ff ff       	call   1270 <get_input>
    525b:	89 45 fc             	mov    DWORD PTR [rbp-0x4],eax
    525e:	83 7d fc 21          	cmp    DWORD PTR [rbp-0x4],0x21
    5262:	75 05                	jne    5269 <main+0x3f52>
    5264:	e9 2e cc ff ff       	jmp    1e97 <main+0xb80>
    5269:	81 7d fc f5 00 00 00 	cmp    DWORD PTR [rbp-0x4],0xf5
    5270:	0f 84 00 16 00 00    	je     6876 <main+0x555f>
    5276:	81 7d fc f2 00 00 00 	cmp    DWORD PTR [rbp-0x4],0xf2
    527d:	75 05                	jne    5284 <main+0x3f6d>
    527f:	e9 d5 14 00 00       	jmp    6759 <main+0x5442>
    5284:	48 8d 05 9d 9d 00 00 	lea    rax,[rip+0x9d9d]        # f028 <_IO_stdin_used+0x28>
    528b:	48 89 c7             	mov    rdi,rax
    528e:	e8 2d be ff ff       	call   10c0 <puts@plt>
    5293:	bf 01 00 00 00       	mov    edi,0x1
    5298:	e8 93 be ff ff       	call   1130 <exit@plt>
    529d:	90                   	nop
    529e:	be b6 00 00 00       	mov    esi,0xb6
    52a3:	48 8d 05 6f 9d 00 00 	lea    rax,[rip+0x9d6f]        # f019 <_IO_stdin_used+0x19>
    52aa:	48 89 c7             	mov    rdi,rax
    52ad:	b8 00 00 00 00       	mov    eax,0x0
    52b2:	e8 39 be ff ff       	call   10f0 <printf@plt>
    52b7:	b8 00 00 00 00       	mov    eax,0x0
    52bc:	e8 af bf ff ff       	call   1270 <get_input>
    52c1:	89 45 fc             	mov    DWORD PTR [rbp-0x4],eax
    52c4:	81 7d fc 3f 01 00 00 	cmp    DWORD PTR [rbp-0x4],0x13f
    52cb:	75 05                	jne    52d2 <main+0x3fbb>
    52cd:	e9 76 2f 00 00       	jmp    8248 <main+0x6f31>
    52d2:	48 8d 05 4f 9d 00 00 	lea    rax,[rip+0x9d4f]        # f028 <_IO_stdin_used+0x28>
    52d9:	48 89 c7             	mov    rdi,rax
    52dc:	e8 df bd ff ff       	call   10c0 <puts@plt>
    52e1:	bf 01 00 00 00       	mov    edi,0x1
    52e6:	e8 45 be ff ff       	call   1130 <exit@plt>
    52eb:	be b7 00 00 00       	mov    esi,0xb7
    52f0:	48 8d 05 22 9d 00 00 	lea    rax,[rip+0x9d22]        # f019 <_IO_stdin_used+0x19>
    52f7:	48 89 c7             	mov    rdi,rax
    52fa:	b8 00 00 00 00       	mov    eax,0x0
    52ff:	e8 ec bd ff ff       	call   10f0 <printf@plt>
    5304:	b8 00 00 00 00       	mov    eax,0x0
    5309:	e8 62 bf ff ff       	call   1270 <get_input>
    530e:	89 45 fc             	mov    DWORD PTR [rbp-0x4],eax
    5311:	81 7d fc 31 01 00 00 	cmp    DWORD PTR [rbp-0x4],0x131
    5318:	75 05                	jne    531f <main+0x4008>
    531a:	e9 2c 2a 00 00       	jmp    7d4b <main+0x6a34>
    531f:	81 7d fc be 01 00 00 	cmp    DWORD PTR [rbp-0x4],0x1be
    5326:	75 05                	jne    532d <main+0x4016>
    5328:	e9 c7 5b 00 00       	jmp    aef4 <main+0x9bdd>
    532d:	48 8d 05 f4 9c 00 00 	lea    rax,[rip+0x9cf4]        # f028 <_IO_stdin_used+0x28>
    5334:	48 89 c7             	mov    rdi,rax
    5337:	e8 84 bd ff ff       	call   10c0 <puts@plt>
    533c:	bf 01 00 00 00       	mov    edi,0x1
    5341:	e8 ea bd ff ff       	call   1130 <exit@plt>
    5346:	be b8 00 00 00       	mov    esi,0xb8
    534b:	48 8d 05 c7 9c 00 00 	lea    rax,[rip+0x9cc7]        # f019 <_IO_stdin_used+0x19>
    5352:	48 89 c7             	mov    rdi,rax
    5355:	b8 00 00 00 00       	mov    eax,0x0
    535a:	e8 91 bd ff ff       	call   10f0 <printf@plt>
    535f:	b8 00 00 00 00       	mov    eax,0x0
    5364:	e8 07 bf ff ff       	call   1270 <get_input>
    5369:	89 45 fc             	mov    DWORD PTR [rbp-0x4],eax
    536c:	81 7d fc db 00 00 00 	cmp    DWORD PTR [rbp-0x4],0xdb
    5373:	75 05                	jne    537a <main+0x4063>
    5375:	e9 ed 0b 00 00       	jmp    5f67 <main+0x4c50>
    537a:	83 7d fc 60          	cmp    DWORD PTR [rbp-0x4],0x60
    537e:	0f 84 e4 e0 ff ff    	je     3468 <main+0x2151>
    5384:	48 8d 05 9d 9c 00 00 	lea    rax,[rip+0x9c9d]        # f028 <_IO_stdin_used+0x28>
    538b:	48 89 c7             	mov    rdi,rax
    538e:	e8 2d bd ff ff       	call   10c0 <puts@plt>
    5393:	bf 01 00 00 00       	mov    edi,0x1
    5398:	e8 93 bd ff ff       	call   1130 <exit@plt>
    539d:	be b9 00 00 00       	mov    esi,0xb9
    53a2:	48 8d 05 70 9c 00 00 	lea    rax,[rip+0x9c70]        # f019 <_IO_stdin_used+0x19>
    53a9:	48 89 c7             	mov    rdi,rax
    53ac:	b8 00 00 00 00       	mov    eax,0x0
    53b1:	e8 3a bd ff ff       	call   10f0 <printf@plt>
    53b6:	b8 00 00 00 00       	mov    eax,0x0
    53bb:	e8 b0 be ff ff       	call   1270 <get_input>
    53c0:	89 45 fc             	mov    DWORD PTR [rbp-0x4],eax
    53c3:	81 7d fc e7 00 00 00 	cmp    DWORD PTR [rbp-0x4],0xe7
    53ca:	0f 84 cf 0f 00 00    	je     639f <main+0x5088>
    53d0:	81 7d fc fe 01 00 00 	cmp    DWORD PTR [rbp-0x4],0x1fe
    53d7:	75 05                	jne    53de <main+0x40c7>
    53d9:	e9 49 71 00 00       	jmp    c527 <main+0xb210>
    53de:	48 8d 05 43 9c 00 00 	lea    rax,[rip+0x9c43]        # f028 <_IO_stdin_used+0x28>
    53e5:	48 89 c7             	mov    rdi,rax
    53e8:	e8 d3 bc ff ff       	call   10c0 <puts@plt>
    53ed:	bf 01 00 00 00       	mov    edi,0x1
    53f2:	e8 39 bd ff ff       	call   1130 <exit@plt>
    53f7:	be ba 00 00 00       	mov    esi,0xba
    53fc:	48 8d 05 16 9c 00 00 	lea    rax,[rip+0x9c16]        # f019 <_IO_stdin_used+0x19>
    5403:	48 89 c7             	mov    rdi,rax
    5406:	b8 00 00 00 00       	mov    eax,0x0
    540b:	e8 e0 bc ff ff       	call   10f0 <printf@plt>
    5410:	b8 00 00 00 00       	mov    eax,0x0
    5415:	e8 56 be ff ff       	call   1270 <get_input>
    541a:	89 45 fc             	mov    DWORD PTR [rbp-0x4],eax
    541d:	81 7d fc 74 01 00 00 	cmp    DWORD PTR [rbp-0x4],0x174
    5424:	75 05                	jne    542b <main+0x4114>
    5426:	e9 ac 40 00 00       	jmp    94d7 <main+0x81c0>
    542b:	83 7d fc 37          	cmp    DWORD PTR [rbp-0x4],0x37
    542f:	0f 84 a3 d1 ff ff    	je     25d8 <main+0x12c1>
    5435:	48 8d 05 ec 9b 00 00 	lea    rax,[rip+0x9bec]        # f028 <_IO_stdin_used+0x28>
    543c:	48 89 c7             	mov    rdi,rax
    543f:	e8 7c bc ff ff       	call   10c0 <puts@plt>
    5444:	bf 01 00 00 00       	mov    edi,0x1
    5449:	e8 e2 bc ff ff       	call   1130 <exit@plt>
    544e:	be bb 00 00 00       	mov    esi,0xbb
    5453:	48 8d 05 bf 9b 00 00 	lea    rax,[rip+0x9bbf]        # f019 <_IO_stdin_used+0x19>
    545a:	48 89 c7             	mov    rdi,rax
    545d:	b8 00 00 00 00       	mov    eax,0x0
    5462:	e8 89 bc ff ff       	call   10f0 <printf@plt>
    5467:	b8 00 00 00 00       	mov    eax,0x0
    546c:	e8 ff bd ff ff       	call   1270 <get_input>
    5471:	89 45 fc             	mov    DWORD PTR [rbp-0x4],eax
    5474:	81 7d fc 09 01 00 00 	cmp    DWORD PTR [rbp-0x4],0x109
    547b:	75 05                	jne    5482 <main+0x416b>
    547d:	e9 e5 1a 00 00       	jmp    6f67 <main+0x5c50>
    5482:	81 7d fc 66 01 00 00 	cmp    DWORD PTR [rbp-0x4],0x166
    5489:	75 05                	jne    5490 <main+0x4179>
    548b:	e9 63 3b 00 00       	jmp    8ff3 <main+0x7cdc>
    5490:	48 8d 05 91 9b 00 00 	lea    rax,[rip+0x9b91]        # f028 <_IO_stdin_used+0x28>
    5497:	48 89 c7             	mov    rdi,rax
    549a:	e8 21 bc ff ff       	call   10c0 <puts@plt>
    549f:	bf 01 00 00 00       	mov    edi,0x1
    54a4:	e8 87 bc ff ff       	call   1130 <exit@plt>
    54a9:	be bc 00 00 00       	mov    esi,0xbc
    54ae:	48 8d 05 64 9b 00 00 	lea    rax,[rip+0x9b64]        # f019 <_IO_stdin_used+0x19>
    54b5:	48 89 c7             	mov    rdi,rax
    54b8:	b8 00 00 00 00       	mov    eax,0x0
    54bd:	e8 2e bc ff ff       	call   10f0 <printf@plt>
    54c2:	b8 00 00 00 00       	mov    eax,0x0
    54c7:	e8 a4 bd ff ff       	call   1270 <get_input>
    54cc:	89 45 fc             	mov    DWORD PTR [rbp-0x4],eax
    54cf:	81 7d fc 98 00 00 00 	cmp    DWORD PTR [rbp-0x4],0x98
    54d6:	75 05                	jne    54dd <main+0x41c6>
    54d8:	e9 44 f3 ff ff       	jmp    4821 <main+0x350a>
    54dd:	81 7d fc 96 01 00 00 	cmp    DWORD PTR [rbp-0x4],0x196
    54e4:	75 05                	jne    54eb <main+0x41d4>
    54e6:	e9 10 4c 00 00       	jmp    a0fb <main+0x8de4>
    54eb:	48 8d 05 36 9b 00 00 	lea    rax,[rip+0x9b36]        # f028 <_IO_stdin_used+0x28>
    54f2:	48 89 c7             	mov    rdi,rax
    54f5:	e8 c6 bb ff ff       	call   10c0 <puts@plt>
    54fa:	bf 01 00 00 00       	mov    edi,0x1
    54ff:	e8 2c bc ff ff       	call   1130 <exit@plt>
    5504:	be bd 00 00 00       	mov    esi,0xbd
    5509:	48 8d 05 09 9b 00 00 	lea    rax,[rip+0x9b09]        # f019 <_IO_stdin_used+0x19>
    5510:	48 89 c7             	mov    rdi,rax
    5513:	b8 00 00 00 00       	mov    eax,0x0
    5518:	e8 d3 bb ff ff       	call   10f0 <printf@plt>
    551d:	b8 00 00 00 00       	mov    eax,0x0
    5522:	e8 49 bd ff ff       	call   1270 <get_input>
    5527:	89 45 fc             	mov    DWORD PTR [rbp-0x4],eax
    552a:	81 7d fc 8d 01 00 00 	cmp    DWORD PTR [rbp-0x4],0x18d
    5531:	75 05                	jne    5538 <main+0x4221>
    5533:	e9 78 48 00 00       	jmp    9db0 <main+0x8a99>
    5538:	83 7d fc 1c          	cmp    DWORD PTR [rbp-0x4],0x1c
    553c:	75 05                	jne    5543 <main+0x422c>
    553e:	e9 80 c7 ff ff       	jmp    1cc3 <main+0x9ac>
    5543:	81 7d fc 3a 02 00 00 	cmp    DWORD PTR [rbp-0x4],0x23a
    554a:	75 05                	jne    5551 <main+0x423a>
    554c:	e9 f4 84 00 00       	jmp    da45 <main+0xc72e>
    5551:	81 7d fc 48 02 00 00 	cmp    DWORD PTR [rbp-0x4],0x248
    5558:	0f 84 0e 8a 00 00    	je     df6c <main+0xcc55>
    555e:	48 8d 05 c3 9a 00 00 	lea    rax,[rip+0x9ac3]        # f028 <_IO_stdin_used+0x28>
    5565:	48 89 c7             	mov    rdi,rax
    5568:	e8 53 bb ff ff       	call   10c0 <puts@plt>
    556d:	bf 01 00 00 00       	mov    edi,0x1
    5572:	e8 b9 bb ff ff       	call   1130 <exit@plt>
    5577:	be be 00 00 00       	mov    esi,0xbe
    557c:	48 8d 05 96 9a 00 00 	lea    rax,[rip+0x9a96]        # f019 <_IO_stdin_used+0x19>
    5583:	48 89 c7             	mov    rdi,rax
    5586:	b8 00 00 00 00       	mov    eax,0x0
    558b:	e8 60 bb ff ff       	call   10f0 <printf@plt>
    5590:	b8 00 00 00 00       	mov    eax,0x0
    5595:	e8 d6 bc ff ff       	call   1270 <get_input>
    559a:	89 45 fc             	mov    DWORD PTR [rbp-0x4],eax
    559d:	83 7d fc 21          	cmp    DWORD PTR [rbp-0x4],0x21
    55a1:	75 05                	jne    55a8 <main+0x4291>
    55a3:	e9 ef c8 ff ff       	jmp    1e97 <main+0xb80>
    55a8:	83 7d fc 0b          	cmp    DWORD PTR [rbp-0x4],0xb
    55ac:	75 05                	jne    55b3 <main+0x429c>
    55ae:	e9 21 c1 ff ff       	jmp    16d4 <main+0x3bd>
    55b3:	48 8d 05 6e 9a 00 00 	lea    rax,[rip+0x9a6e]        # f028 <_IO_stdin_used+0x28>
    55ba:	48 89 c7             	mov    rdi,rax
    55bd:	e8 fe ba ff ff       	call   10c0 <puts@plt>
    55c2:	bf 01 00 00 00       	mov    edi,0x1
    55c7:	e8 64 bb ff ff       	call   1130 <exit@plt>
    55cc:	be bf 00 00 00       	mov    esi,0xbf
    55d1:	48 8d 05 41 9a 00 00 	lea    rax,[rip+0x9a41]        # f019 <_IO_stdin_used+0x19>
    55d8:	48 89 c7             	mov    rdi,rax
    55db:	b8 00 00 00 00       	mov    eax,0x0
    55e0:	e8 0b bb ff ff       	call   10f0 <printf@plt>
    55e5:	b8 00 00 00 00       	mov    eax,0x0
    55ea:	e8 81 bc ff ff       	call   1270 <get_input>
    55ef:	89 45 fc             	mov    DWORD PTR [rbp-0x4],eax
    55f2:	81 7d fc 12 02 00 00 	cmp    DWORD PTR [rbp-0x4],0x212
    55f9:	75 05                	jne    5600 <main+0x42e9>
    55fb:	e9 de 75 00 00       	jmp    cbde <main+0xb8c7>
    5600:	81 7d fc 6c 02 00 00 	cmp    DWORD PTR [rbp-0x4],0x26c
    5607:	75 05                	jne    560e <main+0x42f7>
    5609:	e9 75 96 00 00       	jmp    ec83 <main+0xd96c>
    560e:	83 7d fc 35          	cmp    DWORD PTR [rbp-0x4],0x35
    5612:	75 05                	jne    5619 <main+0x4302>
    5614:	e9 1c cf ff ff       	jmp    2535 <main+0x121e>
    5619:	48 8d 05 08 9a 00 00 	lea    rax,[rip+0x9a08]        # f028 <_IO_stdin_used+0x28>
    5620:	48 89 c7             	mov    rdi,rax
    5623:	e8 98 ba ff ff       	call   10c0 <puts@plt>
    5628:	bf 01 00 00 00       	mov    edi,0x1
    562d:	e8 fe ba ff ff       	call   1130 <exit@plt>
    5632:	be c0 00 00 00       	mov    esi,0xc0
    5637:	48 8d 05 db 99 00 00 	lea    rax,[rip+0x99db]        # f019 <_IO_stdin_used+0x19>
    563e:	48 89 c7             	mov    rdi,rax
    5641:	b8 00 00 00 00       	mov    eax,0x0
    5646:	e8 a5 ba ff ff       	call   10f0 <printf@plt>
    564b:	b8 00 00 00 00       	mov    eax,0x0
    5650:	e8 1b bc ff ff       	call   1270 <get_input>
    5655:	89 45 fc             	mov    DWORD PTR [rbp-0x4],eax
    5658:	81 7d fc 53 02 00 00 	cmp    DWORD PTR [rbp-0x4],0x253
    565f:	75 05                	jne    5666 <main+0x434f>
    5661:	e9 22 8d 00 00       	jmp    e388 <main+0xd071>
    5666:	81 7d fc 7f 01 00 00 	cmp    DWORD PTR [rbp-0x4],0x17f
    566d:	75 05                	jne    5674 <main+0x435d>
    566f:	e9 3b 42 00 00       	jmp    98af <main+0x8598>
    5674:	81 7d fc 73 01 00 00 	cmp    DWORD PTR [rbp-0x4],0x173
    567b:	75 05                	jne    5682 <main+0x436b>
    567d:	e9 fa 3d 00 00       	jmp    947c <main+0x8165>
    5682:	48 8d 05 9f 99 00 00 	lea    rax,[rip+0x999f]        # f028 <_IO_stdin_used+0x28>
    5689:	48 89 c7             	mov    rdi,rax
    568c:	e8 2f ba ff ff       	call   10c0 <puts@plt>
    5691:	bf 01 00 00 00       	mov    edi,0x1
    5696:	e8 95 ba ff ff       	call   1130 <exit@plt>
    569b:	90                   	nop
    569c:	be c1 00 00 00       	mov    esi,0xc1
    56a1:	48 8d 05 71 99 00 00 	lea    rax,[rip+0x9971]        # f019 <_IO_stdin_used+0x19>
    56a8:	48 89 c7             	mov    rdi,rax
    56ab:	b8 00 00 00 00       	mov    eax,0x0
    56b0:	e8 3b ba ff ff       	call   10f0 <printf@plt>
    56b5:	b8 00 00 00 00       	mov    eax,0x0
    56ba:	e8 b1 bb ff ff       	call   1270 <get_input>
    56bf:	89 45 fc             	mov    DWORD PTR [rbp-0x4],eax
    56c2:	83 7d fc 5d          	cmp    DWORD PTR [rbp-0x4],0x5d
    56c6:	75 05                	jne    56cd <main+0x43b6>
    56c8:	e9 6e dc ff ff       	jmp    333b <main+0x2024>
    56cd:	48 8d 05 54 99 00 00 	lea    rax,[rip+0x9954]        # f028 <_IO_stdin_used+0x28>
    56d4:	48 89 c7             	mov    rdi,rax
    56d7:	e8 e4 b9 ff ff       	call   10c0 <puts@plt>
    56dc:	bf 01 00 00 00       	mov    edi,0x1
    56e1:	e8 4a ba ff ff       	call   1130 <exit@plt>
    56e6:	be c2 00 00 00       	mov    esi,0xc2
    56eb:	48 8d 05 27 99 00 00 	lea    rax,[rip+0x9927]        # f019 <_IO_stdin_used+0x19>
    56f2:	48 89 c7             	mov    rdi,rax
    56f5:	b8 00 00 00 00       	mov    eax,0x0
    56fa:	e8 f1 b9 ff ff       	call   10f0 <printf@plt>
    56ff:	b8 00 00 00 00       	mov    eax,0x0
    5704:	e8 67 bb ff ff       	call   1270 <get_input>
    5709:	89 45 fc             	mov    DWORD PTR [rbp-0x4],eax
    570c:	81 7d fc 4e 02 00 00 	cmp    DWORD PTR [rbp-0x4],0x24e
    5713:	75 05                	jne    571a <main+0x4403>
    5715:	e9 74 8a 00 00       	jmp    e18e <main+0xce77>
    571a:	83 7d fc 02          	cmp    DWORD PTR [rbp-0x4],0x2
    571e:	0f 84 a4 bc ff ff    	je     13c8 <main+0xb1>
    5724:	48 8d 05 fd 98 00 00 	lea    rax,[rip+0x98fd]        # f028 <_IO_stdin_used+0x28>
    572b:	48 89 c7             	mov    rdi,rax
    572e:	e8 8d b9 ff ff       	call   10c0 <puts@plt>
    5733:	bf 01 00 00 00       	mov    edi,0x1
    5738:	e8 f3 b9 ff ff       	call   1130 <exit@plt>
    573d:	90                   	nop
    573e:	be c3 00 00 00       	mov    esi,0xc3
    5743:	48 8d 05 cf 98 00 00 	lea    rax,[rip+0x98cf]        # f019 <_IO_stdin_used+0x19>
    574a:	48 89 c7             	mov    rdi,rax
    574d:	b8 00 00 00 00       	mov    eax,0x0
    5752:	e8 99 b9 ff ff       	call   10f0 <printf@plt>
    5757:	b8 00 00 00 00       	mov    eax,0x0
    575c:	e8 0f bb ff ff       	call   1270 <get_input>
    5761:	89 45 fc             	mov    DWORD PTR [rbp-0x4],eax
    5764:	81 7d fc 48 01 00 00 	cmp    DWORD PTR [rbp-0x4],0x148
    576b:	75 05                	jne    5772 <main+0x445b>
    576d:	e9 fb 2d 00 00       	jmp    856d <main+0x7256>
    5772:	48 8d 05 af 98 00 00 	lea    rax,[rip+0x98af]        # f028 <_IO_stdin_used+0x28>
    5779:	48 89 c7             	mov    rdi,rax
    577c:	e8 3f b9 ff ff       	call   10c0 <puts@plt>
    5781:	bf 01 00 00 00       	mov    edi,0x1
    5786:	e8 a5 b9 ff ff       	call   1130 <exit@plt>
    578b:	be c4 00 00 00       	mov    esi,0xc4
    5790:	48 8d 05 82 98 00 00 	lea    rax,[rip+0x9882]        # f019 <_IO_stdin_used+0x19>
    5797:	48 89 c7             	mov    rdi,rax
    579a:	b8 00 00 00 00       	mov    eax,0x0
    579f:	e8 4c b9 ff ff       	call   10f0 <printf@plt>
    57a4:	b8 00 00 00 00       	mov    eax,0x0
    57a9:	e8 c2 ba ff ff       	call   1270 <get_input>
    57ae:	89 45 fc             	mov    DWORD PTR [rbp-0x4],eax
    57b1:	81 7d fc 4a 02 00 00 	cmp    DWORD PTR [rbp-0x4],0x24a
    57b8:	75 05                	jne    57bf <main+0x44a8>
    57ba:	e9 56 88 00 00       	jmp    e015 <main+0xccfe>
    57bf:	81 7d fc 8a 01 00 00 	cmp    DWORD PTR [rbp-0x4],0x18a
    57c6:	75 05                	jne    57cd <main+0x44b6>
    57c8:	e9 cb 44 00 00       	jmp    9c98 <main+0x8981>
    57cd:	48 8d 05 54 98 00 00 	lea    rax,[rip+0x9854]        # f028 <_IO_stdin_used+0x28>
    57d4:	48 89 c7             	mov    rdi,rax
    57d7:	e8 e4 b8 ff ff       	call   10c0 <puts@plt>
    57dc:	bf 01 00 00 00       	mov    edi,0x1
    57e1:	e8 4a b9 ff ff       	call   1130 <exit@plt>
    57e6:	90                   	nop
    57e7:	be c5 00 00 00       	mov    esi,0xc5
    57ec:	48 8d 05 26 98 00 00 	lea    rax,[rip+0x9826]        # f019 <_IO_stdin_used+0x19>
    57f3:	48 89 c7             	mov    rdi,rax
    57f6:	b8 00 00 00 00       	mov    eax,0x0
    57fb:	e8 f0 b8 ff ff       	call   10f0 <printf@plt>
    5800:	b8 00 00 00 00       	mov    eax,0x0
    5805:	e8 66 ba ff ff       	call   1270 <get_input>
    580a:	89 45 fc             	mov    DWORD PTR [rbp-0x4],eax
    580d:	81 7d fc 5a 02 00 00 	cmp    DWORD PTR [rbp-0x4],0x25a
    5814:	75 05                	jne    581b <main+0x4504>
    5816:	e9 d7 8d 00 00       	jmp    e5f2 <main+0xd2db>
    581b:	48 8d 05 06 98 00 00 	lea    rax,[rip+0x9806]        # f028 <_IO_stdin_used+0x28>
    5822:	48 89 c7             	mov    rdi,rax
    5825:	e8 96 b8 ff ff       	call   10c0 <puts@plt>
    582a:	bf 01 00 00 00       	mov    edi,0x1
    582f:	e8 fc b8 ff ff       	call   1130 <exit@plt>
    5834:	90                   	nop
    5835:	be c6 00 00 00       	mov    esi,0xc6
    583a:	48 8d 05 d8 97 00 00 	lea    rax,[rip+0x97d8]        # f019 <_IO_stdin_used+0x19>
    5841:	48 89 c7             	mov    rdi,rax
    5844:	b8 00 00 00 00       	mov    eax,0x0
    5849:	e8 a2 b8 ff ff       	call   10f0 <printf@plt>
    584e:	b8 00 00 00 00       	mov    eax,0x0
    5853:	e8 18 ba ff ff       	call   1270 <get_input>
    5858:	89 45 fc             	mov    DWORD PTR [rbp-0x4],eax
    585b:	81 7d fc de 00 00 00 	cmp    DWORD PTR [rbp-0x4],0xde
    5862:	75 05                	jne    5869 <main+0x4552>
    5864:	e9 24 08 00 00       	jmp    608d <main+0x4d76>
    5869:	48 8d 05 b8 97 00 00 	lea    rax,[rip+0x97b8]        # f028 <_IO_stdin_used+0x28>
    5870:	48 89 c7             	mov    rdi,rax
    5873:	e8 48 b8 ff ff       	call   10c0 <puts@plt>
    5878:	bf 01 00 00 00       	mov    edi,0x1
    587d:	e8 ae b8 ff ff       	call   1130 <exit@plt>
    5882:	be c7 00 00 00       	mov    esi,0xc7
    5887:	48 8d 05 8b 97 00 00 	lea    rax,[rip+0x978b]        # f019 <_IO_stdin_used+0x19>
    588e:	48 89 c7             	mov    rdi,rax
    5891:	b8 00 00 00 00       	mov    eax,0x0
    5896:	e8 55 b8 ff ff       	call   10f0 <printf@plt>
    589b:	b8 00 00 00 00       	mov    eax,0x0
    58a0:	e8 cb b9 ff ff       	call   1270 <get_input>
    58a5:	89 45 fc             	mov    DWORD PTR [rbp-0x4],eax
    58a8:	81 7d fc 15 01 00 00 	cmp    DWORD PTR [rbp-0x4],0x115
    58af:	75 05                	jne    58b6 <main+0x459f>
    58b1:	e9 dd 1a 00 00       	jmp    7393 <main+0x607c>
    58b6:	81 7d fc 4a 01 00 00 	cmp    DWORD PTR [rbp-0x4],0x14a
    58bd:	75 05                	jne    58c4 <main+0x45ad>
    58bf:	e9 5e 2d 00 00       	jmp    8622 <main+0x730b>
    58c4:	48 8d 05 5d 97 00 00 	lea    rax,[rip+0x975d]        # f028 <_IO_stdin_used+0x28>
    58cb:	48 89 c7             	mov    rdi,rax
    58ce:	e8 ed b7 ff ff       	call   10c0 <puts@plt>
    58d3:	bf 01 00 00 00       	mov    edi,0x1
    58d8:	e8 53 b8 ff ff       	call   1130 <exit@plt>
    58dd:	be c8 00 00 00       	mov    esi,0xc8
    58e2:	48 8d 05 30 97 00 00 	lea    rax,[rip+0x9730]        # f019 <_IO_stdin_used+0x19>
    58e9:	48 89 c7             	mov    rdi,rax
    58ec:	b8 00 00 00 00       	mov    eax,0x0
    58f1:	e8 fa b7 ff ff       	call   10f0 <printf@plt>
    58f6:	b8 00 00 00 00       	mov    eax,0x0
    58fb:	e8 70 b9 ff ff       	call   1270 <get_input>
    5900:	89 45 fc             	mov    DWORD PTR [rbp-0x4],eax
    5903:	81 7d fc 43 02 00 00 	cmp    DWORD PTR [rbp-0x4],0x243
    590a:	75 05                	jne    5911 <main+0x45fa>
    590c:	e9 58 84 00 00       	jmp    dd69 <main+0xca52>
    5911:	81 7d fc 8c 00 00 00 	cmp    DWORD PTR [rbp-0x4],0x8c
    5918:	75 05                	jne    591f <main+0x4608>
    591a:	e9 bc ea ff ff       	jmp    43db <main+0x30c4>
    591f:	48 8d 05 02 97 00 00 	lea    rax,[rip+0x9702]        # f028 <_IO_stdin_used+0x28>
    5926:	48 89 c7             	mov    rdi,rax
    5929:	e8 92 b7 ff ff       	call   10c0 <puts@plt>
    592e:	bf 01 00 00 00       	mov    edi,0x1
    5933:	e8 f8 b7 ff ff       	call   1130 <exit@plt>
    5938:	be c9 00 00 00       	mov    esi,0xc9
    593d:	48 8d 05 d5 96 00 00 	lea    rax,[rip+0x96d5]        # f019 <_IO_stdin_used+0x19>
    5944:	48 89 c7             	mov    rdi,rax
    5947:	b8 00 00 00 00       	mov    eax,0x0
    594c:	e8 9f b7 ff ff       	call   10f0 <printf@plt>
    5951:	b8 00 00 00 00       	mov    eax,0x0
    5956:	e8 15 b9 ff ff       	call   1270 <get_input>
    595b:	89 45 fc             	mov    DWORD PTR [rbp-0x4],eax
    595e:	81 7d fc 47 02 00 00 	cmp    DWORD PTR [rbp-0x4],0x247
    5965:	75 05                	jne    596c <main+0x4655>
    5967:	e9 9d 85 00 00       	jmp    df09 <main+0xcbf2>
    596c:	81 7d fc aa 01 00 00 	cmp    DWORD PTR [rbp-0x4],0x1aa
    5973:	75 05                	jne    597a <main+0x4663>
    5975:	e9 c8 4e 00 00       	jmp    a842 <main+0x952b>
    597a:	48 8d 05 a7 96 00 00 	lea    rax,[rip+0x96a7]        # f028 <_IO_stdin_used+0x28>
    5981:	48 89 c7             	mov    rdi,rax
    5984:	e8 37 b7 ff ff       	call   10c0 <puts@plt>
    5989:	bf 01 00 00 00       	mov    edi,0x1
    598e:	e8 9d b7 ff ff       	call   1130 <exit@plt>
    5993:	be ca 00 00 00       	mov    esi,0xca
    5998:	48 8d 05 7a 96 00 00 	lea    rax,[rip+0x967a]        # f019 <_IO_stdin_used+0x19>
    599f:	48 89 c7             	mov    rdi,rax
    59a2:	b8 00 00 00 00       	mov    eax,0x0
    59a7:	e8 44 b7 ff ff       	call   10f0 <printf@plt>
    59ac:	b8 00 00 00 00       	mov    eax,0x0
    59b1:	e8 ba b8 ff ff       	call   1270 <get_input>
    59b6:	89 45 fc             	mov    DWORD PTR [rbp-0x4],eax
    59b9:	81 7d fc 06 02 00 00 	cmp    DWORD PTR [rbp-0x4],0x206
    59c0:	75 05                	jne    59c7 <main+0x46b0>
    59c2:	e9 e3 6d 00 00       	jmp    c7aa <main+0xb493>
    59c7:	83 7d fc 57          	cmp    DWORD PTR [rbp-0x4],0x57
    59cb:	75 05                	jne    59d2 <main+0x46bb>
    59cd:	e9 65 d7 ff ff       	jmp    3137 <main+0x1e20>
    59d2:	83 7d fc 14          	cmp    DWORD PTR [rbp-0x4],0x14
    59d6:	75 05                	jne    59dd <main+0x46c6>
    59d8:	e9 20 c0 ff ff       	jmp    19fd <main+0x6e6>
    59dd:	48 8d 05 44 96 00 00 	lea    rax,[rip+0x9644]        # f028 <_IO_stdin_used+0x28>
    59e4:	48 89 c7             	mov    rdi,rax
    59e7:	e8 d4 b6 ff ff       	call   10c0 <puts@plt>
    59ec:	bf 01 00 00 00       	mov    edi,0x1
    59f1:	e8 3a b7 ff ff       	call   1130 <exit@plt>
    59f6:	90                   	nop
    59f7:	be cb 00 00 00       	mov    esi,0xcb
    59fc:	48 8d 05 16 96 00 00 	lea    rax,[rip+0x9616]        # f019 <_IO_stdin_used+0x19>
    5a03:	48 89 c7             	mov    rdi,rax
    5a06:	b8 00 00 00 00       	mov    eax,0x0
    5a0b:	e8 e0 b6 ff ff       	call   10f0 <printf@plt>
    5a10:	b8 00 00 00 00       	mov    eax,0x0
    5a15:	e8 56 b8 ff ff       	call   1270 <get_input>
    5a1a:	89 45 fc             	mov    DWORD PTR [rbp-0x4],eax
    5a1d:	83 7d fc 59          	cmp    DWORD PTR [rbp-0x4],0x59
    5a21:	75 05                	jne    5a28 <main+0x4711>
    5a23:	e9 b5 d7 ff ff       	jmp    31dd <main+0x1ec6>
    5a28:	48 8d 05 f9 95 00 00 	lea    rax,[rip+0x95f9]        # f028 <_IO_stdin_used+0x28>
    5a2f:	48 89 c7             	mov    rdi,rax
    5a32:	e8 89 b6 ff ff       	call   10c0 <puts@plt>
    5a37:	bf 01 00 00 00       	mov    edi,0x1
    5a3c:	e8 ef b6 ff ff       	call   1130 <exit@plt>
    5a41:	be cc 00 00 00       	mov    esi,0xcc
    5a46:	48 8d 05 cc 95 00 00 	lea    rax,[rip+0x95cc]        # f019 <_IO_stdin_used+0x19>
    5a4d:	48 89 c7             	mov    rdi,rax
    5a50:	b8 00 00 00 00       	mov    eax,0x0
    5a55:	e8 96 b6 ff ff       	call   10f0 <printf@plt>
    5a5a:	b8 00 00 00 00       	mov    eax,0x0
    5a5f:	e8 0c b8 ff ff       	call   1270 <get_input>
    5a64:	89 45 fc             	mov    DWORD PTR [rbp-0x4],eax
    5a67:	81 7d fc b8 01 00 00 	cmp    DWORD PTR [rbp-0x4],0x1b8
    5a6e:	75 05                	jne    5a75 <main+0x475e>
    5a70:	e9 70 52 00 00       	jmp    ace5 <main+0x99ce>
    5a75:	81 7d fc 26 02 00 00 	cmp    DWORD PTR [rbp-0x4],0x226
    5a7c:	75 05                	jne    5a83 <main+0x476c>
    5a7e:	e9 61 78 00 00       	jmp    d2e4 <main+0xbfcd>
    5a83:	48 8d 05 9e 95 00 00 	lea    rax,[rip+0x959e]        # f028 <_IO_stdin_used+0x28>
    5a8a:	48 89 c7             	mov    rdi,rax
    5a8d:	e8 2e b6 ff ff       	call   10c0 <puts@plt>
    5a92:	bf 01 00 00 00       	mov    edi,0x1
    5a97:	e8 94 b6 ff ff       	call   1130 <exit@plt>
    5a9c:	be cd 00 00 00       	mov    esi,0xcd
    5aa1:	48 8d 05 71 95 00 00 	lea    rax,[rip+0x9571]        # f019 <_IO_stdin_used+0x19>
    5aa8:	48 89 c7             	mov    rdi,rax
    5aab:	b8 00 00 00 00       	mov    eax,0x0
    5ab0:	e8 3b b6 ff ff       	call   10f0 <printf@plt>
    5ab5:	b8 00 00 00 00       	mov    eax,0x0
    5aba:	e8 b1 b7 ff ff       	call   1270 <get_input>
    5abf:	89 45 fc             	mov    DWORD PTR [rbp-0x4],eax
    5ac2:	81 7d fc 55 02 00 00 	cmp    DWORD PTR [rbp-0x4],0x255
    5ac9:	75 05                	jne    5ad0 <main+0x47b9>
    5acb:	e9 7b 89 00 00       	jmp    e44b <main+0xd134>
    5ad0:	81 7d fc a0 00 00 00 	cmp    DWORD PTR [rbp-0x4],0xa0
    5ad7:	75 05                	jne    5ade <main+0x47c7>
    5ad9:	e9 21 f0 ff ff       	jmp    4aff <main+0x37e8>
    5ade:	48 8d 05 43 95 00 00 	lea    rax,[rip+0x9543]        # f028 <_IO_stdin_used+0x28>
    5ae5:	48 89 c7             	mov    rdi,rax
    5ae8:	e8 d3 b5 ff ff       	call   10c0 <puts@plt>
    5aed:	bf 01 00 00 00       	mov    edi,0x1
    5af2:	e8 39 b6 ff ff       	call   1130 <exit@plt>
    5af7:	90                   	nop
    5af8:	be ce 00 00 00       	mov    esi,0xce
    5afd:	48 8d 05 15 95 00 00 	lea    rax,[rip+0x9515]        # f019 <_IO_stdin_used+0x19>
    5b04:	48 89 c7             	mov    rdi,rax
    5b07:	b8 00 00 00 00       	mov    eax,0x0
    5b0c:	e8 df b5 ff ff       	call   10f0 <printf@plt>
    5b11:	b8 00 00 00 00       	mov    eax,0x0
    5b16:	e8 55 b7 ff ff       	call   1270 <get_input>
    5b1b:	89 45 fc             	mov    DWORD PTR [rbp-0x4],eax
    5b1e:	81 7d fc dd 01 00 00 	cmp    DWORD PTR [rbp-0x4],0x1dd
    5b25:	75 05                	jne    5b2c <main+0x4815>
    5b27:	e9 b0 5e 00 00       	jmp    b9dc <main+0xa6c5>
    5b2c:	48 8d 05 f5 94 00 00 	lea    rax,[rip+0x94f5]        # f028 <_IO_stdin_used+0x28>
    5b33:	48 89 c7             	mov    rdi,rax
    5b36:	e8 85 b5 ff ff       	call   10c0 <puts@plt>
    5b3b:	bf 01 00 00 00       	mov    edi,0x1
    5b40:	e8 eb b5 ff ff       	call   1130 <exit@plt>
    5b45:	be cf 00 00 00       	mov    esi,0xcf
    5b4a:	48 8d 05 c8 94 00 00 	lea    rax,[rip+0x94c8]        # f019 <_IO_stdin_used+0x19>
    5b51:	48 89 c7             	mov    rdi,rax
    5b54:	b8 00 00 00 00       	mov    eax,0x0
    5b59:	e8 92 b5 ff ff       	call   10f0 <printf@plt>
    5b5e:	b8 00 00 00 00       	mov    eax,0x0
    5b63:	e8 08 b7 ff ff       	call   1270 <get_input>
    5b68:	89 45 fc             	mov    DWORD PTR [rbp-0x4],eax
    5b6b:	81 7d fc 92 01 00 00 	cmp    DWORD PTR [rbp-0x4],0x192
    5b72:	75 05                	jne    5b79 <main+0x4862>
    5b74:	e9 0e 44 00 00       	jmp    9f87 <main+0x8c70>
    5b79:	81 7d fc 13 01 00 00 	cmp    DWORD PTR [rbp-0x4],0x113
    5b80:	0f 84 5f 17 00 00    	je     72e5 <main+0x5fce>
    5b86:	83 7d fc 0e          	cmp    DWORD PTR [rbp-0x4],0xe
    5b8a:	75 05                	jne    5b91 <main+0x487a>
    5b8c:	e9 43 bc ff ff       	jmp    17d4 <main+0x4bd>
    5b91:	48 8d 05 90 94 00 00 	lea    rax,[rip+0x9490]        # f028 <_IO_stdin_used+0x28>
    5b98:	48 89 c7             	mov    rdi,rax
    5b9b:	e8 20 b5 ff ff       	call   10c0 <puts@plt>
    5ba0:	bf 01 00 00 00       	mov    edi,0x1
    5ba5:	e8 86 b5 ff ff       	call   1130 <exit@plt>
    5baa:	90                   	nop
    5bab:	be d0 00 00 00       	mov    esi,0xd0
    5bb0:	48 8d 05 62 94 00 00 	lea    rax,[rip+0x9462]        # f019 <_IO_stdin_used+0x19>
    5bb7:	48 89 c7             	mov    rdi,rax
    5bba:	b8 00 00 00 00       	mov    eax,0x0
    5bbf:	e8 2c b5 ff ff       	call   10f0 <printf@plt>
    5bc4:	b8 00 00 00 00       	mov    eax,0x0
    5bc9:	e8 a2 b6 ff ff       	call   1270 <get_input>
    5bce:	89 45 fc             	mov    DWORD PTR [rbp-0x4],eax
    5bd1:	81 7d fc eb 00 00 00 	cmp    DWORD PTR [rbp-0x4],0xeb
    5bd8:	75 05                	jne    5bdf <main+0x48c8>
    5bda:	e9 0a 09 00 00       	jmp    64e9 <main+0x51d2>
    5bdf:	48 8d 05 42 94 00 00 	lea    rax,[rip+0x9442]        # f028 <_IO_stdin_used+0x28>
    5be6:	48 89 c7             	mov    rdi,rax
    5be9:	e8 d2 b4 ff ff       	call   10c0 <puts@plt>
    5bee:	bf 01 00 00 00       	mov    edi,0x1
    5bf3:	e8 38 b5 ff ff       	call   1130 <exit@plt>
    5bf8:	be d1 00 00 00       	mov    esi,0xd1
    5bfd:	48 8d 05 15 94 00 00 	lea    rax,[rip+0x9415]        # f019 <_IO_stdin_used+0x19>
    5c04:	48 89 c7             	mov    rdi,rax
    5c07:	b8 00 00 00 00       	mov    eax,0x0
    5c0c:	e8 df b4 ff ff       	call   10f0 <printf@plt>
    5c11:	b8 00 00 00 00       	mov    eax,0x0
    5c16:	e8 55 b6 ff ff       	call   1270 <get_input>
    5c1b:	89 45 fc             	mov    DWORD PTR [rbp-0x4],eax
    5c1e:	81 7d fc 46 02 00 00 	cmp    DWORD PTR [rbp-0x4],0x246
    5c25:	75 05                	jne    5c2c <main+0x4915>
    5c27:	e9 74 82 00 00       	jmp    dea0 <main+0xcb89>
    5c2c:	81 7d fc 3c 02 00 00 	cmp    DWORD PTR [rbp-0x4],0x23c
    5c33:	0f 84 cc 7e 00 00    	je     db05 <main+0xc7ee>
    5c39:	48 8d 05 e8 93 00 00 	lea    rax,[rip+0x93e8]        # f028 <_IO_stdin_used+0x28>
    5c40:	48 89 c7             	mov    rdi,rax
    5c43:	e8 78 b4 ff ff       	call   10c0 <puts@plt>
    5c48:	bf 01 00 00 00       	mov    edi,0x1
    5c4d:	e8 de b4 ff ff       	call   1130 <exit@plt>
    5c52:	be d2 00 00 00       	mov    esi,0xd2
    5c57:	48 8d 05 bb 93 00 00 	lea    rax,[rip+0x93bb]        # f019 <_IO_stdin_used+0x19>
    5c5e:	48 89 c7             	mov    rdi,rax
    5c61:	b8 00 00 00 00       	mov    eax,0x0
    5c66:	e8 85 b4 ff ff       	call   10f0 <printf@plt>
    5c6b:	b8 00 00 00 00       	mov    eax,0x0
    5c70:	e8 fb b5 ff ff       	call   1270 <get_input>
    5c75:	89 45 fc             	mov    DWORD PTR [rbp-0x4],eax
    5c78:	81 7d fc 8d 00 00 00 	cmp    DWORD PTR [rbp-0x4],0x8d
    5c7f:	75 05                	jne    5c86 <main+0x496f>
    5c81:	e9 ad e7 ff ff       	jmp    4433 <main+0x311c>
    5c86:	81 7d fc 57 02 00 00 	cmp    DWORD PTR [rbp-0x4],0x257
    5c8d:	75 05                	jne    5c94 <main+0x497d>
    5c8f:	e9 5d 88 00 00       	jmp    e4f1 <main+0xd1da>
    5c94:	48 8d 05 8d 93 00 00 	lea    rax,[rip+0x938d]        # f028 <_IO_stdin_used+0x28>
    5c9b:	48 89 c7             	mov    rdi,rax
    5c9e:	e8 1d b4 ff ff       	call   10c0 <puts@plt>
    5ca3:	bf 01 00 00 00       	mov    edi,0x1
    5ca8:	e8 83 b4 ff ff       	call   1130 <exit@plt>
    5cad:	be d3 00 00 00       	mov    esi,0xd3
    5cb2:	48 8d 05 60 93 00 00 	lea    rax,[rip+0x9360]        # f019 <_IO_stdin_used+0x19>
    5cb9:	48 89 c7             	mov    rdi,rax
    5cbc:	b8 00 00 00 00       	mov    eax,0x0
    5cc1:	e8 2a b4 ff ff       	call   10f0 <printf@plt>
    5cc6:	b8 00 00 00 00       	mov    eax,0x0
    5ccb:	e8 a0 b5 ff ff       	call   1270 <get_input>
    5cd0:	89 45 fc             	mov    DWORD PTR [rbp-0x4],eax
    5cd3:	81 7d fc f3 00 00 00 	cmp    DWORD PTR [rbp-0x4],0xf3
    5cda:	75 05                	jne    5ce1 <main+0x49ca>
    5cdc:	e9 e0 0a 00 00       	jmp    67c1 <main+0x54aa>
    5ce1:	81 7d fc ae 00 00 00 	cmp    DWORD PTR [rbp-0x4],0xae
    5ce8:	75 05                	jne    5cef <main+0x49d8>
    5cea:	e9 e1 f2 ff ff       	jmp    4fd0 <main+0x3cb9>
    5cef:	48 8d 05 32 93 00 00 	lea    rax,[rip+0x9332]        # f028 <_IO_stdin_used+0x28>
    5cf6:	48 89 c7             	mov    rdi,rax
    5cf9:	e8 c2 b3 ff ff       	call   10c0 <puts@plt>
    5cfe:	bf 01 00 00 00       	mov    edi,0x1
    5d03:	e8 28 b4 ff ff       	call   1130 <exit@plt>
    5d08:	90                   	nop
    5d09:	be d4 00 00 00       	mov    esi,0xd4
    5d0e:	48 8d 05 04 93 00 00 	lea    rax,[rip+0x9304]        # f019 <_IO_stdin_used+0x19>
    5d15:	48 89 c7             	mov    rdi,rax
    5d18:	b8 00 00 00 00       	mov    eax,0x0
    5d1d:	e8 ce b3 ff ff       	call   10f0 <printf@plt>
    5d22:	b8 00 00 00 00       	mov    eax,0x0
    5d27:	e8 44 b5 ff ff       	call   1270 <get_input>
    5d2c:	89 45 fc             	mov    DWORD PTR [rbp-0x4],eax
    5d2f:	81 7d fc b7 01 00 00 	cmp    DWORD PTR [rbp-0x4],0x1b7
    5d36:	75 05                	jne    5d3d <main+0x4a26>
    5d38:	e9 43 4f 00 00       	jmp    ac80 <main+0x9969>
    5d3d:	48 8d 05 e4 92 00 00 	lea    rax,[rip+0x92e4]        # f028 <_IO_stdin_used+0x28>
    5d44:	48 89 c7             	mov    rdi,rax
    5d47:	e8 74 b3 ff ff       	call   10c0 <puts@plt>
    5d4c:	bf 01 00 00 00       	mov    edi,0x1
    5d51:	e8 da b3 ff ff       	call   1130 <exit@plt>
    5d56:	90                   	nop
    5d57:	be d5 00 00 00       	mov    esi,0xd5
    5d5c:	48 8d 05 b6 92 00 00 	lea    rax,[rip+0x92b6]        # f019 <_IO_stdin_used+0x19>
    5d63:	48 89 c7             	mov    rdi,rax
    5d66:	b8 00 00 00 00       	mov    eax,0x0
    5d6b:	e8 80 b3 ff ff       	call   10f0 <printf@plt>
    5d70:	b8 00 00 00 00       	mov    eax,0x0
    5d75:	e8 f6 b4 ff ff       	call   1270 <get_input>
    5d7a:	89 45 fc             	mov    DWORD PTR [rbp-0x4],eax
    5d7d:	81 7d fc 22 02 00 00 	cmp    DWORD PTR [rbp-0x4],0x222
    5d84:	75 05                	jne    5d8b <main+0x4a74>
    5d86:	e9 e2 73 00 00       	jmp    d16d <main+0xbe56>
    5d8b:	48 8d 05 96 92 00 00 	lea    rax,[rip+0x9296]        # f028 <_IO_stdin_used+0x28>
    5d92:	48 89 c7             	mov    rdi,rax
    5d95:	e8 26 b3 ff ff       	call   10c0 <puts@plt>
    5d9a:	bf 01 00 00 00       	mov    edi,0x1
    5d9f:	e8 8c b3 ff ff       	call   1130 <exit@plt>
    5da4:	be d6 00 00 00       	mov    esi,0xd6
    5da9:	48 8d 05 69 92 00 00 	lea    rax,[rip+0x9269]        # f019 <_IO_stdin_used+0x19>
    5db0:	48 89 c7             	mov    rdi,rax
    5db3:	b8 00 00 00 00       	mov    eax,0x0
    5db8:	e8 33 b3 ff ff       	call   10f0 <printf@plt>
    5dbd:	b8 00 00 00 00       	mov    eax,0x0
    5dc2:	e8 a9 b4 ff ff       	call   1270 <get_input>
    5dc7:	89 45 fc             	mov    DWORD PTR [rbp-0x4],eax
    5dca:	81 7d fc f8 01 00 00 	cmp    DWORD PTR [rbp-0x4],0x1f8
    5dd1:	0f 84 3e 65 00 00    	je     c315 <main+0xaffe>
    5dd7:	81 7d fc 04 01 00 00 	cmp    DWORD PTR [rbp-0x4],0x104
    5dde:	75 05                	jne    5de5 <main+0x4ace>
    5de0:	e9 d8 0f 00 00       	jmp    6dbd <main+0x5aa6>
    5de5:	48 8d 05 3c 92 00 00 	lea    rax,[rip+0x923c]        # f028 <_IO_stdin_used+0x28>
    5dec:	48 89 c7             	mov    rdi,rax
    5def:	e8 cc b2 ff ff       	call   10c0 <puts@plt>
    5df4:	bf 01 00 00 00       	mov    edi,0x1
    5df9:	e8 32 b3 ff ff       	call   1130 <exit@plt>
    5dfe:	be d7 00 00 00       	mov    esi,0xd7
    5e03:	48 8d 05 0f 92 00 00 	lea    rax,[rip+0x920f]        # f019 <_IO_stdin_used+0x19>
    5e0a:	48 89 c7             	mov    rdi,rax
    5e0d:	b8 00 00 00 00       	mov    eax,0x0
    5e12:	e8 d9 b2 ff ff       	call   10f0 <printf@plt>
    5e17:	b8 00 00 00 00       	mov    eax,0x0
    5e1c:	e8 4f b4 ff ff       	call   1270 <get_input>
    5e21:	89 45 fc             	mov    DWORD PTR [rbp-0x4],eax
    5e24:	81 7d fc 33 02 00 00 	cmp    DWORD PTR [rbp-0x4],0x233
    5e2b:	75 05                	jne    5e32 <main+0x4b1b>
    5e2d:	e9 7f 79 00 00       	jmp    d7b1 <main+0xc49a>
    5e32:	81 7d fc 46 02 00 00 	cmp    DWORD PTR [rbp-0x4],0x246
    5e39:	75 05                	jne    5e40 <main+0x4b29>
    5e3b:	e9 60 80 00 00       	jmp    dea0 <main+0xcb89>
    5e40:	48 8d 05 e1 91 00 00 	lea    rax,[rip+0x91e1]        # f028 <_IO_stdin_used+0x28>
    5e47:	48 89 c7             	mov    rdi,rax
    5e4a:	e8 71 b2 ff ff       	call   10c0 <puts@plt>
    5e4f:	bf 01 00 00 00       	mov    edi,0x1
    5e54:	e8 d7 b2 ff ff       	call   1130 <exit@plt>
    5e59:	be d8 00 00 00       	mov    esi,0xd8
    5e5e:	48 8d 05 b4 91 00 00 	lea    rax,[rip+0x91b4]        # f019 <_IO_stdin_used+0x19>
    5e65:	48 89 c7             	mov    rdi,rax
    5e68:	b8 00 00 00 00       	mov    eax,0x0
    5e6d:	e8 7e b2 ff ff       	call   10f0 <printf@plt>
    5e72:	b8 00 00 00 00       	mov    eax,0x0
    5e77:	e8 f4 b3 ff ff       	call   1270 <get_input>
    5e7c:	89 45 fc             	mov    DWORD PTR [rbp-0x4],eax
    5e7f:	83 7d fc 12          	cmp    DWORD PTR [rbp-0x4],0x12
