
angr_management_test:     Dateiformat elf64-x86-64


Disassembly of section .init:

0000000000001000 <_init>:
    1000:	f3 0f 1e fa          	endbr64
    1004:	48 83 ec 08          	sub    rsp,0x8
    1008:	48 8b 05 d9 ff 00 00 	mov    rax,QWORD PTR [rip+0xffd9]        # 10fe8 <__gmon_start__@Base>
    100f:	48 85 c0             	test   rax,rax
    1012:	74 02                	je     1016 <_init+0x16>
    1014:	ff d0                	call   rax
    1016:	48 83 c4 08          	add    rsp,0x8
    101a:	c3                   	ret

Disassembly of section .plt:

0000000000001020 <.plt>:
    1020:	ff 35 62 ff 00 00    	push   QWORD PTR [rip+0xff62]        # 10f88 <_GLOBAL_OFFSET_TABLE_+0x8>
    1026:	f2 ff 25 63 ff 00 00 	bnd jmp QWORD PTR [rip+0xff63]        # 10f90 <_GLOBAL_OFFSET_TABLE_+0x10>
    102d:	0f 1f 00             	nop    DWORD PTR [rax]
    1030:	f3 0f 1e fa          	endbr64
    1034:	68 00 00 00 00       	push   0x0
    1039:	f2 e9 e1 ff ff ff    	bnd jmp 1020 <_init+0x20>
    103f:	90                   	nop
    1040:	f3 0f 1e fa          	endbr64
    1044:	68 01 00 00 00       	push   0x1
    1049:	f2 e9 d1 ff ff ff    	bnd jmp 1020 <_init+0x20>
    104f:	90                   	nop
    1050:	f3 0f 1e fa          	endbr64
    1054:	68 02 00 00 00       	push   0x2
    1059:	f2 e9 c1 ff ff ff    	bnd jmp 1020 <_init+0x20>
    105f:	90                   	nop
    1060:	f3 0f 1e fa          	endbr64
    1064:	68 03 00 00 00       	push   0x3
    1069:	f2 e9 b1 ff ff ff    	bnd jmp 1020 <_init+0x20>
    106f:	90                   	nop
    1070:	f3 0f 1e fa          	endbr64
    1074:	68 04 00 00 00       	push   0x4
    1079:	f2 e9 a1 ff ff ff    	bnd jmp 1020 <_init+0x20>
    107f:	90                   	nop
    1080:	f3 0f 1e fa          	endbr64
    1084:	68 05 00 00 00       	push   0x5
    1089:	f2 e9 91 ff ff ff    	bnd jmp 1020 <_init+0x20>
    108f:	90                   	nop
    1090:	f3 0f 1e fa          	endbr64
    1094:	68 06 00 00 00       	push   0x6
    1099:	f2 e9 81 ff ff ff    	bnd jmp 1020 <_init+0x20>
    109f:	90                   	nop
    10a0:	f3 0f 1e fa          	endbr64
    10a4:	68 07 00 00 00       	push   0x7
    10a9:	f2 e9 71 ff ff ff    	bnd jmp 1020 <_init+0x20>
    10af:	90                   	nop

Disassembly of section .plt.got:

00000000000010b0 <__cxa_finalize@plt>:
    10b0:	f3 0f 1e fa          	endbr64
    10b4:	f2 ff 25 3d ff 00 00 	bnd jmp QWORD PTR [rip+0xff3d]        # 10ff8 <__cxa_finalize@GLIBC_2.2.5>
    10bb:	0f 1f 44 00 00       	nop    DWORD PTR [rax+rax*1+0x0]

Disassembly of section .plt.sec:

00000000000010c0 <puts@plt>:
    10c0:	f3 0f 1e fa          	endbr64
    10c4:	f2 ff 25 cd fe 00 00 	bnd jmp QWORD PTR [rip+0xfecd]        # 10f98 <puts@GLIBC_2.2.5>
    10cb:	0f 1f 44 00 00       	nop    DWORD PTR [rax+rax*1+0x0]

00000000000010d0 <__stack_chk_fail@plt>:
    10d0:	f3 0f 1e fa          	endbr64
    10d4:	f2 ff 25 c5 fe 00 00 	bnd jmp QWORD PTR [rip+0xfec5]        # 10fa0 <__stack_chk_fail@GLIBC_2.4>
    10db:	0f 1f 44 00 00       	nop    DWORD PTR [rax+rax*1+0x0]

00000000000010e0 <setbuf@plt>:
    10e0:	f3 0f 1e fa          	endbr64
    10e4:	f2 ff 25 bd fe 00 00 	bnd jmp QWORD PTR [rip+0xfebd]        # 10fa8 <setbuf@GLIBC_2.2.5>
    10eb:	0f 1f 44 00 00       	nop    DWORD PTR [rax+rax*1+0x0]

00000000000010f0 <printf@plt>:
    10f0:	f3 0f 1e fa          	endbr64
    10f4:	f2 ff 25 b5 fe 00 00 	bnd jmp QWORD PTR [rip+0xfeb5]        # 10fb0 <printf@GLIBC_2.2.5>
    10fb:	0f 1f 44 00 00       	nop    DWORD PTR [rax+rax*1+0x0]

0000000000001100 <strcspn@plt>:
    1100:	f3 0f 1e fa          	endbr64
    1104:	f2 ff 25 ad fe 00 00 	bnd jmp QWORD PTR [rip+0xfead]        # 10fb8 <strcspn@GLIBC_2.2.5>
    110b:	0f 1f 44 00 00       	nop    DWORD PTR [rax+rax*1+0x0]

0000000000001110 <fgets@plt>:
    1110:	f3 0f 1e fa          	endbr64
    1114:	f2 ff 25 a5 fe 00 00 	bnd jmp QWORD PTR [rip+0xfea5]        # 10fc0 <fgets@GLIBC_2.2.5>
    111b:	0f 1f 44 00 00       	nop    DWORD PTR [rax+rax*1+0x0]

0000000000001120 <strtol@plt>:
    1120:	f3 0f 1e fa          	endbr64
    1124:	f2 ff 25 9d fe 00 00 	bnd jmp QWORD PTR [rip+0xfe9d]        # 10fc8 <strtol@GLIBC_2.2.5>
    112b:	0f 1f 44 00 00       	nop    DWORD PTR [rax+rax*1+0x0]

0000000000001130 <exit@plt>:
    1130:	f3 0f 1e fa          	endbr64
    1134:	f2 ff 25 95 fe 00 00 	bnd jmp QWORD PTR [rip+0xfe95]        # 10fd0 <exit@GLIBC_2.2.5>
    113b:	0f 1f 44 00 00       	nop    DWORD PTR [rax+rax*1+0x0]

Disassembly of section .text:

0000000000001140 <_start>:
    1140:	f3 0f 1e fa          	endbr64
    1144:	31 ed                	xor    ebp,ebp
    1146:	49 89 d1             	mov    r9,rdx
    1149:	5e                   	pop    rsi
    114a:	48 89 e2             	mov    rdx,rsp
    114d:	48 83 e4 f0          	and    rsp,0xfffffffffffffff0
    1151:	50                   	push   rax
    1152:	54                   	push   rsp
    1153:	45 31 c0             	xor    r8d,r8d
    1156:	31 c9                	xor    ecx,ecx
    1158:	48 8d 3d b8 01 00 00 	lea    rdi,[rip+0x1b8]        # 1317 <main>
    115f:	ff 15 73 fe 00 00    	call   QWORD PTR [rip+0xfe73]        # 10fd8 <__libc_start_main@GLIBC_2.34>
    1165:	f4                   	hlt
    1166:	66 2e 0f 1f 84 00 00 	cs nop WORD PTR [rax+rax*1+0x0]
    116d:	00 00 00 

0000000000001170 <deregister_tm_clones>:
    1170:	48 8d 3d 99 fe 00 00 	lea    rdi,[rip+0xfe99]        # 11010 <__TMC_END__>
    1177:	48 8d 05 92 fe 00 00 	lea    rax,[rip+0xfe92]        # 11010 <__TMC_END__>
    117e:	48 39 f8             	cmp    rax,rdi
    1181:	74 15                	je     1198 <deregister_tm_clones+0x28>
    1183:	48 8b 05 56 fe 00 00 	mov    rax,QWORD PTR [rip+0xfe56]        # 10fe0 <_ITM_deregisterTMCloneTable@Base>
    118a:	48 85 c0             	test   rax,rax
    118d:	74 09                	je     1198 <deregister_tm_clones+0x28>
    118f:	ff e0                	jmp    rax
    1191:	0f 1f 80 00 00 00 00 	nop    DWORD PTR [rax+0x0]
    1198:	c3                   	ret
    1199:	0f 1f 80 00 00 00 00 	nop    DWORD PTR [rax+0x0]

00000000000011a0 <register_tm_clones>:
    11a0:	48 8d 3d 69 fe 00 00 	lea    rdi,[rip+0xfe69]        # 11010 <__TMC_END__>
    11a7:	48 8d 35 62 fe 00 00 	lea    rsi,[rip+0xfe62]        # 11010 <__TMC_END__>
    11ae:	48 29 fe             	sub    rsi,rdi
    11b1:	48 89 f0             	mov    rax,rsi
    11b4:	48 c1 ee 3f          	shr    rsi,0x3f
    11b8:	48 c1 f8 03          	sar    rax,0x3
    11bc:	48 01 c6             	add    rsi,rax
    11bf:	48 d1 fe             	sar    rsi,1
    11c2:	74 14                	je     11d8 <register_tm_clones+0x38>
    11c4:	48 8b 05 25 fe 00 00 	mov    rax,QWORD PTR [rip+0xfe25]        # 10ff0 <_ITM_registerTMCloneTable@Base>
    11cb:	48 85 c0             	test   rax,rax
    11ce:	74 08                	je     11d8 <register_tm_clones+0x38>
    11d0:	ff e0                	jmp    rax
    11d2:	66 0f 1f 44 00 00    	nop    WORD PTR [rax+rax*1+0x0]
    11d8:	c3                   	ret
    11d9:	0f 1f 80 00 00 00 00 	nop    DWORD PTR [rax+0x0]

00000000000011e0 <__do_global_dtors_aux>:
    11e0:	f3 0f 1e fa          	endbr64
    11e4:	80 3d 5d fe 00 00 00 	cmp    BYTE PTR [rip+0xfe5d],0x0        # 11048 <completed.0>
    11eb:	75 2b                	jne    1218 <__do_global_dtors_aux+0x38>
    11ed:	55                   	push   rbp
    11ee:	48 83 3d 02 fe 00 00 	cmp    QWORD PTR [rip+0xfe02],0x0        # 10ff8 <__cxa_finalize@GLIBC_2.2.5>
    11f5:	00 
    11f6:	48 89 e5             	mov    rbp,rsp
    11f9:	74 0c                	je     1207 <__do_global_dtors_aux+0x27>
    11fb:	48 8b 3d 06 fe 00 00 	mov    rdi,QWORD PTR [rip+0xfe06]        # 11008 <__dso_handle>
    1202:	e8 a9 fe ff ff       	call   10b0 <__cxa_finalize@plt>
    1207:	e8 64 ff ff ff       	call   1170 <deregister_tm_clones>
    120c:	c6 05 35 fe 00 00 01 	mov    BYTE PTR [rip+0xfe35],0x1        # 11048 <completed.0>
    1213:	5d                   	pop    rbp
    1214:	c3                   	ret
    1215:	0f 1f 00             	nop    DWORD PTR [rax]
    1218:	c3                   	ret
    1219:	0f 1f 80 00 00 00 00 	nop    DWORD PTR [rax+0x0]

0000000000001220 <frame_dummy>:
    1220:	f3 0f 1e fa          	endbr64
    1224:	e9 77 ff ff ff       	jmp    11a0 <register_tm_clones>

0000000000001229 <flush_buf>:
    1229:	f3 0f 1e fa          	endbr64
    122d:	55                   	push   rbp
    122e:	48 89 e5             	mov    rbp,rsp
    1231:	48 8b 05 f8 fd 00 00 	mov    rax,QWORD PTR [rip+0xfdf8]        # 11030 <stdin@GLIBC_2.2.5>
    1238:	be 00 00 00 00       	mov    esi,0x0
    123d:	48 89 c7             	mov    rdi,rax
    1240:	e8 9b fe ff ff       	call   10e0 <setbuf@plt>
    1245:	48 8b 05 d4 fd 00 00 	mov    rax,QWORD PTR [rip+0xfdd4]        # 11020 <stdout@GLIBC_2.2.5>
    124c:	be 00 00 00 00       	mov    esi,0x0
    1251:	48 89 c7             	mov    rdi,rax
    1254:	e8 87 fe ff ff       	call   10e0 <setbuf@plt>
    1259:	48 8b 05 e0 fd 00 00 	mov    rax,QWORD PTR [rip+0xfde0]        # 11040 <stderr@GLIBC_2.2.5>
    1260:	be 00 00 00 00       	mov    esi,0x0
    1265:	48 89 c7             	mov    rdi,rax
    1268:	e8 73 fe ff ff       	call   10e0 <setbuf@plt>
    126d:	90                   	nop
    126e:	5d                   	pop    rbp
    126f:	c3                   	ret

0000000000001270 <get_input>:
    1270:	f3 0f 1e fa          	endbr64
    1274:	55                   	push   rbp
    1275:	48 89 e5             	mov    rbp,rsp
    1278:	48 83 ec 20          	sub    rsp,0x20
    127c:	64 48 8b 04 25 28 00 	mov    rax,QWORD PTR fs:0x28
    1283:	00 00 
    1285:	48 89 45 f8          	mov    QWORD PTR [rbp-0x8],rax
    1289:	31 c0                	xor    eax,eax
    128b:	c7 45 f3 00 00 00 00 	mov    DWORD PTR [rbp-0xd],0x0
    1292:	c6 45 f7 00          	mov    BYTE PTR [rbp-0x9],0x0
    1296:	48 8b 15 93 fd 00 00 	mov    rdx,QWORD PTR [rip+0xfd93]        # 11030 <stdin@GLIBC_2.2.5>
    129d:	48 8d 45 f3          	lea    rax,[rbp-0xd]
    12a1:	be 05 00 00 00       	mov    esi,0x5
    12a6:	48 89 c7             	mov    rdi,rax
    12a9:	e8 62 fe ff ff       	call   1110 <fgets@plt>
    12ae:	48 85 c0             	test   rax,rax
    12b1:	74 44                	je     12f7 <get_input+0x87>
    12b3:	48 8d 45 f3          	lea    rax,[rbp-0xd]
    12b7:	48 8d 15 4a dd 00 00 	lea    rdx,[rip+0xdd4a]        # f008 <_IO_stdin_used+0x8>
    12be:	48 89 d6             	mov    rsi,rdx
    12c1:	48 89 c7             	mov    rdi,rax
    12c4:	e8 37 fe ff ff       	call   1100 <strcspn@plt>
    12c9:	c6 44 05 f3 00       	mov    BYTE PTR [rbp+rax*1-0xd],0x0
    12ce:	48 8d 4d e8          	lea    rcx,[rbp-0x18]
    12d2:	48 8d 45 f3          	lea    rax,[rbp-0xd]
    12d6:	ba 0a 00 00 00       	mov    edx,0xa
    12db:	48 89 ce             	mov    rsi,rcx
    12de:	48 89 c7             	mov    rdi,rax
    12e1:	e8 3a fe ff ff       	call   1120 <strtol@plt>
    12e6:	48 8b 55 f8          	mov    rdx,QWORD PTR [rbp-0x8]
    12ea:	64 48 2b 14 25 28 00 	sub    rdx,QWORD PTR fs:0x28
    12f1:	00 00 
    12f3:	74 20                	je     1315 <get_input+0xa5>
    12f5:	eb 19                	jmp    1310 <get_input+0xa0>
    12f7:	48 8d 05 0c dd 00 00 	lea    rax,[rip+0xdd0c]        # f00a <_IO_stdin_used+0xa>
    12fe:	48 89 c7             	mov    rdi,rax
    1301:	e8 ba fd ff ff       	call   10c0 <puts@plt>
    1306:	bf 01 00 00 00       	mov    edi,0x1
    130b:	e8 20 fe ff ff       	call   1130 <exit@plt>
    1310:	e8 bb fd ff ff       	call   10d0 <__stack_chk_fail@plt>
    1315:	c9                   	leave
    1316:	c3                   	ret

0000000000001317 <main>:
    1317:	f3 0f 1e fa          	endbr64
    131b:	55                   	push   rbp
    131c:	48 89 e5             	mov    rbp,rsp
    131f:	48 83 ec 10          	sub    rsp,0x10
    1323:	be 00 00 00 00       	mov    esi,0x0
    1328:	48 8d 05 ea dc 00 00 	lea    rax,[rip+0xdcea]        # f019 <_IO_stdin_used+0x19>
    132f:	48 89 c7             	mov    rdi,rax
    1332:	b8 00 00 00 00       	mov    eax,0x0
    1337:	e8 b4 fd ff ff       	call   10f0 <printf@plt>
    133c:	b8 00 00 00 00       	mov    eax,0x0
    1341:	e8 2a ff ff ff       	call   1270 <get_input>
    1346:	89 45 fc             	mov    DWORD PTR [rbp-0x4],eax
    1349:	81 7d fc 00 01 00 00 	cmp    DWORD PTR [rbp-0x4],0x100
    1350:	75 05                	jne    1357 <main+0x40>
    1352:	e9 11 59 00 00       	jmp    6c68 <main+0x5951>
    1357:	83 7d fc 58          	cmp    DWORD PTR [rbp-0x4],0x58
    135b:	0f 84 31 1e 00 00    	je     3192 <main+0x1e7b>
    1361:	48 8d 05 c0 dc 00 00 	lea    rax,[rip+0xdcc0]        # f028 <_IO_stdin_used+0x28>
    1368:	48 89 c7             	mov    rdi,rax
    136b:	e8 50 fd ff ff       	call   10c0 <puts@plt>
    1370:	bf 01 00 00 00       	mov    edi,0x1
    1375:	e8 b6 fd ff ff       	call   1130 <exit@plt>
    137a:	90                   	nop
    137b:	be 01 00 00 00       	mov    esi,0x1
    1380:	48 8d 05 92 dc 00 00 	lea    rax,[rip+0xdc92]        # f019 <_IO_stdin_used+0x19>
    1387:	48 89 c7             	mov    rdi,rax
    138a:	b8 00 00 00 00       	mov    eax,0x0
    138f:	e8 5c fd ff ff       	call   10f0 <printf@plt>
    1394:	b8 00 00 00 00       	mov    eax,0x0
    1399:	e8 d2 fe ff ff       	call   1270 <get_input>
    139e:	89 45 fc             	mov    DWORD PTR [rbp-0x4],eax
    13a1:	81 7d fc c5 01 00 00 	cmp    DWORD PTR [rbp-0x4],0x1c5
    13a8:	75 05                	jne    13af <main+0x98>
    13aa:	e9 dd 9d 00 00       	jmp    b18c <main+0x9e75>
    13af:	48 8d 05 72 dc 00 00 	lea    rax,[rip+0xdc72]        # f028 <_IO_stdin_used+0x28>
    13b6:	48 89 c7             	mov    rdi,rax
    13b9:	e8 02 fd ff ff       	call   10c0 <puts@plt>
    13be:	bf 01 00 00 00       	mov    edi,0x1
    13c3:	e8 68 fd ff ff       	call   1130 <exit@plt>
    13c8:	90                   	nop
    13c9:	be 02 00 00 00       	mov    esi,0x2
    13ce:	48 8d 05 44 dc 00 00 	lea    rax,[rip+0xdc44]        # f019 <_IO_stdin_used+0x19>
    13d5:	48 89 c7             	mov    rdi,rax
    13d8:	b8 00 00 00 00       	mov    eax,0x0
    13dd:	e8 0e fd ff ff       	call   10f0 <printf@plt>
    13e2:	b8 00 00 00 00       	mov    eax,0x0
    13e7:	e8 84 fe ff ff       	call   1270 <get_input>
    13ec:	89 45 fc             	mov    DWORD PTR [rbp-0x4],eax
    13ef:	81 7d fc c2 00 00 00 	cmp    DWORD PTR [rbp-0x4],0xc2
    13f6:	75 05                	jne    13fd <main+0xe6>
    13f8:	e9 e9 42 00 00       	jmp    56e6 <main+0x43cf>
    13fd:	48 8d 05 24 dc 00 00 	lea    rax,[rip+0xdc24]        # f028 <_IO_stdin_used+0x28>
    1404:	48 89 c7             	mov    rdi,rax
    1407:	e8 b4 fc ff ff       	call   10c0 <puts@plt>
    140c:	bf 01 00 00 00       	mov    edi,0x1
    1411:	e8 1a fd ff ff       	call   1130 <exit@plt>
    1416:	90                   	nop
    1417:	be 03 00 00 00       	mov    esi,0x3
    141c:	48 8d 05 f6 db 00 00 	lea    rax,[rip+0xdbf6]        # f019 <_IO_stdin_used+0x19>
    1423:	48 89 c7             	mov    rdi,rax
    1426:	b8 00 00 00 00       	mov    eax,0x0
    142b:	e8 c0 fc ff ff       	call   10f0 <printf@plt>
    1430:	b8 00 00 00 00       	mov    eax,0x0
    1435:	e8 36 fe ff ff       	call   1270 <get_input>
    143a:	89 45 fc             	mov    DWORD PTR [rbp-0x4],eax
    143d:	81 7d fc ea 01 00 00 	cmp    DWORD PTR [rbp-0x4],0x1ea
    1444:	75 05                	jne    144b <main+0x134>
    1446:	e9 f6 a9 00 00       	jmp    be41 <main+0xab2a>
    144b:	48 8d 05 d6 db 00 00 	lea    rax,[rip+0xdbd6]        # f028 <_IO_stdin_used+0x28>
    1452:	48 89 c7             	mov    rdi,rax
    1455:	e8 66 fc ff ff       	call   10c0 <puts@plt>
    145a:	bf 01 00 00 00       	mov    edi,0x1
    145f:	e8 cc fc ff ff       	call   1130 <exit@plt>
    1464:	be 04 00 00 00       	mov    esi,0x4
    1469:	48 8d 05 a9 db 00 00 	lea    rax,[rip+0xdba9]        # f019 <_IO_stdin_used+0x19>
    1470:	48 89 c7             	mov    rdi,rax
    1473:	b8 00 00 00 00       	mov    eax,0x0
    1478:	e8 73 fc ff ff       	call   10f0 <printf@plt>
    147d:	b8 00 00 00 00       	mov    eax,0x0
    1482:	e8 e9 fd ff ff       	call   1270 <get_input>
    1487:	89 45 fc             	mov    DWORD PTR [rbp-0x4],eax
    148a:	81 7d fc dc 00 00 00 	cmp    DWORD PTR [rbp-0x4],0xdc
    1491:	75 05                	jne    1498 <main+0x181>
    1493:	e9 35 4b 00 00       	jmp    5fcd <main+0x4cb6>
    1498:	83 7d fc 65          	cmp    DWORD PTR [rbp-0x4],0x65
    149c:	75 05                	jne    14a3 <main+0x18c>
    149e:	e9 7a 21 00 00       	jmp    361d <main+0x2306>
    14a3:	81 7d fc 7b 01 00 00 	cmp    DWORD PTR [rbp-0x4],0x17b
    14aa:	75 05                	jne    14b1 <main+0x19a>
    14ac:	e9 8e 82 00 00       	jmp    973f <main+0x8428>
    14b1:	48 8d 05 70 db 00 00 	lea    rax,[rip+0xdb70]        # f028 <_IO_stdin_used+0x28>
    14b8:	48 89 c7             	mov    rdi,rax
    14bb:	e8 00 fc ff ff       	call   10c0 <puts@plt>
    14c0:	bf 01 00 00 00       	mov    edi,0x1
    14c5:	e8 66 fc ff ff       	call   1130 <exit@plt>
    14ca:	90                   	nop
    14cb:	be 05 00 00 00       	mov    esi,0x5
    14d0:	48 8d 05 42 db 00 00 	lea    rax,[rip+0xdb42]        # f019 <_IO_stdin_used+0x19>
    14d7:	48 89 c7             	mov    rdi,rax
    14da:	b8 00 00 00 00       	mov    eax,0x0
    14df:	e8 0c fc ff ff       	call   10f0 <printf@plt>
    14e4:	b8 00 00 00 00       	mov    eax,0x0
    14e9:	e8 82 fd ff ff       	call   1270 <get_input>
    14ee:	89 45 fc             	mov    DWORD PTR [rbp-0x4],eax
    14f1:	81 7d fc 26 02 00 00 	cmp    DWORD PTR [rbp-0x4],0x226
    14f8:	75 05                	jne    14ff <main+0x1e8>
    14fa:	e9 e5 bd 00 00       	jmp    d2e4 <main+0xbfcd>
    14ff:	48 8d 05 22 db 00 00 	lea    rax,[rip+0xdb22]        # f028 <_IO_stdin_used+0x28>
    1506:	48 89 c7             	mov    rdi,rax
    1509:	e8 b2 fb ff ff       	call   10c0 <puts@plt>
    150e:	bf 01 00 00 00       	mov    edi,0x1
    1513:	e8 18 fc ff ff       	call   1130 <exit@plt>
    1518:	be 06 00 00 00       	mov    esi,0x6
    151d:	48 8d 05 f5 da 00 00 	lea    rax,[rip+0xdaf5]        # f019 <_IO_stdin_used+0x19>
    1524:	48 89 c7             	mov    rdi,rax
    1527:	b8 00 00 00 00       	mov    eax,0x0
    152c:	e8 bf fb ff ff       	call   10f0 <printf@plt>
    1531:	b8 00 00 00 00       	mov    eax,0x0
    1536:	e8 35 fd ff ff       	call   1270 <get_input>
    153b:	89 45 fc             	mov    DWORD PTR [rbp-0x4],eax
    153e:	83 7d fc 0f          	cmp    DWORD PTR [rbp-0x4],0xf
    1542:	75 05                	jne    1549 <main+0x232>
    1544:	e9 e6 02 00 00       	jmp    182f <main+0x518>
    1549:	81 7d fc de 01 00 00 	cmp    DWORD PTR [rbp-0x4],0x1de
    1550:	0f 84 e0 a4 00 00    	je     ba36 <main+0xa71f>
    1556:	48 8d 05 cb da 00 00 	lea    rax,[rip+0xdacb]        # f028 <_IO_stdin_used+0x28>
    155d:	48 89 c7             	mov    rdi,rax
    1560:	e8 5b fb ff ff       	call   10c0 <puts@plt>
    1565:	bf 01 00 00 00       	mov    edi,0x1
    156a:	e8 c1 fb ff ff       	call   1130 <exit@plt>
    156f:	90                   	nop
    1570:	be 07 00 00 00       	mov    esi,0x7
    1575:	48 8d 05 9d da 00 00 	lea    rax,[rip+0xda9d]        # f019 <_IO_stdin_used+0x19>
    157c:	48 89 c7             	mov    rdi,rax
    157f:	b8 00 00 00 00       	mov    eax,0x0
    1584:	e8 67 fb ff ff       	call   10f0 <printf@plt>
    1589:	b8 00 00 00 00       	mov    eax,0x0
    158e:	e8 dd fc ff ff       	call   1270 <get_input>
    1593:	89 45 fc             	mov    DWORD PTR [rbp-0x4],eax
    1596:	81 7d fc 66 02 00 00 	cmp    DWORD PTR [rbp-0x4],0x266
    159d:	75 05                	jne    15a4 <main+0x28d>
    159f:	e9 ae d4 00 00       	jmp    ea52 <main+0xd73b>
    15a4:	48 8d 05 7d da 00 00 	lea    rax,[rip+0xda7d]        # f028 <_IO_stdin_used+0x28>
    15ab:	48 89 c7             	mov    rdi,rax
    15ae:	e8 0d fb ff ff       	call   10c0 <puts@plt>
    15b3:	bf 01 00 00 00       	mov    edi,0x1
    15b8:	e8 73 fb ff ff       	call   1130 <exit@plt>
    15bd:	be 08 00 00 00       	mov    esi,0x8
    15c2:	48 8d 05 50 da 00 00 	lea    rax,[rip+0xda50]        # f019 <_IO_stdin_used+0x19>
    15c9:	48 89 c7             	mov    rdi,rax
    15cc:	b8 00 00 00 00       	mov    eax,0x0
    15d1:	e8 1a fb ff ff       	call   10f0 <printf@plt>
    15d6:	b8 00 00 00 00       	mov    eax,0x0
    15db:	e8 90 fc ff ff       	call   1270 <get_input>
    15e0:	89 45 fc             	mov    DWORD PTR [rbp-0x4],eax
    15e3:	83 7d fc 5f          	cmp    DWORD PTR [rbp-0x4],0x5f
    15e7:	75 05                	jne    15ee <main+0x2d7>
    15e9:	e9 17 1e 00 00       	jmp    3405 <main+0x20ee>
    15ee:	83 7d fc 26          	cmp    DWORD PTR [rbp-0x4],0x26
    15f2:	0f 84 53 0a 00 00    	je     204b <main+0xd34>
    15f8:	48 8d 05 29 da 00 00 	lea    rax,[rip+0xda29]        # f028 <_IO_stdin_used+0x28>
    15ff:	48 89 c7             	mov    rdi,rax
    1602:	e8 b9 fa ff ff       	call   10c0 <puts@plt>
    1607:	bf 01 00 00 00       	mov    edi,0x1
    160c:	e8 1f fb ff ff       	call   1130 <exit@plt>
    1611:	be 09 00 00 00       	mov    esi,0x9
    1616:	48 8d 05 fc d9 00 00 	lea    rax,[rip+0xd9fc]        # f019 <_IO_stdin_used+0x19>
    161d:	48 89 c7             	mov    rdi,rax
    1620:	b8 00 00 00 00       	mov    eax,0x0
    1625:	e8 c6 fa ff ff       	call   10f0 <printf@plt>
    162a:	b8 00 00 00 00       	mov    eax,0x0
    162f:	e8 3c fc ff ff       	call   1270 <get_input>
    1634:	89 45 fc             	mov    DWORD PTR [rbp-0x4],eax
    1637:	81 7d fc 74 01 00 00 	cmp    DWORD PTR [rbp-0x4],0x174
    163e:	75 05                	jne    1645 <main+0x32e>
    1640:	e9 92 7e 00 00       	jmp    94d7 <main+0x81c0>
    1645:	81 7d fc 61 02 00 00 	cmp    DWORD PTR [rbp-0x4],0x261
    164c:	75 05                	jne    1653 <main+0x33c>
    164e:	e9 31 d2 00 00       	jmp    e884 <main+0xd56d>
    1653:	81 7d fc 22 02 00 00 	cmp    DWORD PTR [rbp-0x4],0x222
    165a:	75 05                	jne    1661 <main+0x34a>
    165c:	e9 0c bb 00 00       	jmp    d16d <main+0xbe56>
    1661:	48 8d 05 c0 d9 00 00 	lea    rax,[rip+0xd9c0]        # f028 <_IO_stdin_used+0x28>
    1668:	48 89 c7             	mov    rdi,rax
    166b:	e8 50 fa ff ff       	call   10c0 <puts@plt>
    1670:	bf 01 00 00 00       	mov    edi,0x1
    1675:	e8 b6 fa ff ff       	call   1130 <exit@plt>
    167a:	be 0a 00 00 00       	mov    esi,0xa
    167f:	48 8d 05 93 d9 00 00 	lea    rax,[rip+0xd993]        # f019 <_IO_stdin_used+0x19>
    1686:	48 89 c7             	mov    rdi,rax
    1689:	b8 00 00 00 00       	mov    eax,0x0
    168e:	e8 5d fa ff ff       	call   10f0 <printf@plt>
    1693:	b8 00 00 00 00       	mov    eax,0x0
    1698:	e8 d3 fb ff ff       	call   1270 <get_input>
    169d:	89 45 fc             	mov    DWORD PTR [rbp-0x4],eax
    16a0:	81 7d fc b7 01 00 00 	cmp    DWORD PTR [rbp-0x4],0x1b7
    16a7:	75 05                	jne    16ae <main+0x397>
    16a9:	e9 d2 95 00 00       	jmp    ac80 <main+0x9969>
    16ae:	81 7d fc 14 02 00 00 	cmp    DWORD PTR [rbp-0x4],0x214
    16b5:	0f 84 e4 b5 00 00    	je     cc9f <main+0xb988>
    16bb:	48 8d 05 66 d9 00 00 	lea    rax,[rip+0xd966]        # f028 <_IO_stdin_used+0x28>
    16c2:	48 89 c7             	mov    rdi,rax
    16c5:	e8 f6 f9 ff ff       	call   10c0 <puts@plt>
    16ca:	bf 01 00 00 00       	mov    edi,0x1
    16cf:	e8 5c fa ff ff       	call   1130 <exit@plt>
    16d4:	be 0b 00 00 00       	mov    esi,0xb
    16d9:	48 8d 05 39 d9 00 00 	lea    rax,[rip+0xd939]        # f019 <_IO_stdin_used+0x19>
    16e0:	48 89 c7             	mov    rdi,rax
    16e3:	b8 00 00 00 00       	mov    eax,0x0
    16e8:	e8 03 fa ff ff       	call   10f0 <printf@plt>
    16ed:	b8 00 00 00 00       	mov    eax,0x0
    16f2:	e8 79 fb ff ff       	call   1270 <get_input>
    16f7:	89 45 fc             	mov    DWORD PTR [rbp-0x4],eax
    16fa:	81 7d fc be 00 00 00 	cmp    DWORD PTR [rbp-0x4],0xbe
    1701:	75 05                	jne    1708 <main+0x3f1>
    1703:	e9 6f 3e 00 00       	jmp    5577 <main+0x4260>
    1708:	83 7d fc 28          	cmp    DWORD PTR [rbp-0x4],0x28
    170c:	75 05                	jne    1713 <main+0x3fc>
    170e:	e9 de 09 00 00       	jmp    20f1 <main+0xdda>
    1713:	48 8d 05 0e d9 00 00 	lea    rax,[rip+0xd90e]        # f028 <_IO_stdin_used+0x28>
    171a:	48 89 c7             	mov    rdi,rax
    171d:	e8 9e f9 ff ff       	call   10c0 <puts@plt>
    1722:	bf 01 00 00 00       	mov    edi,0x1
    1727:	e8 04 fa ff ff       	call   1130 <exit@plt>
    172c:	be 0c 00 00 00       	mov    esi,0xc
    1731:	48 8d 05 e1 d8 00 00 	lea    rax,[rip+0xd8e1]        # f019 <_IO_stdin_used+0x19>
    1738:	48 89 c7             	mov    rdi,rax
    173b:	b8 00 00 00 00       	mov    eax,0x0
    1740:	e8 ab f9 ff ff       	call   10f0 <printf@plt>
    1745:	b8 00 00 00 00       	mov    eax,0x0
    174a:	e8 21 fb ff ff       	call   1270 <get_input>
    174f:	89 45 fc             	mov    DWORD PTR [rbp-0x4],eax
    1752:	81 7d fc 8f 01 00 00 	cmp    DWORD PTR [rbp-0x4],0x18f
    1759:	75 05                	jne    1760 <main+0x449>
    175b:	e9 1f 87 00 00       	jmp    9e7f <main+0x8b68>
    1760:	81 7d fc a4 00 00 00 	cmp    DWORD PTR [rbp-0x4],0xa4
    1767:	0f 84 eb 34 00 00    	je     4c58 <main+0x3941>
    176d:	48 8d 05 b4 d8 00 00 	lea    rax,[rip+0xd8b4]        # f028 <_IO_stdin_used+0x28>
    1774:	48 89 c7             	mov    rdi,rax
    1777:	e8 44 f9 ff ff       	call   10c0 <puts@plt>
    177c:	bf 01 00 00 00       	mov    edi,0x1
    1781:	e8 aa f9 ff ff       	call   1130 <exit@plt>
    1786:	90                   	nop
    1787:	be 0d 00 00 00       	mov    esi,0xd
    178c:	48 8d 05 86 d8 00 00 	lea    rax,[rip+0xd886]        # f019 <_IO_stdin_used+0x19>
    1793:	48 89 c7             	mov    rdi,rax
    1796:	b8 00 00 00 00       	mov    eax,0x0
    179b:	e8 50 f9 ff ff       	call   10f0 <printf@plt>
    17a0:	b8 00 00 00 00       	mov    eax,0x0
    17a5:	e8 c6 fa ff ff       	call   1270 <get_input>
    17aa:	89 45 fc             	mov    DWORD PTR [rbp-0x4],eax
    17ad:	81 7d fc 20 01 00 00 	cmp    DWORD PTR [rbp-0x4],0x120
    17b4:	75 05                	jne    17bb <main+0x4a4>
    17b6:	e9 c1 5f 00 00       	jmp    777c <main+0x6465>
    17bb:	48 8d 05 66 d8 00 00 	lea    rax,[rip+0xd866]        # f028 <_IO_stdin_used+0x28>
    17c2:	48 89 c7             	mov    rdi,rax
    17c5:	e8 f6 f8 ff ff       	call   10c0 <puts@plt>
    17ca:	bf 01 00 00 00       	mov    edi,0x1
    17cf:	e8 5c f9 ff ff       	call   1130 <exit@plt>
    17d4:	be 0e 00 00 00       	mov    esi,0xe
    17d9:	48 8d 05 39 d8 00 00 	lea    rax,[rip+0xd839]        # f019 <_IO_stdin_used+0x19>
    17e0:	48 89 c7             	mov    rdi,rax
    17e3:	b8 00 00 00 00       	mov    eax,0x0
    17e8:	e8 03 f9 ff ff       	call   10f0 <printf@plt>
    17ed:	b8 00 00 00 00       	mov    eax,0x0
    17f2:	e8 79 fa ff ff       	call   1270 <get_input>
    17f7:	89 45 fc             	mov    DWORD PTR [rbp-0x4],eax
    17fa:	81 7d fc cf 00 00 00 	cmp    DWORD PTR [rbp-0x4],0xcf
    1801:	75 05                	jne    1808 <main+0x4f1>
    1803:	e9 3d 43 00 00       	jmp    5b45 <main+0x482e>
    1808:	81 7d fc 4b 01 00 00 	cmp    DWORD PTR [rbp-0x4],0x14b
    180f:	75 05                	jne    1816 <main+0x4ff>
    1811:	e9 82 6e 00 00       	jmp    8698 <main+0x7381>
    1816:	48 8d 05 0b d8 00 00 	lea    rax,[rip+0xd80b]        # f028 <_IO_stdin_used+0x28>
    181d:	48 89 c7             	mov    rdi,rax
    1820:	e8 9b f8 ff ff       	call   10c0 <puts@plt>
    1825:	bf 01 00 00 00       	mov    edi,0x1
    182a:	e8 01 f9 ff ff       	call   1130 <exit@plt>
    182f:	be 0f 00 00 00       	mov    esi,0xf
    1834:	48 8d 05 de d7 00 00 	lea    rax,[rip+0xd7de]        # f019 <_IO_stdin_used+0x19>
    183b:	48 89 c7             	mov    rdi,rax
    183e:	b8 00 00 00 00       	mov    eax,0x0
    1843:	e8 a8 f8 ff ff       	call   10f0 <printf@plt>
    1848:	b8 00 00 00 00       	mov    eax,0x0
    184d:	e8 1e fa ff ff       	call   1270 <get_input>
    1852:	89 45 fc             	mov    DWORD PTR [rbp-0x4],eax
    1855:	81 7d fc c3 01 00 00 	cmp    DWORD PTR [rbp-0x4],0x1c3
    185c:	75 05                	jne    1863 <main+0x54c>
    185e:	e9 60 98 00 00       	jmp    b0c3 <main+0x9dac>
    1863:	83 7d fc 06          	cmp    DWORD PTR [rbp-0x4],0x6
    1867:	75 05                	jne    186e <main+0x557>
    1869:	e9 aa fc ff ff       	jmp    1518 <main+0x201>
    186e:	48 8d 05 b3 d7 00 00 	lea    rax,[rip+0xd7b3]        # f028 <_IO_stdin_used+0x28>
    1875:	48 89 c7             	mov    rdi,rax
    1878:	e8 43 f8 ff ff       	call   10c0 <puts@plt>
    187d:	bf 01 00 00 00       	mov    edi,0x1
    1882:	e8 a9 f8 ff ff       	call   1130 <exit@plt>
    1887:	be 10 00 00 00       	mov    esi,0x10
    188c:	48 8d 05 86 d7 00 00 	lea    rax,[rip+0xd786]        # f019 <_IO_stdin_used+0x19>
    1893:	48 89 c7             	mov    rdi,rax
    1896:	b8 00 00 00 00       	mov    eax,0x0
    189b:	e8 50 f8 ff ff       	call   10f0 <printf@plt>
    18a0:	b8 00 00 00 00       	mov    eax,0x0
    18a5:	e8 c6 f9 ff ff       	call   1270 <get_input>
    18aa:	89 45 fc             	mov    DWORD PTR [rbp-0x4],eax
    18ad:	81 7d fc 19 01 00 00 	cmp    DWORD PTR [rbp-0x4],0x119
    18b4:	75 05                	jne    18bb <main+0x5a4>
    18b6:	e9 45 5c 00 00       	jmp    7500 <main+0x61e9>
    18bb:	81 7d fc 75 01 00 00 	cmp    DWORD PTR [rbp-0x4],0x175
    18c2:	75 05                	jne    18c9 <main+0x5b2>
    18c4:	e9 74 7c 00 00       	jmp    953d <main+0x8226>
    18c9:	48 8d 05 58 d7 00 00 	lea    rax,[rip+0xd758]        # f028 <_IO_stdin_used+0x28>
    18d0:	48 89 c7             	mov    rdi,rax
    18d3:	e8 e8 f7 ff ff       	call   10c0 <puts@plt>
    18d8:	bf 01 00 00 00       	mov    edi,0x1
    18dd:	e8 4e f8 ff ff       	call   1130 <exit@plt>
    18e2:	be 11 00 00 00       	mov    esi,0x11
    18e7:	48 8d 05 2b d7 00 00 	lea    rax,[rip+0xd72b]        # f019 <_IO_stdin_used+0x19>
    18ee:	48 89 c7             	mov    rdi,rax
    18f1:	b8 00 00 00 00       	mov    eax,0x0
    18f6:	e8 f5 f7 ff ff       	call   10f0 <printf@plt>
    18fb:	b8 00 00 00 00       	mov    eax,0x0
    1900:	e8 6b f9 ff ff       	call   1270 <get_input>
    1905:	89 45 fc             	mov    DWORD PTR [rbp-0x4],eax
    1908:	81 7d fc 2c 02 00 00 	cmp    DWORD PTR [rbp-0x4],0x22c
    190f:	75 05                	jne    1916 <main+0x5ff>
    1911:	e9 02 bc 00 00       	jmp    d518 <main+0xc201>
    1916:	83 7d fc 70          	cmp    DWORD PTR [rbp-0x4],0x70
    191a:	75 05                	jne    1921 <main+0x60a>
    191c:	e9 db 20 00 00       	jmp    39fc <main+0x26e5>
    1921:	81 7d fc 20 01 00 00 	cmp    DWORD PTR [rbp-0x4],0x120
    1928:	75 05                	jne    192f <main+0x618>
    192a:	e9 4d 5e 00 00       	jmp    777c <main+0x6465>
    192f:	48 8d 05 f2 d6 00 00 	lea    rax,[rip+0xd6f2]        # f028 <_IO_stdin_used+0x28>
    1936:	48 89 c7             	mov    rdi,rax
    1939:	e8 82 f7 ff ff       	call   10c0 <puts@plt>
    193e:	bf 01 00 00 00       	mov    edi,0x1
    1943:	e8 e8 f7 ff ff       	call   1130 <exit@plt>
    1948:	be 12 00 00 00       	mov    esi,0x12
    194d:	48 8d 05 c5 d6 00 00 	lea    rax,[rip+0xd6c5]        # f019 <_IO_stdin_used+0x19>
    1954:	48 89 c7             	mov    rdi,rax
    1957:	b8 00 00 00 00       	mov    eax,0x0
    195c:	e8 8f f7 ff ff       	call   10f0 <printf@plt>
    1961:	b8 00 00 00 00       	mov    eax,0x0
    1966:	e8 05 f9 ff ff       	call   1270 <get_input>
    196b:	89 45 fc             	mov    DWORD PTR [rbp-0x4],eax
    196e:	81 7d fc d8 00 00 00 	cmp    DWORD PTR [rbp-0x4],0xd8
    1975:	75 05                	jne    197c <main+0x665>
    1977:	e9 dd 44 00 00       	jmp    5e59 <main+0x4b42>
    197c:	81 7d fc 14 01 00 00 	cmp    DWORD PTR [rbp-0x4],0x114
    1983:	75 05                	jne    198a <main+0x673>
    1985:	e9 a9 59 00 00       	jmp    7333 <main+0x601c>
    198a:	48 8d 05 97 d6 00 00 	lea    rax,[rip+0xd697]        # f028 <_IO_stdin_used+0x28>
    1991:	48 89 c7             	mov    rdi,rax
    1994:	e8 27 f7 ff ff       	call   10c0 <puts@plt>
    1999:	bf 01 00 00 00       	mov    edi,0x1
    199e:	e8 8d f7 ff ff       	call   1130 <exit@plt>
    19a3:	be 13 00 00 00       	mov    esi,0x13
    19a8:	48 8d 05 6a d6 00 00 	lea    rax,[rip+0xd66a]        # f019 <_IO_stdin_used+0x19>
    19af:	48 89 c7             	mov    rdi,rax
    19b2:	b8 00 00 00 00       	mov    eax,0x0
    19b7:	e8 34 f7 ff ff       	call   10f0 <printf@plt>
    19bc:	b8 00 00 00 00       	mov    eax,0x0
    19c1:	e8 aa f8 ff ff       	call   1270 <get_input>
    19c6:	89 45 fc             	mov    DWORD PTR [rbp-0x4],eax
    19c9:	81 7d fc 21 02 00 00 	cmp    DWORD PTR [rbp-0x4],0x221
    19d0:	75 05                	jne    19d7 <main+0x6c0>
    19d2:	e9 3e b7 00 00       	jmp    d115 <main+0xbdfe>
    19d7:	81 7d fc 6b 01 00 00 	cmp    DWORD PTR [rbp-0x4],0x16b
    19de:	0f 84 b9 77 00 00    	je     919d <main+0x7e86>
    19e4:	48 8d 05 3d d6 00 00 	lea    rax,[rip+0xd63d]        # f028 <_IO_stdin_used+0x28>
    19eb:	48 89 c7             	mov    rdi,rax
    19ee:	e8 cd f6 ff ff       	call   10c0 <puts@plt>
    19f3:	bf 01 00 00 00       	mov    edi,0x1
    19f8:	e8 33 f7 ff ff       	call   1130 <exit@plt>
    19fd:	be 14 00 00 00       	mov    esi,0x14
    1a02:	48 8d 05 10 d6 00 00 	lea    rax,[rip+0xd610]        # f019 <_IO_stdin_used+0x19>
    1a09:	48 89 c7             	mov    rdi,rax
    1a0c:	b8 00 00 00 00       	mov    eax,0x0
    1a11:	e8 da f6 ff ff       	call   10f0 <printf@plt>
    1a16:	b8 00 00 00 00       	mov    eax,0x0
    1a1b:	e8 50 f8 ff ff       	call   1270 <get_input>
    1a20:	89 45 fc             	mov    DWORD PTR [rbp-0x4],eax
    1a23:	81 7d fc ca 00 00 00 	cmp    DWORD PTR [rbp-0x4],0xca
    1a2a:	75 05                	jne    1a31 <main+0x71a>
    1a2c:	e9 62 3f 00 00       	jmp    5993 <main+0x467c>
    1a31:	83 7d fc 36          	cmp    DWORD PTR [rbp-0x4],0x36
    1a35:	0f 84 52 0b 00 00    	je     258d <main+0x1276>
    1a3b:	81 7d fc 23 01 00 00 	cmp    DWORD PTR [rbp-0x4],0x123
    1a42:	0f 84 30 5e 00 00    	je     7878 <main+0x6561>
    1a48:	48 8d 05 d9 d5 00 00 	lea    rax,[rip+0xd5d9]        # f028 <_IO_stdin_used+0x28>
    1a4f:	48 89 c7             	mov    rdi,rax
    1a52:	e8 69 f6 ff ff       	call   10c0 <puts@plt>
    1a57:	bf 01 00 00 00       	mov    edi,0x1
    1a5c:	e8 cf f6 ff ff       	call   1130 <exit@plt>
    1a61:	be 15 00 00 00       	mov    esi,0x15
    1a66:	48 8d 05 ac d5 00 00 	lea    rax,[rip+0xd5ac]        # f019 <_IO_stdin_used+0x19>
    1a6d:	48 89 c7             	mov    rdi,rax
    1a70:	b8 00 00 00 00       	mov    eax,0x0
    1a75:	e8 76 f6 ff ff       	call   10f0 <printf@plt>
    1a7a:	b8 00 00 00 00       	mov    eax,0x0
    1a7f:	e8 ec f7 ff ff       	call   1270 <get_input>
    1a84:	89 45 fc             	mov    DWORD PTR [rbp-0x4],eax
    1a87:	83 7d fc 2c          	cmp    DWORD PTR [rbp-0x4],0x2c
    1a8b:	0f 84 b9 07 00 00    	je     224a <main+0xf33>
    1a91:	83 7d fc 4b          	cmp    DWORD PTR [rbp-0x4],0x4b
    1a95:	75 05                	jne    1a9c <main+0x785>
    1a97:	e9 28 12 00 00       	jmp    2cc4 <main+0x19ad>
    1a9c:	83 7d fc 73          	cmp    DWORD PTR [rbp-0x4],0x73
    1aa0:	75 05                	jne    1aa7 <main+0x790>
    1aa2:	e9 6e 20 00 00       	jmp    3b15 <main+0x27fe>
    1aa7:	48 8d 05 7a d5 00 00 	lea    rax,[rip+0xd57a]        # f028 <_IO_stdin_used+0x28>
    1aae:	48 89 c7             	mov    rdi,rax
    1ab1:	e8 0a f6 ff ff       	call   10c0 <puts@plt>
    1ab6:	bf 01 00 00 00       	mov    edi,0x1
    1abb:	e8 70 f6 ff ff       	call   1130 <exit@plt>
    1ac0:	90                   	nop
    1ac1:	be 16 00 00 00       	mov    esi,0x16
    1ac6:	48 8d 05 4c d5 00 00 	lea    rax,[rip+0xd54c]        # f019 <_IO_stdin_used+0x19>
    1acd:	48 89 c7             	mov    rdi,rax
    1ad0:	b8 00 00 00 00       	mov    eax,0x0
    1ad5:	e8 16 f6 ff ff       	call   10f0 <printf@plt>
    1ada:	b8 00 00 00 00       	mov    eax,0x0
    1adf:	e8 8c f7 ff ff       	call   1270 <get_input>
    1ae4:	89 45 fc             	mov    DWORD PTR [rbp-0x4],eax
    1ae7:	81 7d fc 5f 01 00 00 	cmp    DWORD PTR [rbp-0x4],0x15f
    1aee:	75 05                	jne    1af5 <main+0x7de>
    1af0:	e9 9f 72 00 00       	jmp    8d94 <main+0x7a7d>
    1af5:	48 8d 05 2c d5 00 00 	lea    rax,[rip+0xd52c]        # f028 <_IO_stdin_used+0x28>
    1afc:	48 89 c7             	mov    rdi,rax
    1aff:	e8 bc f5 ff ff       	call   10c0 <puts@plt>
    1b04:	bf 01 00 00 00       	mov    edi,0x1
    1b09:	e8 22 f6 ff ff       	call   1130 <exit@plt>
    1b0e:	be 17 00 00 00       	mov    esi,0x17
    1b13:	48 8d 05 ff d4 00 00 	lea    rax,[rip+0xd4ff]        # f019 <_IO_stdin_used+0x19>
    1b1a:	48 89 c7             	mov    rdi,rax
    1b1d:	b8 00 00 00 00       	mov    eax,0x0
    1b22:	e8 c9 f5 ff ff       	call   10f0 <printf@plt>
    1b27:	b8 00 00 00 00       	mov    eax,0x0
    1b2c:	e8 3f f7 ff ff       	call   1270 <get_input>
    1b31:	89 45 fc             	mov    DWORD PTR [rbp-0x4],eax
    1b34:	83 7d fc 4c          	cmp    DWORD PTR [rbp-0x4],0x4c
    1b38:	75 05                	jne    1b3f <main+0x828>
    1b3a:	e9 da 11 00 00       	jmp    2d19 <main+0x1a02>
    1b3f:	81 7d fc d3 01 00 00 	cmp    DWORD PTR [rbp-0x4],0x1d3
    1b46:	75 05                	jne    1b4d <main+0x836>
    1b48:	e9 fd 9a 00 00       	jmp    b64a <main+0xa333>
    1b4d:	48 8d 05 d4 d4 00 00 	lea    rax,[rip+0xd4d4]        # f028 <_IO_stdin_used+0x28>
    1b54:	48 89 c7             	mov    rdi,rax
    1b57:	e8 64 f5 ff ff       	call   10c0 <puts@plt>
    1b5c:	bf 01 00 00 00       	mov    edi,0x1
    1b61:	e8 ca f5 ff ff       	call   1130 <exit@plt>
    1b66:	90                   	nop
    1b67:	be 18 00 00 00       	mov    esi,0x18
    1b6c:	48 8d 05 a6 d4 00 00 	lea    rax,[rip+0xd4a6]        # f019 <_IO_stdin_used+0x19>
    1b73:	48 89 c7             	mov    rdi,rax
    1b76:	b8 00 00 00 00       	mov    eax,0x0
    1b7b:	e8 70 f5 ff ff       	call   10f0 <printf@plt>
    1b80:	b8 00 00 00 00       	mov    eax,0x0
    1b85:	e8 e6 f6 ff ff       	call   1270 <get_input>
    1b8a:	89 45 fc             	mov    DWORD PTR [rbp-0x4],eax
    1b8d:	81 7d fc be 01 00 00 	cmp    DWORD PTR [rbp-0x4],0x1be
    1b94:	75 05                	jne    1b9b <main+0x884>
    1b96:	e9 59 93 00 00       	jmp    aef4 <main+0x9bdd>
    1b9b:	48 8d 05 86 d4 00 00 	lea    rax,[rip+0xd486]        # f028 <_IO_stdin_used+0x28>
    1ba2:	48 89 c7             	mov    rdi,rax
    1ba5:	e8 16 f5 ff ff       	call   10c0 <puts@plt>
    1baa:	bf 01 00 00 00       	mov    edi,0x1
    1baf:	e8 7c f5 ff ff       	call   1130 <exit@plt>
    1bb4:	be 19 00 00 00       	mov    esi,0x19
    1bb9:	48 8d 05 59 d4 00 00 	lea    rax,[rip+0xd459]        # f019 <_IO_stdin_used+0x19>
    1bc0:	48 89 c7             	mov    rdi,rax
    1bc3:	b8 00 00 00 00       	mov    eax,0x0
    1bc8:	e8 23 f5 ff ff       	call   10f0 <printf@plt>
    1bcd:	b8 00 00 00 00       	mov    eax,0x0
    1bd2:	e8 99 f6 ff ff       	call   1270 <get_input>
    1bd7:	89 45 fc             	mov    DWORD PTR [rbp-0x4],eax
    1bda:	81 7d fc a0 00 00 00 	cmp    DWORD PTR [rbp-0x4],0xa0
    1be1:	75 05                	jne    1be8 <main+0x8d1>
    1be3:	e9 17 2f 00 00       	jmp    4aff <main+0x37e8>
    1be8:	83 7d fc 6f          	cmp    DWORD PTR [rbp-0x4],0x6f
    1bec:	75 05                	jne    1bf3 <main+0x8dc>
    1bee:	e9 b1 1d 00 00       	jmp    39a4 <main+0x268d>
    1bf3:	81 7d fc 37 02 00 00 	cmp    DWORD PTR [rbp-0x4],0x237
    1bfa:	75 05                	jne    1c01 <main+0x8ea>
    1bfc:	e9 2b bd 00 00       	jmp    d92c <main+0xc615>
    1c01:	48 8d 05 20 d4 00 00 	lea    rax,[rip+0xd420]        # f028 <_IO_stdin_used+0x28>
    1c08:	48 89 c7             	mov    rdi,rax
    1c0b:	e8 b0 f4 ff ff       	call   10c0 <puts@plt>
    1c10:	bf 01 00 00 00       	mov    edi,0x1
    1c15:	e8 16 f5 ff ff       	call   1130 <exit@plt>
    1c1a:	be 1a 00 00 00       	mov    esi,0x1a
    1c1f:	48 8d 05 f3 d3 00 00 	lea    rax,[rip+0xd3f3]        # f019 <_IO_stdin_used+0x19>
    1c26:	48 89 c7             	mov    rdi,rax
    1c29:	b8 00 00 00 00       	mov    eax,0x0
    1c2e:	e8 bd f4 ff ff       	call   10f0 <printf@plt>
    1c33:	b8 00 00 00 00       	mov    eax,0x0
    1c38:	e8 33 f6 ff ff       	call   1270 <get_input>
    1c3d:	89 45 fc             	mov    DWORD PTR [rbp-0x4],eax
    1c40:	81 7d fc 6e 01 00 00 	cmp    DWORD PTR [rbp-0x4],0x16e
    1c47:	75 05                	jne    1c4e <main+0x937>
    1c49:	e9 5a 76 00 00       	jmp    92a8 <main+0x7f91>
    1c4e:	81 7d fc eb 01 00 00 	cmp    DWORD PTR [rbp-0x4],0x1eb
    1c55:	75 05                	jne    1c5c <main+0x945>
    1c57:	e9 4a a2 00 00       	jmp    bea6 <main+0xab8f>
    1c5c:	48 8d 05 c5 d3 00 00 	lea    rax,[rip+0xd3c5]        # f028 <_IO_stdin_used+0x28>
    1c63:	48 89 c7             	mov    rdi,rax
    1c66:	e8 55 f4 ff ff       	call   10c0 <puts@plt>
    1c6b:	bf 01 00 00 00       	mov    edi,0x1
    1c70:	e8 bb f4 ff ff       	call   1130 <exit@plt>
    1c75:	90                   	nop
    1c76:	be 1b 00 00 00       	mov    esi,0x1b
    1c7b:	48 8d 05 97 d3 00 00 	lea    rax,[rip+0xd397]        # f019 <_IO_stdin_used+0x19>
    1c82:	48 89 c7             	mov    rdi,rax
    1c85:	b8 00 00 00 00       	mov    eax,0x0
    1c8a:	e8 61 f4 ff ff       	call   10f0 <printf@plt>
    1c8f:	b8 00 00 00 00       	mov    eax,0x0
    1c94:	e8 d7 f5 ff ff       	call   1270 <get_input>
    1c99:	89 45 fc             	mov    DWORD PTR [rbp-0x4],eax
    1c9c:	81 7d fc e8 00 00 00 	cmp    DWORD PTR [rbp-0x4],0xe8
    1ca3:	75 05                	jne    1caa <main+0x993>
    1ca5:	e9 43 47 00 00       	jmp    63ed <main+0x50d6>
    1caa:	48 8d 05 77 d3 00 00 	lea    rax,[rip+0xd377]        # f028 <_IO_stdin_used+0x28>
    1cb1:	48 89 c7             	mov    rdi,rax
    1cb4:	e8 07 f4 ff ff       	call   10c0 <puts@plt>
    1cb9:	bf 01 00 00 00       	mov    edi,0x1
    1cbe:	e8 6d f4 ff ff       	call   1130 <exit@plt>
    1cc3:	be 1c 00 00 00       	mov    esi,0x1c
    1cc8:	48 8d 05 4a d3 00 00 	lea    rax,[rip+0xd34a]        # f019 <_IO_stdin_used+0x19>
    1ccf:	48 89 c7             	mov    rdi,rax
    1cd2:	b8 00 00 00 00       	mov    eax,0x0
    1cd7:	e8 14 f4 ff ff       	call   10f0 <printf@plt>
    1cdc:	b8 00 00 00 00       	mov    eax,0x0
    1ce1:	e8 8a f5 ff ff       	call   1270 <get_input>
    1ce6:	89 45 fc             	mov    DWORD PTR [rbp-0x4],eax
    1ce9:	81 7d fc bd 00 00 00 	cmp    DWORD PTR [rbp-0x4],0xbd
    1cf0:	75 05                	jne    1cf7 <main+0x9e0>
    1cf2:	e9 0d 38 00 00       	jmp    5504 <main+0x41ed>
    1cf7:	81 7d fc 47 02 00 00 	cmp    DWORD PTR [rbp-0x4],0x247
    1cfe:	75 05                	jne    1d05 <main+0x9ee>
    1d00:	e9 04 c2 00 00       	jmp    df09 <main+0xcbf2>
    1d05:	81 7d fc 42 01 00 00 	cmp    DWORD PTR [rbp-0x4],0x142
    1d0c:	0f 84 5b 66 00 00    	je     836d <main+0x7056>
    1d12:	48 8d 05 0f d3 00 00 	lea    rax,[rip+0xd30f]        # f028 <_IO_stdin_used+0x28>
    1d19:	48 89 c7             	mov    rdi,rax
    1d1c:	e8 9f f3 ff ff       	call   10c0 <puts@plt>
    1d21:	bf 01 00 00 00       	mov    edi,0x1
    1d26:	e8 05 f4 ff ff       	call   1130 <exit@plt>
    1d2b:	be 1d 00 00 00       	mov    esi,0x1d
    1d30:	48 8d 05 e2 d2 00 00 	lea    rax,[rip+0xd2e2]        # f019 <_IO_stdin_used+0x19>
    1d37:	48 89 c7             	mov    rdi,rax
    1d3a:	b8 00 00 00 00       	mov    eax,0x0
    1d3f:	e8 ac f3 ff ff       	call   10f0 <printf@plt>
    1d44:	b8 00 00 00 00       	mov    eax,0x0
    1d49:	e8 22 f5 ff ff       	call   1270 <get_input>
    1d4e:	89 45 fc             	mov    DWORD PTR [rbp-0x4],eax
    1d51:	81 7d fc 16 02 00 00 	cmp    DWORD PTR [rbp-0x4],0x216
    1d58:	75 05                	jne    1d5f <main+0xa48>
    1d5a:	e9 f3 af 00 00       	jmp    cd52 <main+0xba3b>
    1d5f:	81 7d fc 2e 02 00 00 	cmp    DWORD PTR [rbp-0x4],0x22e
    1d66:	75 05                	jne    1d6d <main+0xa56>
    1d68:	e9 5b b8 00 00       	jmp    d5c8 <main+0xc2b1>
    1d6d:	48 8d 05 b4 d2 00 00 	lea    rax,[rip+0xd2b4]        # f028 <_IO_stdin_used+0x28>
    1d74:	48 89 c7             	mov    rdi,rax
    1d77:	e8 44 f3 ff ff       	call   10c0 <puts@plt>
    1d7c:	bf 01 00 00 00       	mov    edi,0x1
    1d81:	e8 aa f3 ff ff       	call   1130 <exit@plt>
    1d86:	be 1e 00 00 00       	mov    esi,0x1e
    1d8b:	48 8d 05 87 d2 00 00 	lea    rax,[rip+0xd287]        # f019 <_IO_stdin_used+0x19>
    1d92:	48 89 c7             	mov    rdi,rax
    1d95:	b8 00 00 00 00       	mov    eax,0x0
    1d9a:	e8 51 f3 ff ff       	call   10f0 <printf@plt>
    1d9f:	b8 00 00 00 00       	mov    eax,0x0
    1da4:	e8 c7 f4 ff ff       	call   1270 <get_input>
    1da9:	89 45 fc             	mov    DWORD PTR [rbp-0x4],eax
    1dac:	81 7d fc 04 01 00 00 	cmp    DWORD PTR [rbp-0x4],0x104
    1db3:	75 05                	jne    1dba <main+0xaa3>
    1db5:	e9 03 50 00 00       	jmp    6dbd <main+0x5aa6>
    1dba:	81 7d fc bc 01 00 00 	cmp    DWORD PTR [rbp-0x4],0x1bc
    1dc1:	75 05                	jne    1dc8 <main+0xab1>
    1dc3:	e9 7d 90 00 00       	jmp    ae45 <main+0x9b2e>
    1dc8:	48 8d 05 59 d2 00 00 	lea    rax,[rip+0xd259]        # f028 <_IO_stdin_used+0x28>
    1dcf:	48 89 c7             	mov    rdi,rax
    1dd2:	e8 e9 f2 ff ff       	call   10c0 <puts@plt>
    1dd7:	bf 01 00 00 00       	mov    edi,0x1
    1ddc:	e8 4f f3 ff ff       	call   1130 <exit@plt>
    1de1:	90                   	nop
    1de2:	be 1f 00 00 00       	mov    esi,0x1f
    1de7:	48 8d 05 2b d2 00 00 	lea    rax,[rip+0xd22b]        # f019 <_IO_stdin_used+0x19>
    1dee:	48 89 c7             	mov    rdi,rax
    1df1:	b8 00 00 00 00       	mov    eax,0x0
    1df6:	e8 f5 f2 ff ff       	call   10f0 <printf@plt>
    1dfb:	b8 00 00 00 00       	mov    eax,0x0
    1e00:	e8 6b f4 ff ff       	call   1270 <get_input>
    1e05:	89 45 fc             	mov    DWORD PTR [rbp-0x4],eax
    1e08:	81 7d fc 7b 01 00 00 	cmp    DWORD PTR [rbp-0x4],0x17b
    1e0f:	75 05                	jne    1e16 <main+0xaff>
    1e11:	e9 29 79 00 00       	jmp    973f <main+0x8428>
    1e16:	48 8d 05 0b d2 00 00 	lea    rax,[rip+0xd20b]        # f028 <_IO_stdin_used+0x28>
    1e1d:	48 89 c7             	mov    rdi,rax
    1e20:	e8 9b f2 ff ff       	call   10c0 <puts@plt>
    1e25:	bf 01 00 00 00       	mov    edi,0x1
    1e2a:	e8 01 f3 ff ff       	call   1130 <exit@plt>
    1e2f:	be 20 00 00 00       	mov    esi,0x20
    1e34:	48 8d 05 de d1 00 00 	lea    rax,[rip+0xd1de]        # f019 <_IO_stdin_used+0x19>
    1e3b:	48 89 c7             	mov    rdi,rax
    1e3e:	b8 00 00 00 00       	mov    eax,0x0
    1e43:	e8 a8 f2 ff ff       	call   10f0 <printf@plt>
    1e48:	b8 00 00 00 00       	mov    eax,0x0
    1e4d:	e8 1e f4 ff ff       	call   1270 <get_input>
    1e52:	89 45 fc             	mov    DWORD PTR [rbp-0x4],eax
    1e55:	81 7d fc 72 01 00 00 	cmp    DWORD PTR [rbp-0x4],0x172
    1e5c:	75 05                	jne    1e63 <main+0xb4c>
    1e5e:	e9 c2 75 00 00       	jmp    9425 <main+0x810e>
    1e63:	81 7d fc 8a 01 00 00 	cmp    DWORD PTR [rbp-0x4],0x18a
    1e6a:	75 05                	jne    1e71 <main+0xb5a>
    1e6c:	e9 27 7e 00 00       	jmp    9c98 <main+0x8981>
    1e71:	81 7d fc 02 01 00 00 	cmp    DWORD PTR [rbp-0x4],0x102
    1e78:	0f 84 9d 4e 00 00    	je     6d1b <main+0x5a04>
    1e7e:	48 8d 05 a3 d1 00 00 	lea    rax,[rip+0xd1a3]        # f028 <_IO_stdin_used+0x28>
    1e85:	48 89 c7             	mov    rdi,rax
    1e88:	e8 33 f2 ff ff       	call   10c0 <puts@plt>
    1e8d:	bf 01 00 00 00       	mov    edi,0x1
    1e92:	e8 99 f2 ff ff       	call   1130 <exit@plt>
    1e97:	be 21 00 00 00       	mov    esi,0x21
    1e9c:	48 8d 05 76 d1 00 00 	lea    rax,[rip+0xd176]        # f019 <_IO_stdin_used+0x19>
    1ea3:	48 89 c7             	mov    rdi,rax
    1ea6:	b8 00 00 00 00       	mov    eax,0x0
    1eab:	e8 40 f2 ff ff       	call   10f0 <printf@plt>
    1eb0:	b8 00 00 00 00       	mov    eax,0x0
    1eb5:	e8 b6 f3 ff ff       	call   1270 <get_input>
    1eba:	89 45 fc             	mov    DWORD PTR [rbp-0x4],eax
    1ebd:	81 7d fc b5 00 00 00 	cmp    DWORD PTR [rbp-0x4],0xb5
    1ec4:	75 05                	jne    1ecb <main+0xbb4>
    1ec6:	e9 6d 33 00 00       	jmp    5238 <main+0x3f21>
    1ecb:	83 7d fc 62          	cmp    DWORD PTR [rbp-0x4],0x62
    1ecf:	75 05                	jne    1ed6 <main+0xbbf>
    1ed1:	e9 2e 16 00 00       	jmp    3504 <main+0x21ed>
    1ed6:	81 7d fc be 00 00 00 	cmp    DWORD PTR [rbp-0x4],0xbe
    1edd:	75 05                	jne    1ee4 <main+0xbcd>
    1edf:	e9 93 36 00 00       	jmp    5577 <main+0x4260>
    1ee4:	48 8d 05 3d d1 00 00 	lea    rax,[rip+0xd13d]        # f028 <_IO_stdin_used+0x28>
    1eeb:	48 89 c7             	mov    rdi,rax
    1eee:	e8 cd f1 ff ff       	call   10c0 <puts@plt>
    1ef3:	bf 01 00 00 00       	mov    edi,0x1
    1ef8:	e8 33 f2 ff ff       	call   1130 <exit@plt>
    1efd:	be 22 00 00 00       	mov    esi,0x22
    1f02:	48 8d 05 10 d1 00 00 	lea    rax,[rip+0xd110]        # f019 <_IO_stdin_used+0x19>
    1f09:	48 89 c7             	mov    rdi,rax
    1f0c:	b8 00 00 00 00       	mov    eax,0x0
    1f11:	e8 da f1 ff ff       	call   10f0 <printf@plt>
    1f16:	b8 00 00 00 00       	mov    eax,0x0
    1f1b:	e8 50 f3 ff ff       	call   1270 <get_input>
    1f20:	89 45 fc             	mov    DWORD PTR [rbp-0x4],eax
    1f23:	81 7d fc 88 00 00 00 	cmp    DWORD PTR [rbp-0x4],0x88
    1f2a:	0f 84 54 23 00 00    	je     4284 <main+0x2f6d>
    1f30:	83 7d fc 79          	cmp    DWORD PTR [rbp-0x4],0x79
    1f34:	75 05                	jne    1f3b <main+0xc24>
    1f36:	e9 10 1e 00 00       	jmp    3d4b <main+0x2a34>
    1f3b:	48 8d 05 e6 d0 00 00 	lea    rax,[rip+0xd0e6]        # f028 <_IO_stdin_used+0x28>
    1f42:	48 89 c7             	mov    rdi,rax
    1f45:	e8 76 f1 ff ff       	call   10c0 <puts@plt>
    1f4a:	bf 01 00 00 00       	mov    edi,0x1
    1f4f:	e8 dc f1 ff ff       	call   1130 <exit@plt>
    1f54:	90                   	nop
    1f55:	be 23 00 00 00       	mov    esi,0x23
    1f5a:	48 8d 05 b8 d0 00 00 	lea    rax,[rip+0xd0b8]        # f019 <_IO_stdin_used+0x19>
    1f61:	48 89 c7             	mov    rdi,rax
    1f64:	b8 00 00 00 00       	mov    eax,0x0
    1f69:	e8 82 f1 ff ff       	call   10f0 <printf@plt>
    1f6e:	b8 00 00 00 00       	mov    eax,0x0
    1f73:	e8 f8 f2 ff ff       	call   1270 <get_input>
    1f78:	89 45 fc             	mov    DWORD PTR [rbp-0x4],eax
    1f7b:	81 7d fc 2a 02 00 00 	cmp    DWORD PTR [rbp-0x4],0x22a
    1f82:	75 05                	jne    1f89 <main+0xc72>
    1f84:	e9 a9 b4 00 00       	jmp    d432 <main+0xc11b>
    1f89:	48 8d 05 98 d0 00 00 	lea    rax,[rip+0xd098]        # f028 <_IO_stdin_used+0x28>
    1f90:	48 89 c7             	mov    rdi,rax
    1f93:	e8 28 f1 ff ff       	call   10c0 <puts@plt>
    1f98:	bf 01 00 00 00       	mov    edi,0x1
    1f9d:	e8 8e f1 ff ff       	call   1130 <exit@plt>
    1fa2:	be 24 00 00 00       	mov    esi,0x24
    1fa7:	48 8d 05 6b d0 00 00 	lea    rax,[rip+0xd06b]        # f019 <_IO_stdin_used+0x19>
    1fae:	48 89 c7             	mov    rdi,rax
    1fb1:	b8 00 00 00 00       	mov    eax,0x0
    1fb6:	e8 35 f1 ff ff       	call   10f0 <printf@plt>
    1fbb:	b8 00 00 00 00       	mov    eax,0x0
    1fc0:	e8 ab f2 ff ff       	call   1270 <get_input>
    1fc5:	89 45 fc             	mov    DWORD PTR [rbp-0x4],eax
    1fc8:	81 7d fc f9 01 00 00 	cmp    DWORD PTR [rbp-0x4],0x1f9
    1fcf:	75 05                	jne    1fd6 <main+0xcbf>
    1fd1:	e9 8d a3 00 00       	jmp    c363 <main+0xb04c>
    1fd6:	81 7d fc 4d 02 00 00 	cmp    DWORD PTR [rbp-0x4],0x24d
    1fdd:	75 05                	jne    1fe4 <main+0xccd>
    1fdf:	e9 55 c1 00 00       	jmp    e139 <main+0xce22>
    1fe4:	48 8d 05 3d d0 00 00 	lea    rax,[rip+0xd03d]        # f028 <_IO_stdin_used+0x28>
    1feb:	48 89 c7             	mov    rdi,rax
    1fee:	e8 cd f0 ff ff       	call   10c0 <puts@plt>
    1ff3:	bf 01 00 00 00       	mov    edi,0x1
    1ff8:	e8 33 f1 ff ff       	call   1130 <exit@plt>
    1ffd:	90                   	nop
    1ffe:	be 25 00 00 00       	mov    esi,0x25
    2003:	48 8d 05 0f d0 00 00 	lea    rax,[rip+0xd00f]        # f019 <_IO_stdin_used+0x19>
    200a:	48 89 c7             	mov    rdi,rax
    200d:	b8 00 00 00 00       	mov    eax,0x0
    2012:	e8 d9 f0 ff ff       	call   10f0 <printf@plt>
    2017:	b8 00 00 00 00       	mov    eax,0x0
    201c:	e8 4f f2 ff ff       	call   1270 <get_input>
    2021:	89 45 fc             	mov    DWORD PTR [rbp-0x4],eax
    2024:	81 7d fc 6f 01 00 00 	cmp    DWORD PTR [rbp-0x4],0x16f
    202b:	75 05                	jne    2032 <main+0xd1b>
    202d:	e9 dc 72 00 00       	jmp    930e <main+0x7ff7>
    2032:	48 8d 05 ef cf 00 00 	lea    rax,[rip+0xcfef]        # f028 <_IO_stdin_used+0x28>
    2039:	48 89 c7             	mov    rdi,rax
    203c:	e8 7f f0 ff ff       	call   10c0 <puts@plt>
    2041:	bf 01 00 00 00       	mov    edi,0x1
    2046:	e8 e5 f0 ff ff       	call   1130 <exit@plt>
    204b:	90                   	nop
    204c:	be 26 00 00 00       	mov    esi,0x26
    2051:	48 8d 05 c1 cf 00 00 	lea    rax,[rip+0xcfc1]        # f019 <_IO_stdin_used+0x19>
    2058:	48 89 c7             	mov    rdi,rax
    205b:	b8 00 00 00 00       	mov    eax,0x0
    2060:	e8 8b f0 ff ff       	call   10f0 <printf@plt>
    2065:	b8 00 00 00 00       	mov    eax,0x0
    206a:	e8 01 f2 ff ff       	call   1270 <get_input>
    206f:	89 45 fc             	mov    DWORD PTR [rbp-0x4],eax
    2072:	83 7d fc 08          	cmp    DWORD PTR [rbp-0x4],0x8
    2076:	75 05                	jne    207d <main+0xd66>
    2078:	e9 40 f5 ff ff       	jmp    15bd <main+0x2a6>
    207d:	48 8d 05 a4 cf 00 00 	lea    rax,[rip+0xcfa4]        # f028 <_IO_stdin_used+0x28>
    2084:	48 89 c7             	mov    rdi,rax
    2087:	e8 34 f0 ff ff       	call   10c0 <puts@plt>
    208c:	bf 01 00 00 00       	mov    edi,0x1
    2091:	e8 9a f0 ff ff       	call   1130 <exit@plt>
    2096:	be 27 00 00 00       	mov    esi,0x27
    209b:	48 8d 05 77 cf 00 00 	lea    rax,[rip+0xcf77]        # f019 <_IO_stdin_used+0x19>
    20a2:	48 89 c7             	mov    rdi,rax
    20a5:	b8 00 00 00 00       	mov    eax,0x0
    20aa:	e8 41 f0 ff ff       	call   10f0 <printf@plt>
    20af:	b8 00 00 00 00       	mov    eax,0x0
    20b4:	e8 b7 f1 ff ff       	call   1270 <get_input>
    20b9:	89 45 fc             	mov    DWORD PTR [rbp-0x4],eax
    20bc:	81 7d fc 33 01 00 00 	cmp    DWORD PTR [rbp-0x4],0x133
    20c3:	75 05                	jne    20ca <main+0xdb3>
    20c5:	e9 41 5d 00 00       	jmp    7e0b <main+0x6af4>
    20ca:	81 7d fc fa 00 00 00 	cmp    DWORD PTR [rbp-0x4],0xfa
    20d1:	75 05                	jne    20d8 <main+0xdc1>
    20d3:	e9 70 49 00 00       	jmp    6a48 <main+0x5731>
    20d8:	48 8d 05 49 cf 00 00 	lea    rax,[rip+0xcf49]        # f028 <_IO_stdin_used+0x28>
    20df:	48 89 c7             	mov    rdi,rax
    20e2:	e8 d9 ef ff ff       	call   10c0 <puts@plt>
    20e7:	bf 01 00 00 00       	mov    edi,0x1
    20ec:	e8 3f f0 ff ff       	call   1130 <exit@plt>
    20f1:	be 28 00 00 00       	mov    esi,0x28
    20f6:	48 8d 05 1c cf 00 00 	lea    rax,[rip+0xcf1c]        # f019 <_IO_stdin_used+0x19>
    20fd:	48 89 c7             	mov    rdi,rax
    2100:	b8 00 00 00 00       	mov    eax,0x0
    2105:	e8 e6 ef ff ff       	call   10f0 <printf@plt>
    210a:	b8 00 00 00 00       	mov    eax,0x0
    210f:	e8 5c f1 ff ff       	call   1270 <get_input>
    2114:	89 45 fc             	mov    DWORD PTR [rbp-0x4],eax
    2117:	81 7d fc 9e 00 00 00 	cmp    DWORD PTR [rbp-0x4],0x9e
    211e:	75 05                	jne    2125 <main+0xe0e>
    2120:	e9 27 29 00 00       	jmp    4a4c <main+0x3735>
    2125:	83 7d fc 0b          	cmp    DWORD PTR [rbp-0x4],0xb
    2129:	75 05                	jne    2130 <main+0xe19>
    212b:	e9 a4 f5 ff ff       	jmp    16d4 <main+0x3bd>
    2130:	48 8d 05 f1 ce 00 00 	lea    rax,[rip+0xcef1]        # f028 <_IO_stdin_used+0x28>
    2137:	48 89 c7             	mov    rdi,rax
    213a:	e8 81 ef ff ff       	call   10c0 <puts@plt>
    213f:	bf 01 00 00 00       	mov    edi,0x1
    2144:	e8 e7 ef ff ff       	call   1130 <exit@plt>
    2149:	be 29 00 00 00       	mov    esi,0x29
    214e:	48 8d 05 c4 ce 00 00 	lea    rax,[rip+0xcec4]        # f019 <_IO_stdin_used+0x19>
    2155:	48 89 c7             	mov    rdi,rax
    2158:	b8 00 00 00 00       	mov    eax,0x0
    215d:	e8 8e ef ff ff       	call   10f0 <printf@plt>
    2162:	b8 00 00 00 00       	mov    eax,0x0
    2167:	e8 04 f1 ff ff       	call   1270 <get_input>
    216c:	89 45 fc             	mov    DWORD PTR [rbp-0x4],eax
    216f:	81 7d fc 31 01 00 00 	cmp    DWORD PTR [rbp-0x4],0x131
    2176:	75 05                	jne    217d <main+0xe66>
    2178:	e9 ce 5b 00 00       	jmp    7d4b <main+0x6a34>
    217d:	81 7d fc a3 01 00 00 	cmp    DWORD PTR [rbp-0x4],0x1a3
    2184:	75 05                	jne    218b <main+0xe74>
    2186:	e9 19 84 00 00       	jmp    a5a4 <main+0x928d>
    218b:	48 8d 05 96 ce 00 00 	lea    rax,[rip+0xce96]        # f028 <_IO_stdin_used+0x28>
    2192:	48 89 c7             	mov    rdi,rax
    2195:	e8 26 ef ff ff       	call   10c0 <puts@plt>
    219a:	bf 01 00 00 00       	mov    edi,0x1
    219f:	e8 8c ef ff ff       	call   1130 <exit@plt>
    21a4:	be 2a 00 00 00       	mov    esi,0x2a
    21a9:	48 8d 05 69 ce 00 00 	lea    rax,[rip+0xce69]        # f019 <_IO_stdin_used+0x19>
    21b0:	48 89 c7             	mov    rdi,rax
    21b3:	b8 00 00 00 00       	mov    eax,0x0
    21b8:	e8 33 ef ff ff       	call   10f0 <printf@plt>
    21bd:	b8 00 00 00 00       	mov    eax,0x0
    21c2:	e8 a9 f0 ff ff       	call   1270 <get_input>
    21c7:	89 45 fc             	mov    DWORD PTR [rbp-0x4],eax
    21ca:	81 7d fc ef 01 00 00 	cmp    DWORD PTR [rbp-0x4],0x1ef
    21d1:	75 05                	jne    21d8 <main+0xec1>
    21d3:	e9 1c 9e 00 00       	jmp    bff4 <main+0xacdd>
    21d8:	81 7d fc 6f 01 00 00 	cmp    DWORD PTR [rbp-0x4],0x16f
    21df:	75 05                	jne    21e6 <main+0xecf>
    21e1:	e9 28 71 00 00       	jmp    930e <main+0x7ff7>
    21e6:	48 8d 05 3b ce 00 00 	lea    rax,[rip+0xce3b]        # f028 <_IO_stdin_used+0x28>
    21ed:	48 89 c7             	mov    rdi,rax
    21f0:	e8 cb ee ff ff       	call   10c0 <puts@plt>
    21f5:	bf 01 00 00 00       	mov    edi,0x1
    21fa:	e8 31 ef ff ff       	call   1130 <exit@plt>
    21ff:	90                   	nop
    2200:	be 2b 00 00 00       	mov    esi,0x2b
    2205:	48 8d 05 0d ce 00 00 	lea    rax,[rip+0xce0d]        # f019 <_IO_stdin_used+0x19>
    220c:	48 89 c7             	mov    rdi,rax
    220f:	b8 00 00 00 00       	mov    eax,0x0
    2214:	e8 d7 ee ff ff       	call   10f0 <printf@plt>
    2219:	b8 00 00 00 00       	mov    eax,0x0
    221e:	e8 4d f0 ff ff       	call   1270 <get_input>
    2223:	89 45 fc             	mov    DWORD PTR [rbp-0x4],eax
    2226:	83 7d fc 53          	cmp    DWORD PTR [rbp-0x4],0x53
    222a:	75 05                	jne    2231 <main+0xf1a>
    222c:	e9 85 0d 00 00       	jmp    2fb6 <main+0x1c9f>
    2231:	48 8d 05 f0 cd 00 00 	lea    rax,[rip+0xcdf0]        # f028 <_IO_stdin_used+0x28>
    2238:	48 89 c7             	mov    rdi,rax
    223b:	e8 80 ee ff ff       	call   10c0 <puts@plt>
    2240:	bf 01 00 00 00       	mov    edi,0x1
    2245:	e8 e6 ee ff ff       	call   1130 <exit@plt>
    224a:	90                   	nop
    224b:	be 2c 00 00 00       	mov    esi,0x2c
    2250:	48 8d 05 c2 cd 00 00 	lea    rax,[rip+0xcdc2]        # f019 <_IO_stdin_used+0x19>
    2257:	48 89 c7             	mov    rdi,rax
    225a:	b8 00 00 00 00       	mov    eax,0x0
    225f:	e8 8c ee ff ff       	call   10f0 <printf@plt>
    2264:	b8 00 00 00 00       	mov    eax,0x0
    2269:	e8 02 f0 ff ff       	call   1270 <get_input>
    226e:	89 45 fc             	mov    DWORD PTR [rbp-0x4],eax
    2271:	83 7d fc 15          	cmp    DWORD PTR [rbp-0x4],0x15
    2275:	75 05                	jne    227c <main+0xf65>
    2277:	e9 e5 f7 ff ff       	jmp    1a61 <main+0x74a>
    227c:	48 8d 05 a5 cd 00 00 	lea    rax,[rip+0xcda5]        # f028 <_IO_stdin_used+0x28>
    2283:	48 89 c7             	mov    rdi,rax
    2286:	e8 35 ee ff ff       	call   10c0 <puts@plt>
    228b:	bf 01 00 00 00       	mov    edi,0x1
    2290:	e8 9b ee ff ff       	call   1130 <exit@plt>
    2295:	90                   	nop
    2296:	be 2d 00 00 00       	mov    esi,0x2d
    229b:	48 8d 05 77 cd 00 00 	lea    rax,[rip+0xcd77]        # f019 <_IO_stdin_used+0x19>
    22a2:	48 89 c7             	mov    rdi,rax
    22a5:	b8 00 00 00 00       	mov    eax,0x0
    22aa:	e8 41 ee ff ff       	call   10f0 <printf@plt>
    22af:	b8 00 00 00 00       	mov    eax,0x0
    22b4:	e8 b7 ef ff ff       	call   1270 <get_input>
    22b9:	89 45 fc             	mov    DWORD PTR [rbp-0x4],eax
    22bc:	81 7d fc 8b 01 00 00 	cmp    DWORD PTR [rbp-0x4],0x18b
    22c3:	75 05                	jne    22ca <main+0xfb3>
    22c5:	e9 26 7a 00 00       	jmp    9cf0 <main+0x89d9>
    22ca:	48 8d 05 57 cd 00 00 	lea    rax,[rip+0xcd57]        # f028 <_IO_stdin_used+0x28>
    22d1:	48 89 c7             	mov    rdi,rax
    22d4:	e8 e7 ed ff ff       	call   10c0 <puts@plt>
    22d9:	bf 01 00 00 00       	mov    edi,0x1
    22de:	e8 4d ee ff ff       	call   1130 <exit@plt>
    22e3:	be 2e 00 00 00       	mov    esi,0x2e
    22e8:	48 8d 05 2a cd 00 00 	lea    rax,[rip+0xcd2a]        # f019 <_IO_stdin_used+0x19>
    22ef:	48 89 c7             	mov    rdi,rax
    22f2:	b8 00 00 00 00       	mov    eax,0x0
    22f7:	e8 f4 ed ff ff       	call   10f0 <printf@plt>
    22fc:	b8 00 00 00 00       	mov    eax,0x0
    2301:	e8 6a ef ff ff       	call   1270 <get_input>
    2306:	89 45 fc             	mov    DWORD PTR [rbp-0x4],eax
    2309:	81 7d fc 12 01 00 00 	cmp    DWORD PTR [rbp-0x4],0x112
    2310:	75 05                	jne    2317 <main+0x1000>
    2312:	e9 6c 4f 00 00       	jmp    7283 <main+0x5f6c>
    2317:	81 7d fc 35 01 00 00 	cmp    DWORD PTR [rbp-0x4],0x135
    231e:	0f 84 b0 5b 00 00    	je     7ed4 <main+0x6bbd>
    2324:	48 8d 05 fd cc 00 00 	lea    rax,[rip+0xccfd]        # f028 <_IO_stdin_used+0x28>
    232b:	48 89 c7             	mov    rdi,rax
    232e:	e8 8d ed ff ff       	call   10c0 <puts@plt>
    2333:	bf 01 00 00 00       	mov    edi,0x1
    2338:	e8 f3 ed ff ff       	call   1130 <exit@plt>
    233d:	be 2f 00 00 00       	mov    esi,0x2f
    2342:	48 8d 05 d0 cc 00 00 	lea    rax,[rip+0xccd0]        # f019 <_IO_stdin_used+0x19>
    2349:	48 89 c7             	mov    rdi,rax
    234c:	b8 00 00 00 00       	mov    eax,0x0
    2351:	e8 9a ed ff ff       	call   10f0 <printf@plt>
    2356:	b8 00 00 00 00       	mov    eax,0x0
    235b:	e8 10 ef ff ff       	call   1270 <get_input>
    2360:	89 45 fc             	mov    DWORD PTR [rbp-0x4],eax
    2363:	81 7d fc 9f 01 00 00 	cmp    DWORD PTR [rbp-0x4],0x19f
    236a:	75 05                	jne    2371 <main+0x105a>
    236c:	e9 da 80 00 00       	jmp    a44b <main+0x9134>
    2371:	81 7d fc 46 01 00 00 	cmp    DWORD PTR [rbp-0x4],0x146
    2378:	0f 84 49 61 00 00    	je     84c7 <main+0x71b0>
    237e:	48 8d 05 a3 cc 00 00 	lea    rax,[rip+0xcca3]        # f028 <_IO_stdin_used+0x28>
    2385:	48 89 c7             	mov    rdi,rax
    2388:	e8 33 ed ff ff       	call   10c0 <puts@plt>
    238d:	bf 01 00 00 00       	mov    edi,0x1
    2392:	e8 99 ed ff ff       	call   1130 <exit@plt>
    2397:	90                   	nop
    2398:	be 30 00 00 00       	mov    esi,0x30
    239d:	48 8d 05 75 cc 00 00 	lea    rax,[rip+0xcc75]        # f019 <_IO_stdin_used+0x19>
    23a4:	48 89 c7             	mov    rdi,rax
    23a7:	b8 00 00 00 00       	mov    eax,0x0
    23ac:	e8 3f ed ff ff       	call   10f0 <printf@plt>
    23b1:	b8 00 00 00 00       	mov    eax,0x0
    23b6:	e8 b5 ee ff ff       	call   1270 <get_input>
    23bb:	89 45 fc             	mov    DWORD PTR [rbp-0x4],eax
    23be:	81 7d fc 4b 01 00 00 	cmp    DWORD PTR [rbp-0x4],0x14b
    23c5:	75 05                	jne    23cc <main+0x10b5>
    23c7:	e9 cc 62 00 00       	jmp    8698 <main+0x7381>
    23cc:	48 8d 05 55 cc 00 00 	lea    rax,[rip+0xcc55]        # f028 <_IO_stdin_used+0x28>
    23d3:	48 89 c7             	mov    rdi,rax
    23d6:	e8 e5 ec ff ff       	call   10c0 <puts@plt>
    23db:	bf 01 00 00 00       	mov    edi,0x1
    23e0:	e8 4b ed ff ff       	call   1130 <exit@plt>
    23e5:	90                   	nop
    23e6:	be 31 00 00 00       	mov    esi,0x31
    23eb:	48 8d 05 27 cc 00 00 	lea    rax,[rip+0xcc27]        # f019 <_IO_stdin_used+0x19>
    23f2:	48 89 c7             	mov    rdi,rax
    23f5:	b8 00 00 00 00       	mov    eax,0x0
    23fa:	e8 f1 ec ff ff       	call   10f0 <printf@plt>
    23ff:	b8 00 00 00 00       	mov    eax,0x0
    2404:	e8 67 ee ff ff       	call   1270 <get_input>
    2409:	89 45 fc             	mov    DWORD PTR [rbp-0x4],eax
    240c:	83 7d fc 5e          	cmp    DWORD PTR [rbp-0x4],0x5e
    2410:	75 05                	jne    2417 <main+0x1100>
    2412:	e9 8c 0f 00 00       	jmp    33a3 <main+0x208c>
    2417:	48 8d 05 0a cc 00 00 	lea    rax,[rip+0xcc0a]        # f028 <_IO_stdin_used+0x28>
    241e:	48 89 c7             	mov    rdi,rax
    2421:	e8 9a ec ff ff       	call   10c0 <puts@plt>
    2426:	bf 01 00 00 00       	mov    edi,0x1
    242b:	e8 00 ed ff ff       	call   1130 <exit@plt>
    2430:	90                   	nop
    2431:	be 32 00 00 00       	mov    esi,0x32
    2436:	48 8d 05 dc cb 00 00 	lea    rax,[rip+0xcbdc]        # f019 <_IO_stdin_used+0x19>
    243d:	48 89 c7             	mov    rdi,rax
    2440:	b8 00 00 00 00       	mov    eax,0x0
    2445:	e8 a6 ec ff ff       	call   10f0 <printf@plt>
    244a:	b8 00 00 00 00       	mov    eax,0x0
    244f:	e8 1c ee ff ff       	call   1270 <get_input>
    2454:	89 45 fc             	mov    DWORD PTR [rbp-0x4],eax
    2457:	81 7d fc 6f 02 00 00 	cmp    DWORD PTR [rbp-0x4],0x26f
    245e:	75 05                	jne    2465 <main+0x114e>
    2460:	e9 2b c9 00 00       	jmp    ed90 <main+0xda79>
    2465:	48 8d 05 bc cb 00 00 	lea    rax,[rip+0xcbbc]        # f028 <_IO_stdin_used+0x28>
    246c:	48 89 c7             	mov    rdi,rax
    246f:	e8 4c ec ff ff       	call   10c0 <puts@plt>
    2474:	bf 01 00 00 00       	mov    edi,0x1
    2479:	e8 b2 ec ff ff       	call   1130 <exit@plt>
    247e:	90                   	nop
    247f:	be 33 00 00 00       	mov    esi,0x33
    2484:	48 8d 05 8e cb 00 00 	lea    rax,[rip+0xcb8e]        # f019 <_IO_stdin_used+0x19>
    248b:	48 89 c7             	mov    rdi,rax
    248e:	b8 00 00 00 00       	mov    eax,0x0
    2493:	e8 58 ec ff ff       	call   10f0 <printf@plt>
    2498:	b8 00 00 00 00       	mov    eax,0x0
    249d:	e8 ce ed ff ff       	call   1270 <get_input>
    24a2:	89 45 fc             	mov    DWORD PTR [rbp-0x4],eax
    24a5:	81 7d fc 2b 02 00 00 	cmp    DWORD PTR [rbp-0x4],0x22b
    24ac:	75 05                	jne    24b3 <main+0x119c>
    24ae:	e9 f2 af 00 00       	jmp    d4a5 <main+0xc18e>
    24b3:	48 8d 05 6e cb 00 00 	lea    rax,[rip+0xcb6e]        # f028 <_IO_stdin_used+0x28>
    24ba:	48 89 c7             	mov    rdi,rax
    24bd:	e8 fe eb ff ff       	call   10c0 <puts@plt>
    24c2:	bf 01 00 00 00       	mov    edi,0x1
    24c7:	e8 64 ec ff ff       	call   1130 <exit@plt>
    24cc:	be 34 00 00 00       	mov    esi,0x34
    24d1:	48 8d 05 41 cb 00 00 	lea    rax,[rip+0xcb41]        # f019 <_IO_stdin_used+0x19>
    24d8:	48 89 c7             	mov    rdi,rax
    24db:	b8 00 00 00 00       	mov    eax,0x0
    24e0:	e8 0b ec ff ff       	call   10f0 <printf@plt>
    24e5:	b8 00 00 00 00       	mov    eax,0x0
    24ea:	e8 81 ed ff ff       	call   1270 <get_input>
    24ef:	89 45 fc             	mov    DWORD PTR [rbp-0x4],eax
    24f2:	81 7d fc 5d 01 00 00 	cmp    DWORD PTR [rbp-0x4],0x15d
    24f9:	75 05                	jne    2500 <main+0x11e9>
    24fb:	e9 e1 67 00 00       	jmp    8ce1 <main+0x79ca>
    2500:	81 7d fc c4 01 00 00 	cmp    DWORD PTR [rbp-0x4],0x1c4
    2507:	75 05                	jne    250e <main+0x11f7>
    2509:	e9 0a 8c 00 00       	jmp    b118 <main+0x9e01>
    250e:	81 7d fc 8c 00 00 00 	cmp    DWORD PTR [rbp-0x4],0x8c
    2515:	75 05                	jne    251c <main+0x1205>
    2517:	e9 bf 1e 00 00       	jmp    43db <main+0x30c4>
    251c:	48 8d 05 05 cb 00 00 	lea    rax,[rip+0xcb05]        # f028 <_IO_stdin_used+0x28>
    2523:	48 89 c7             	mov    rdi,rax
    2526:	e8 95 eb ff ff       	call   10c0 <puts@plt>
    252b:	bf 01 00 00 00       	mov    edi,0x1
    2530:	e8 fb eb ff ff       	call   1130 <exit@plt>
    2535:	be 35 00 00 00       	mov    esi,0x35
    253a:	48 8d 05 d8 ca 00 00 	lea    rax,[rip+0xcad8]        # f019 <_IO_stdin_used+0x19>
    2541:	48 89 c7             	mov    rdi,rax
    2544:	b8 00 00 00 00       	mov    eax,0x0
    2549:	e8 a2 eb ff ff       	call   10f0 <printf@plt>
    254e:	b8 00 00 00 00       	mov    eax,0x0
    2553:	e8 18 ed ff ff       	call   1270 <get_input>
    2558:	89 45 fc             	mov    DWORD PTR [rbp-0x4],eax
    255b:	81 7d fc bf 00 00 00 	cmp    DWORD PTR [rbp-0x4],0xbf
    2562:	75 05                	jne    2569 <main+0x1252>
    2564:	e9 63 30 00 00       	jmp    55cc <main+0x42b5>
    2569:	83 7d fc 71          	cmp    DWORD PTR [rbp-0x4],0x71
    256d:	75 05                	jne    2574 <main+0x125d>
    256f:	e9 e0 14 00 00       	jmp    3a54 <main+0x273d>
    2574:	48 8d 05 ad ca 00 00 	lea    rax,[rip+0xcaad]        # f028 <_IO_stdin_used+0x28>
    257b:	48 89 c7             	mov    rdi,rax
    257e:	e8 3d eb ff ff       	call   10c0 <puts@plt>
    2583:	bf 01 00 00 00       	mov    edi,0x1
    2588:	e8 a3 eb ff ff       	call   1130 <exit@plt>
    258d:	90                   	nop
    258e:	be 36 00 00 00       	mov    esi,0x36
    2593:	48 8d 05 7f ca 00 00 	lea    rax,[rip+0xca7f]        # f019 <_IO_stdin_used+0x19>
    259a:	48 89 c7             	mov    rdi,rax
    259d:	b8 00 00 00 00       	mov    eax,0x0
    25a2:	e8 49 eb ff ff       	call   10f0 <printf@plt>
    25a7:	b8 00 00 00 00       	mov    eax,0x0
    25ac:	e8 bf ec ff ff       	call   1270 <get_input>
    25b1:	89 45 fc             	mov    DWORD PTR [rbp-0x4],eax
    25b4:	83 7d fc 14          	cmp    DWORD PTR [rbp-0x4],0x14
    25b8:	75 05                	jne    25bf <main+0x12a8>
    25ba:	e9 3e f4 ff ff       	jmp    19fd <main+0x6e6>
    25bf:	48 8d 05 62 ca 00 00 	lea    rax,[rip+0xca62]        # f028 <_IO_stdin_used+0x28>
    25c6:	48 89 c7             	mov    rdi,rax
    25c9:	e8 f2 ea ff ff       	call   10c0 <puts@plt>
    25ce:	bf 01 00 00 00       	mov    edi,0x1
    25d3:	e8 58 eb ff ff       	call   1130 <exit@plt>
    25d8:	90                   	nop
    25d9:	be 37 00 00 00       	mov    esi,0x37
    25de:	48 8d 05 34 ca 00 00 	lea    rax,[rip+0xca34]        # f019 <_IO_stdin_used+0x19>
    25e5:	48 89 c7             	mov    rdi,rax
    25e8:	b8 00 00 00 00       	mov    eax,0x0
    25ed:	e8 fe ea ff ff       	call   10f0 <printf@plt>
    25f2:	b8 00 00 00 00       	mov    eax,0x0
    25f7:	e8 74 ec ff ff       	call   1270 <get_input>
    25fc:	89 45 fc             	mov    DWORD PTR [rbp-0x4],eax
    25ff:	81 7d fc ba 00 00 00 	cmp    DWORD PTR [rbp-0x4],0xba
    2606:	75 05                	jne    260d <main+0x12f6>
    2608:	e9 ea 2d 00 00       	jmp    53f7 <main+0x40e0>
    260d:	48 8d 05 14 ca 00 00 	lea    rax,[rip+0xca14]        # f028 <_IO_stdin_used+0x28>
    2614:	48 89 c7             	mov    rdi,rax
    2617:	e8 a4 ea ff ff       	call   10c0 <puts@plt>
    261c:	bf 01 00 00 00       	mov    edi,0x1
    2621:	e8 0a eb ff ff       	call   1130 <exit@plt>
    2626:	90                   	nop
    2627:	be 38 00 00 00       	mov    esi,0x38
    262c:	48 8d 05 e6 c9 00 00 	lea    rax,[rip+0xc9e6]        # f019 <_IO_stdin_used+0x19>
    2633:	48 89 c7             	mov    rdi,rax
    2636:	b8 00 00 00 00       	mov    eax,0x0
    263b:	e8 b0 ea ff ff       	call   10f0 <printf@plt>
    2640:	b8 00 00 00 00       	mov    eax,0x0
    2645:	e8 26 ec ff ff       	call   1270 <get_input>
    264a:	89 45 fc             	mov    DWORD PTR [rbp-0x4],eax
    264d:	81 7d fc 56 01 00 00 	cmp    DWORD PTR [rbp-0x4],0x156
    2654:	75 05                	jne    265b <main+0x1344>
    2656:	e9 2d 64 00 00       	jmp    8a88 <main+0x7771>
    265b:	48 8d 05 c6 c9 00 00 	lea    rax,[rip+0xc9c6]        # f028 <_IO_stdin_used+0x28>
    2662:	48 89 c7             	mov    rdi,rax
    2665:	e8 56 ea ff ff       	call   10c0 <puts@plt>
    266a:	bf 01 00 00 00       	mov    edi,0x1
    266f:	e8 bc ea ff ff       	call   1130 <exit@plt>
    2674:	90                   	nop
    2675:	be 39 00 00 00       	mov    esi,0x39
    267a:	48 8d 05 98 c9 00 00 	lea    rax,[rip+0xc998]        # f019 <_IO_stdin_used+0x19>
    2681:	48 89 c7             	mov    rdi,rax
    2684:	b8 00 00 00 00       	mov    eax,0x0
    2689:	e8 62 ea ff ff       	call   10f0 <printf@plt>
    268e:	b8 00 00 00 00       	mov    eax,0x0
    2693:	e8 d8 eb ff ff       	call   1270 <get_input>
    2698:	89 45 fc             	mov    DWORD PTR [rbp-0x4],eax
    269b:	81 7d fc 8d 00 00 00 	cmp    DWORD PTR [rbp-0x4],0x8d
    26a2:	75 05                	jne    26a9 <main+0x1392>
    26a4:	e9 8a 1d 00 00       	jmp    4433 <main+0x311c>
    26a9:	48 8d 05 78 c9 00 00 	lea    rax,[rip+0xc978]        # f028 <_IO_stdin_used+0x28>
    26b0:	48 89 c7             	mov    rdi,rax
    26b3:	e8 08 ea ff ff       	call   10c0 <puts@plt>
    26b8:	bf 01 00 00 00       	mov    edi,0x1
    26bd:	e8 6e ea ff ff       	call   1130 <exit@plt>
    26c2:	be 3a 00 00 00       	mov    esi,0x3a
    26c7:	48 8d 05 4b c9 00 00 	lea    rax,[rip+0xc94b]        # f019 <_IO_stdin_used+0x19>
    26ce:	48 89 c7             	mov    rdi,rax
    26d1:	b8 00 00 00 00       	mov    eax,0x0
    26d6:	e8 15 ea ff ff       	call   10f0 <printf@plt>
    26db:	b8 00 00 00 00       	mov    eax,0x0
    26e0:	e8 8b eb ff ff       	call   1270 <get_input>
    26e5:	89 45 fc             	mov    DWORD PTR [rbp-0x4],eax
    26e8:	81 7d fc 96 00 00 00 	cmp    DWORD PTR [rbp-0x4],0x96
    26ef:	75 05                	jne    26f6 <main+0x13df>
    26f1:	e9 6a 20 00 00       	jmp    4760 <main+0x3449>
    26f6:	81 7d fc e1 00 00 00 	cmp    DWORD PTR [rbp-0x4],0xe1
    26fd:	75 05                	jne    2704 <main+0x13ed>
    26ff:	e9 98 3a 00 00       	jmp    619c <main+0x4e85>
    2704:	81 7d fc 10 01 00 00 	cmp    DWORD PTR [rbp-0x4],0x110
    270b:	75 05                	jne    2712 <main+0x13fb>
    270d:	e9 c4 4a 00 00       	jmp    71d6 <main+0x5ebf>
    2712:	48 8d 05 0f c9 00 00 	lea    rax,[rip+0xc90f]        # f028 <_IO_stdin_used+0x28>
    2719:	48 89 c7             	mov    rdi,rax
    271c:	e8 9f e9 ff ff       	call   10c0 <puts@plt>
    2721:	bf 01 00 00 00       	mov    edi,0x1
    2726:	e8 05 ea ff ff       	call   1130 <exit@plt>
    272b:	90                   	nop
    272c:	be 3b 00 00 00       	mov    esi,0x3b
    2731:	48 8d 05 e1 c8 00 00 	lea    rax,[rip+0xc8e1]        # f019 <_IO_stdin_used+0x19>
    2738:	48 89 c7             	mov    rdi,rax
    273b:	b8 00 00 00 00       	mov    eax,0x0
    2740:	e8 ab e9 ff ff       	call   10f0 <printf@plt>
    2745:	b8 00 00 00 00       	mov    eax,0x0
    274a:	e8 21 eb ff ff       	call   1270 <get_input>
    274f:	89 45 fc             	mov    DWORD PTR [rbp-0x4],eax
    2752:	81 7d fc f6 01 00 00 	cmp    DWORD PTR [rbp-0x4],0x1f6
    2759:	75 05                	jne    2760 <main+0x1449>
    275b:	e9 fb 9a 00 00       	jmp    c25b <main+0xaf44>
    2760:	48 8d 05 c1 c8 00 00 	lea    rax,[rip+0xc8c1]        # f028 <_IO_stdin_used+0x28>
    2767:	48 89 c7             	mov    rdi,rax
    276a:	e8 51 e9 ff ff       	call   10c0 <puts@plt>
    276f:	bf 01 00 00 00       	mov    edi,0x1
    2774:	e8 b7 e9 ff ff       	call   1130 <exit@plt>
    2779:	90                   	nop
    277a:	be 3c 00 00 00       	mov    esi,0x3c
    277f:	48 8d 05 93 c8 00 00 	lea    rax,[rip+0xc893]        # f019 <_IO_stdin_used+0x19>
    2786:	48 89 c7             	mov    rdi,rax
    2789:	b8 00 00 00 00       	mov    eax,0x0
    278e:	e8 5d e9 ff ff       	call   10f0 <printf@plt>
    2793:	b8 00 00 00 00       	mov    eax,0x0
    2798:	e8 d3 ea ff ff       	call   1270 <get_input>
    279d:	89 45 fc             	mov    DWORD PTR [rbp-0x4],eax
    27a0:	81 7d fc 4d 01 00 00 	cmp    DWORD PTR [rbp-0x4],0x14d
    27a7:	75 05                	jne    27ae <main+0x1497>
    27a9:	e9 a7 5f 00 00       	jmp    8755 <main+0x743e>
    27ae:	48 8d 05 73 c8 00 00 	lea    rax,[rip+0xc873]        # f028 <_IO_stdin_used+0x28>
    27b5:	48 89 c7             	mov    rdi,rax
    27b8:	e8 03 e9 ff ff       	call   10c0 <puts@plt>
    27bd:	bf 01 00 00 00       	mov    edi,0x1
    27c2:	e8 69 e9 ff ff       	call   1130 <exit@plt>
    27c7:	be 3d 00 00 00       	mov    esi,0x3d
    27cc:	48 8d 05 46 c8 00 00 	lea    rax,[rip+0xc846]        # f019 <_IO_stdin_used+0x19>
    27d3:	48 89 c7             	mov    rdi,rax
    27d6:	b8 00 00 00 00       	mov    eax,0x0
    27db:	e8 10 e9 ff ff       	call   10f0 <printf@plt>
    27e0:	b8 00 00 00 00       	mov    eax,0x0
    27e5:	e8 86 ea ff ff       	call   1270 <get_input>
    27ea:	89 45 fc             	mov    DWORD PTR [rbp-0x4],eax
    27ed:	81 7d fc 94 01 00 00 	cmp    DWORD PTR [rbp-0x4],0x194
    27f4:	75 05                	jne    27fb <main+0x14e4>
    27f6:	e9 43 78 00 00       	jmp    a03e <main+0x8d27>
    27fb:	83 7d fc 4b          	cmp    DWORD PTR [rbp-0x4],0x4b
    27ff:	75 05                	jne    2806 <main+0x14ef>
    2801:	e9 be 04 00 00       	jmp    2cc4 <main+0x19ad>
    2806:	48 8d 05 1b c8 00 00 	lea    rax,[rip+0xc81b]        # f028 <_IO_stdin_used+0x28>
    280d:	48 89 c7             	mov    rdi,rax
    2810:	e8 ab e8 ff ff       	call   10c0 <puts@plt>
    2815:	bf 01 00 00 00       	mov    edi,0x1
    281a:	e8 11 e9 ff ff       	call   1130 <exit@plt>
    281f:	be 3e 00 00 00       	mov    esi,0x3e
    2824:	48 8d 05 ee c7 00 00 	lea    rax,[rip+0xc7ee]        # f019 <_IO_stdin_used+0x19>
    282b:	48 89 c7             	mov    rdi,rax
    282e:	b8 00 00 00 00       	mov    eax,0x0
    2833:	e8 b8 e8 ff ff       	call   10f0 <printf@plt>
    2838:	b8 00 00 00 00       	mov    eax,0x0
    283d:	e8 2e ea ff ff       	call   1270 <get_input>
    2842:	89 45 fc             	mov    DWORD PTR [rbp-0x4],eax
    2845:	81 7d fc 45 02 00 00 	cmp    DWORD PTR [rbp-0x4],0x245
    284c:	75 05                	jne    2853 <main+0x153c>
    284e:	e9 da b5 00 00       	jmp    de2d <main+0xcb16>
    2853:	81 7d fc 58 01 00 00 	cmp    DWORD PTR [rbp-0x4],0x158
    285a:	0f 84 e5 62 00 00    	je     8b45 <main+0x782e>
    2860:	48 8d 05 c1 c7 00 00 	lea    rax,[rip+0xc7c1]        # f028 <_IO_stdin_used+0x28>
    2867:	48 89 c7             	mov    rdi,rax
    286a:	e8 51 e8 ff ff       	call   10c0 <puts@plt>
    286f:	bf 01 00 00 00       	mov    edi,0x1
    2874:	e8 b7 e8 ff ff       	call   1130 <exit@plt>
    2879:	be 3f 00 00 00       	mov    esi,0x3f
    287e:	48 8d 05 94 c7 00 00 	lea    rax,[rip+0xc794]        # f019 <_IO_stdin_used+0x19>
    2885:	48 89 c7             	mov    rdi,rax
    2888:	b8 00 00 00 00       	mov    eax,0x0
    288d:	e8 5e e8 ff ff       	call   10f0 <printf@plt>
    2892:	b8 00 00 00 00       	mov    eax,0x0
    2897:	e8 d4 e9 ff ff       	call   1270 <get_input>
    289c:	89 45 fc             	mov    DWORD PTR [rbp-0x4],eax
    289f:	81 7d fc dc 01 00 00 	cmp    DWORD PTR [rbp-0x4],0x1dc
    28a6:	75 05                	jne    28ad <main+0x1596>
    28a8:	e9 ca 90 00 00       	jmp    b977 <main+0xa660>
    28ad:	81 7d fc 67 01 00 00 	cmp    DWORD PTR [rbp-0x4],0x167
    28b4:	75 05                	jne    28bb <main+0x15a4>
    28b6:	e9 93 67 00 00       	jmp    904e <main+0x7d37>
    28bb:	48 8d 05 66 c7 00 00 	lea    rax,[rip+0xc766]        # f028 <_IO_stdin_used+0x28>
    28c2:	48 89 c7             	mov    rdi,rax
    28c5:	e8 f6 e7 ff ff       	call   10c0 <puts@plt>
    28ca:	bf 01 00 00 00       	mov    edi,0x1
    28cf:	e8 5c e8 ff ff       	call   1130 <exit@plt>
    28d4:	be 40 00 00 00       	mov    esi,0x40
    28d9:	48 8d 05 39 c7 00 00 	lea    rax,[rip+0xc739]        # f019 <_IO_stdin_used+0x19>
    28e0:	48 89 c7             	mov    rdi,rax
    28e3:	b8 00 00 00 00       	mov    eax,0x0
    28e8:	e8 03 e8 ff ff       	call   10f0 <printf@plt>
    28ed:	b8 00 00 00 00       	mov    eax,0x0
    28f2:	e8 79 e9 ff ff       	call   1270 <get_input>
    28f7:	89 45 fc             	mov    DWORD PTR [rbp-0x4],eax
    28fa:	81 7d fc 77 01 00 00 	cmp    DWORD PTR [rbp-0x4],0x177
    2901:	75 05                	jne    2908 <main+0x15f1>
    2903:	e9 e8 6c 00 00       	jmp    95f0 <main+0x82d9>
    2908:	81 7d fc f9 00 00 00 	cmp    DWORD PTR [rbp-0x4],0xf9
    290f:	75 05                	jne    2916 <main+0x15ff>
    2911:	e9 bf 40 00 00       	jmp    69d5 <main+0x56be>
    2916:	48 8d 05 0b c7 00 00 	lea    rax,[rip+0xc70b]        # f028 <_IO_stdin_used+0x28>
    291d:	48 89 c7             	mov    rdi,rax
    2920:	e8 9b e7 ff ff       	call   10c0 <puts@plt>
    2925:	bf 01 00 00 00       	mov    edi,0x1
    292a:	e8 01 e8 ff ff       	call   1130 <exit@plt>
    292f:	90                   	nop
    2930:	be 41 00 00 00       	mov    esi,0x41
    2935:	48 8d 05 dd c6 00 00 	lea    rax,[rip+0xc6dd]        # f019 <_IO_stdin_used+0x19>
    293c:	48 89 c7             	mov    rdi,rax
    293f:	b8 00 00 00 00       	mov    eax,0x0
    2944:	e8 a7 e7 ff ff       	call   10f0 <printf@plt>
    2949:	b8 00 00 00 00       	mov    eax,0x0
    294e:	e8 1d e9 ff ff       	call   1270 <get_input>
    2953:	89 45 fc             	mov    DWORD PTR [rbp-0x4],eax
    2956:	83 7d fc 44          	cmp    DWORD PTR [rbp-0x4],0x44
    295a:	75 05                	jne    2961 <main+0x164a>
    295c:	e9 dc 00 00 00       	jmp    2a3d <main+0x1726>
    2961:	48 8d 05 c0 c6 00 00 	lea    rax,[rip+0xc6c0]        # f028 <_IO_stdin_used+0x28>
    2968:	48 89 c7             	mov    rdi,rax
    296b:	e8 50 e7 ff ff       	call   10c0 <puts@plt>
    2970:	bf 01 00 00 00       	mov    edi,0x1
    2975:	e8 b6 e7 ff ff       	call   1130 <exit@plt>
    297a:	be 42 00 00 00       	mov    esi,0x42
    297f:	48 8d 05 93 c6 00 00 	lea    rax,[rip+0xc693]        # f019 <_IO_stdin_used+0x19>
    2986:	48 89 c7             	mov    rdi,rax
    2989:	b8 00 00 00 00       	mov    eax,0x0
    298e:	e8 5d e7 ff ff       	call   10f0 <printf@plt>
    2993:	b8 00 00 00 00       	mov    eax,0x0
    2998:	e8 d3 e8 ff ff       	call   1270 <get_input>
    299d:	89 45 fc             	mov    DWORD PTR [rbp-0x4],eax
    29a0:	81 7d fc 85 00 00 00 	cmp    DWORD PTR [rbp-0x4],0x85
    29a7:	75 05                	jne    29ae <main+0x1697>
    29a9:	e9 e5 17 00 00       	jmp    4193 <main+0x2e7c>
    29ae:	81 7d fc e1 01 00 00 	cmp    DWORD PTR [rbp-0x4],0x1e1
    29b5:	75 05                	jne    29bc <main+0x16a5>
    29b7:	e9 6a 91 00 00       	jmp    bb26 <main+0xa80f>
    29bc:	81 7d fc 7d 01 00 00 	cmp    DWORD PTR [rbp-0x4],0x17d
    29c3:	75 05                	jne    29ca <main+0x16b3>
    29c5:	e9 17 6e 00 00       	jmp    97e1 <main+0x84ca>
    29ca:	48 8d 05 57 c6 00 00 	lea    rax,[rip+0xc657]        # f028 <_IO_stdin_used+0x28>
    29d1:	48 89 c7             	mov    rdi,rax
    29d4:	e8 e7 e6 ff ff       	call   10c0 <puts@plt>
    29d9:	bf 01 00 00 00       	mov    edi,0x1
    29de:	e8 4d e7 ff ff       	call   1130 <exit@plt>
    29e3:	be 43 00 00 00       	mov    esi,0x43
    29e8:	48 8d 05 2a c6 00 00 	lea    rax,[rip+0xc62a]        # f019 <_IO_stdin_used+0x19>
    29ef:	48 89 c7             	mov    rdi,rax
    29f2:	b8 00 00 00 00       	mov    eax,0x0
    29f7:	e8 f4 e6 ff ff       	call   10f0 <printf@plt>
    29fc:	b8 00 00 00 00       	mov    eax,0x0
    2a01:	e8 6a e8 ff ff       	call   1270 <get_input>
    2a06:	89 45 fc             	mov    DWORD PTR [rbp-0x4],eax
    2a09:	81 7d fc 14 01 00 00 	cmp    DWORD PTR [rbp-0x4],0x114
    2a10:	75 05                	jne    2a17 <main+0x1700>
    2a12:	e9 1c 49 00 00       	jmp    7333 <main+0x601c>
    2a17:	81 7d fc e4 01 00 00 	cmp    DWORD PTR [rbp-0x4],0x1e4
    2a1e:	0f 84 1c 92 00 00    	je     bc40 <main+0xa929>
    2a24:	48 8d 05 fd c5 00 00 	lea    rax,[rip+0xc5fd]        # f028 <_IO_stdin_used+0x28>
    2a2b:	48 89 c7             	mov    rdi,rax
    2a2e:	e8 8d e6 ff ff       	call   10c0 <puts@plt>
    2a33:	bf 01 00 00 00       	mov    edi,0x1
    2a38:	e8 f3 e6 ff ff       	call   1130 <exit@plt>
    2a3d:	be 44 00 00 00       	mov    esi,0x44
    2a42:	48 8d 05 d0 c5 00 00 	lea    rax,[rip+0xc5d0]        # f019 <_IO_stdin_used+0x19>
    2a49:	48 89 c7             	mov    rdi,rax
    2a4c:	b8 00 00 00 00       	mov    eax,0x0
    2a51:	e8 9a e6 ff ff       	call   10f0 <printf@plt>
    2a56:	b8 00 00 00 00       	mov    eax,0x0
    2a5b:	e8 10 e8 ff ff       	call   1270 <get_input>
    2a60:	89 45 fc             	mov    DWORD PTR [rbp-0x4],eax
    2a63:	81 7d fc 5e 02 00 00 	cmp    DWORD PTR [rbp-0x4],0x25e
    2a6a:	75 05                	jne    2a71 <main+0x175a>
    2a6c:	e9 f9 bc 00 00       	jmp    e76a <main+0xd453>
    2a71:	83 7d fc 41          	cmp    DWORD PTR [rbp-0x4],0x41
    2a75:	0f 84 b4 fe ff ff    	je     292f <main+0x1618>
    2a7b:	81 7d fc 9b 00 00 00 	cmp    DWORD PTR [rbp-0x4],0x9b
    2a82:	0f 84 d0 1e 00 00    	je     4958 <main+0x3641>
    2a88:	48 8d 05 99 c5 00 00 	lea    rax,[rip+0xc599]        # f028 <_IO_stdin_used+0x28>
    2a8f:	48 89 c7             	mov    rdi,rax
    2a92:	e8 29 e6 ff ff       	call   10c0 <puts@plt>
    2a97:	bf 01 00 00 00       	mov    edi,0x1
    2a9c:	e8 8f e6 ff ff       	call   1130 <exit@plt>
    2aa1:	90                   	nop
    2aa2:	be 45 00 00 00       	mov    esi,0x45
    2aa7:	48 8d 05 6b c5 00 00 	lea    rax,[rip+0xc56b]        # f019 <_IO_stdin_used+0x19>
    2aae:	48 89 c7             	mov    rdi,rax
    2ab1:	b8 00 00 00 00       	mov    eax,0x0
    2ab6:	e8 35 e6 ff ff       	call   10f0 <printf@plt>
    2abb:	b8 00 00 00 00       	mov    eax,0x0
    2ac0:	e8 ab e7 ff ff       	call   1270 <get_input>
    2ac5:	89 45 fc             	mov    DWORD PTR [rbp-0x4],eax
    2ac8:	81 7d fc a2 01 00 00 	cmp    DWORD PTR [rbp-0x4],0x1a2
    2acf:	75 05                	jne    2ad6 <main+0x17bf>
    2ad1:	e9 69 7a 00 00       	jmp    a53f <main+0x9228>
    2ad6:	48 8d 05 4b c5 00 00 	lea    rax,[rip+0xc54b]        # f028 <_IO_stdin_used+0x28>
    2add:	48 89 c7             	mov    rdi,rax
    2ae0:	e8 db e5 ff ff       	call   10c0 <puts@plt>
    2ae5:	bf 01 00 00 00       	mov    edi,0x1
    2aea:	e8 41 e6 ff ff       	call   1130 <exit@plt>
    2aef:	be 46 00 00 00       	mov    esi,0x46
    2af4:	48 8d 05 1e c5 00 00 	lea    rax,[rip+0xc51e]        # f019 <_IO_stdin_used+0x19>
    2afb:	48 89 c7             	mov    rdi,rax
    2afe:	b8 00 00 00 00       	mov    eax,0x0
    2b03:	e8 e8 e5 ff ff       	call   10f0 <printf@plt>
    2b08:	b8 00 00 00 00       	mov    eax,0x0
    2b0d:	e8 5e e7 ff ff       	call   1270 <get_input>
    2b12:	89 45 fc             	mov    DWORD PTR [rbp-0x4],eax
    2b15:	81 7d fc 4a 02 00 00 	cmp    DWORD PTR [rbp-0x4],0x24a
    2b1c:	75 05                	jne    2b23 <main+0x180c>
    2b1e:	e9 f2 b4 00 00       	jmp    e015 <main+0xccfe>
    2b23:	81 7d fc e8 01 00 00 	cmp    DWORD PTR [rbp-0x4],0x1e8
    2b2a:	75 05                	jne    2b31 <main+0x181a>
    2b2c:	e9 5d 92 00 00       	jmp    bd8e <main+0xaa77>
    2b31:	48 8d 05 f0 c4 00 00 	lea    rax,[rip+0xc4f0]        # f028 <_IO_stdin_used+0x28>
    2b38:	48 89 c7             	mov    rdi,rax
    2b3b:	e8 80 e5 ff ff       	call   10c0 <puts@plt>
    2b40:	bf 01 00 00 00       	mov    edi,0x1
    2b45:	e8 e6 e5 ff ff       	call   1130 <exit@plt>
    2b4a:	be 47 00 00 00       	mov    esi,0x47
    2b4f:	48 8d 05 c3 c4 00 00 	lea    rax,[rip+0xc4c3]        # f019 <_IO_stdin_used+0x19>
    2b56:	48 89 c7             	mov    rdi,rax
    2b59:	b8 00 00 00 00       	mov    eax,0x0
    2b5e:	e8 8d e5 ff ff       	call   10f0 <printf@plt>
    2b63:	b8 00 00 00 00       	mov    eax,0x0
    2b68:	e8 03 e7 ff ff       	call   1270 <get_input>
    2b6d:	89 45 fc             	mov    DWORD PTR [rbp-0x4],eax
    2b70:	81 7d fc 97 01 00 00 	cmp    DWORD PTR [rbp-0x4],0x197
    2b77:	75 05                	jne    2b7e <main+0x1867>
    2b79:	e9 d8 75 00 00       	jmp    a156 <main+0x8e3f>
    2b7e:	81 7d fc f7 01 00 00 	cmp    DWORD PTR [rbp-0x4],0x1f7
    2b85:	75 05                	jne    2b8c <main+0x1875>
    2b87:	e9 26 97 00 00       	jmp    c2b2 <main+0xaf9b>
    2b8c:	48 8d 05 95 c4 00 00 	lea    rax,[rip+0xc495]        # f028 <_IO_stdin_used+0x28>
    2b93:	48 89 c7             	mov    rdi,rax
    2b96:	e8 25 e5 ff ff       	call   10c0 <puts@plt>
    2b9b:	bf 01 00 00 00       	mov    edi,0x1
    2ba0:	e8 8b e5 ff ff       	call   1130 <exit@plt>
    2ba5:	be 48 00 00 00       	mov    esi,0x48
    2baa:	48 8d 05 68 c4 00 00 	lea    rax,[rip+0xc468]        # f019 <_IO_stdin_used+0x19>
    2bb1:	48 89 c7             	mov    rdi,rax
    2bb4:	b8 00 00 00 00       	mov    eax,0x0
    2bb9:	e8 32 e5 ff ff       	call   10f0 <printf@plt>
    2bbe:	b8 00 00 00 00       	mov    eax,0x0
    2bc3:	e8 a8 e6 ff ff       	call   1270 <get_input>
    2bc8:	89 45 fc             	mov    DWORD PTR [rbp-0x4],eax
    2bcb:	81 7d fc 2f 02 00 00 	cmp    DWORD PTR [rbp-0x4],0x22f
    2bd2:	75 05                	jne    2bd9 <main+0x18c2>
    2bd4:	e9 55 aa 00 00       	jmp    d62e <main+0xc317>
    2bd9:	81 7d fc 38 01 00 00 	cmp    DWORD PTR [rbp-0x4],0x138
    2be0:	75 05                	jne    2be7 <main+0x18d0>
    2be2:	e9 ef 53 00 00       	jmp    7fd6 <main+0x6cbf>
    2be7:	48 8d 05 3a c4 00 00 	lea    rax,[rip+0xc43a]        # f028 <_IO_stdin_used+0x28>
    2bee:	48 89 c7             	mov    rdi,rax
    2bf1:	e8 ca e4 ff ff       	call   10c0 <puts@plt>
    2bf6:	bf 01 00 00 00       	mov    edi,0x1
    2bfb:	e8 30 e5 ff ff       	call   1130 <exit@plt>
    2c00:	be 49 00 00 00       	mov    esi,0x49
    2c05:	48 8d 05 0d c4 00 00 	lea    rax,[rip+0xc40d]        # f019 <_IO_stdin_used+0x19>
    2c0c:	48 89 c7             	mov    rdi,rax
    2c0f:	b8 00 00 00 00       	mov    eax,0x0
    2c14:	e8 d7 e4 ff ff       	call   10f0 <printf@plt>
    2c19:	b8 00 00 00 00       	mov    eax,0x0
    2c1e:	e8 4d e6 ff ff       	call   1270 <get_input>
    2c23:	89 45 fc             	mov    DWORD PTR [rbp-0x4],eax
    2c26:	81 7d fc ea 00 00 00 	cmp    DWORD PTR [rbp-0x4],0xea
    2c2d:	75 05                	jne    2c34 <main+0x191d>
    2c2f:	e9 5e 38 00 00       	jmp    6492 <main+0x517b>
    2c34:	81 7d fc 02 02 00 00 	cmp    DWORD PTR [rbp-0x4],0x202
    2c3b:	75 05                	jne    2c42 <main+0x192b>
    2c3d:	e9 2a 9a 00 00       	jmp    c66c <main+0xb355>
    2c42:	81 7d fc 83 01 00 00 	cmp    DWORD PTR [rbp-0x4],0x183
    2c49:	75 05                	jne    2c50 <main+0x1939>
    2c4b:	e9 d3 6d 00 00       	jmp    9a23 <main+0x870c>
    2c50:	48 8d 05 d1 c3 00 00 	lea    rax,[rip+0xc3d1]        # f028 <_IO_stdin_used+0x28>
    2c57:	48 89 c7             	mov    rdi,rax
    2c5a:	e8 61 e4 ff ff       	call   10c0 <puts@plt>
    2c5f:	bf 01 00 00 00       	mov    edi,0x1
    2c64:	e8 c7 e4 ff ff       	call   1130 <exit@plt>
    2c69:	be 4a 00 00 00       	mov    esi,0x4a
    2c6e:	48 8d 05 a4 c3 00 00 	lea    rax,[rip+0xc3a4]        # f019 <_IO_stdin_used+0x19>
    2c75:	48 89 c7             	mov    rdi,rax
    2c78:	b8 00 00 00 00       	mov    eax,0x0
    2c7d:	e8 6e e4 ff ff       	call   10f0 <printf@plt>
    2c82:	b8 00 00 00 00       	mov    eax,0x0
    2c87:	e8 e4 e5 ff ff       	call   1270 <get_input>
    2c8c:	89 45 fc             	mov    DWORD PTR [rbp-0x4],eax
    2c8f:	81 7d fc 6d 01 00 00 	cmp    DWORD PTR [rbp-0x4],0x16d
    2c96:	75 05                	jne    2c9d <main+0x1986>
    2c98:	e9 a5 65 00 00       	jmp    9242 <main+0x7f2b>
    2c9d:	81 7d fc fd 00 00 00 	cmp    DWORD PTR [rbp-0x4],0xfd
    2ca4:	75 05                	jne    2cab <main+0x1994>
    2ca6:	e9 b2 3e 00 00       	jmp    6b5d <main+0x5846>
    2cab:	48 8d 05 76 c3 00 00 	lea    rax,[rip+0xc376]        # f028 <_IO_stdin_used+0x28>
    2cb2:	48 89 c7             	mov    rdi,rax
    2cb5:	e8 06 e4 ff ff       	call   10c0 <puts@plt>
    2cba:	bf 01 00 00 00       	mov    edi,0x1
    2cbf:	e8 6c e4 ff ff       	call   1130 <exit@plt>
    2cc4:	be 4b 00 00 00       	mov    esi,0x4b
    2cc9:	48 8d 05 49 c3 00 00 	lea    rax,[rip+0xc349]        # f019 <_IO_stdin_used+0x19>
    2cd0:	48 89 c7             	mov    rdi,rax
    2cd3:	b8 00 00 00 00       	mov    eax,0x0
    2cd8:	e8 13 e4 ff ff       	call   10f0 <printf@plt>
    2cdd:	b8 00 00 00 00       	mov    eax,0x0
    2ce2:	e8 89 e5 ff ff       	call   1270 <get_input>
    2ce7:	89 45 fc             	mov    DWORD PTR [rbp-0x4],eax
    2cea:	83 7d fc 15          	cmp    DWORD PTR [rbp-0x4],0x15
    2cee:	75 05                	jne    2cf5 <main+0x19de>
    2cf0:	e9 6c ed ff ff       	jmp    1a61 <main+0x74a>
    2cf5:	83 7d fc 3d          	cmp    DWORD PTR [rbp-0x4],0x3d
    2cf9:	75 05                	jne    2d00 <main+0x19e9>
    2cfb:	e9 c7 fa ff ff       	jmp    27c7 <main+0x14b0>
    2d00:	48 8d 05 21 c3 00 00 	lea    rax,[rip+0xc321]        # f028 <_IO_stdin_used+0x28>
    2d07:	48 89 c7             	mov    rdi,rax
    2d0a:	e8 b1 e3 ff ff       	call   10c0 <puts@plt>
    2d0f:	bf 01 00 00 00       	mov    edi,0x1
    2d14:	e8 17 e4 ff ff       	call   1130 <exit@plt>
    2d19:	be 4c 00 00 00       	mov    esi,0x4c
    2d1e:	48 8d 05 f4 c2 00 00 	lea    rax,[rip+0xc2f4]        # f019 <_IO_stdin_used+0x19>
    2d25:	48 89 c7             	mov    rdi,rax
    2d28:	b8 00 00 00 00       	mov    eax,0x0
    2d2d:	e8 be e3 ff ff       	call   10f0 <printf@plt>
    2d32:	b8 00 00 00 00       	mov    eax,0x0
    2d37:	e8 34 e5 ff ff       	call   1270 <get_input>
    2d3c:	89 45 fc             	mov    DWORD PTR [rbp-0x4],eax
    2d3f:	81 7d fc d1 01 00 00 	cmp    DWORD PTR [rbp-0x4],0x1d1
    2d46:	75 05                	jne    2d4d <main+0x1a36>
    2d48:	e9 44 88 00 00       	jmp    b591 <main+0xa27a>
    2d4d:	81 7d fc 1c 01 00 00 	cmp    DWORD PTR [rbp-0x4],0x11c
    2d54:	75 05                	jne    2d5b <main+0x1a44>
    2d56:	e9 b1 48 00 00       	jmp    760c <main+0x62f5>
    2d5b:	83 7d fc 17          	cmp    DWORD PTR [rbp-0x4],0x17
    2d5f:	75 05                	jne    2d66 <main+0x1a4f>
    2d61:	e9 a8 ed ff ff       	jmp    1b0e <main+0x7f7>
    2d66:	48 8d 05 bb c2 00 00 	lea    rax,[rip+0xc2bb]        # f028 <_IO_stdin_used+0x28>
    2d6d:	48 89 c7             	mov    rdi,rax
    2d70:	e8 4b e3 ff ff       	call   10c0 <puts@plt>
    2d75:	bf 01 00 00 00       	mov    edi,0x1
    2d7a:	e8 b1 e3 ff ff       	call   1130 <exit@plt>
    2d7f:	be 4d 00 00 00       	mov    esi,0x4d
    2d84:	48 8d 05 8e c2 00 00 	lea    rax,[rip+0xc28e]        # f019 <_IO_stdin_used+0x19>
    2d8b:	48 89 c7             	mov    rdi,rax
    2d8e:	b8 00 00 00 00       	mov    eax,0x0
    2d93:	e8 58 e3 ff ff       	call   10f0 <printf@plt>
    2d98:	b8 00 00 00 00       	mov    eax,0x0
    2d9d:	e8 ce e4 ff ff       	call   1270 <get_input>
    2da2:	89 45 fc             	mov    DWORD PTR [rbp-0x4],eax
    2da5:	83 7d fc 6a          	cmp    DWORD PTR [rbp-0x4],0x6a
    2da9:	75 05                	jne    2db0 <main+0x1a99>
    2dab:	e9 2b 0a 00 00       	jmp    37db <main+0x24c4>
    2db0:	81 7d fc a6 00 00 00 	cmp    DWORD PTR [rbp-0x4],0xa6
    2db7:	0f 84 41 1f 00 00    	je     4cfe <main+0x39e7>
    2dbd:	81 7d fc 11 01 00 00 	cmp    DWORD PTR [rbp-0x4],0x111
    2dc4:	75 05                	jne    2dcb <main+0x1ab4>
    2dc6:	e9 60 44 00 00       	jmp    722b <main+0x5f14>
    2dcb:	81 7d fc 81 00 00 00 	cmp    DWORD PTR [rbp-0x4],0x81
    2dd2:	75 05                	jne    2dd9 <main+0x1ac2>
    2dd4:	e9 48 12 00 00       	jmp    4021 <main+0x2d0a>
    2dd9:	48 8d 05 48 c2 00 00 	lea    rax,[rip+0xc248]        # f028 <_IO_stdin_used+0x28>
    2de0:	48 89 c7             	mov    rdi,rax
    2de3:	e8 d8 e2 ff ff       	call   10c0 <puts@plt>
    2de8:	bf 01 00 00 00       	mov    edi,0x1
    2ded:	e8 3e e3 ff ff       	call   1130 <exit@plt>
    2df2:	be 4e 00 00 00       	mov    esi,0x4e
    2df7:	48 8d 05 1b c2 00 00 	lea    rax,[rip+0xc21b]        # f019 <_IO_stdin_used+0x19>
    2dfe:	48 89 c7             	mov    rdi,rax
    2e01:	b8 00 00 00 00       	mov    eax,0x0
    2e06:	e8 e5 e2 ff ff       	call   10f0 <printf@plt>
    2e0b:	b8 00 00 00 00       	mov    eax,0x0
    2e10:	e8 5b e4 ff ff       	call   1270 <get_input>
    2e15:	89 45 fc             	mov    DWORD PTR [rbp-0x4],eax
    2e18:	81 7d fc 1d 01 00 00 	cmp    DWORD PTR [rbp-0x4],0x11d
    2e1f:	75 05                	jne    2e26 <main+0x1b0f>
    2e21:	e9 4b 48 00 00       	jmp    7671 <main+0x635a>
    2e26:	81 7d fc 97 01 00 00 	cmp    DWORD PTR [rbp-0x4],0x197
    2e2d:	75 05                	jne    2e34 <main+0x1b1d>
    2e2f:	e9 22 73 00 00       	jmp    a156 <main+0x8e3f>
    2e34:	81 7d fc 90 01 00 00 	cmp    DWORD PTR [rbp-0x4],0x190
    2e3b:	0f 84 a3 70 00 00    	je     9ee4 <main+0x8bcd>
    2e41:	48 8d 05 e0 c1 00 00 	lea    rax,[rip+0xc1e0]        # f028 <_IO_stdin_used+0x28>
    2e48:	48 89 c7             	mov    rdi,rax
    2e4b:	e8 70 e2 ff ff       	call   10c0 <puts@plt>
    2e50:	bf 01 00 00 00       	mov    edi,0x1
    2e55:	e8 d6 e2 ff ff       	call   1130 <exit@plt>
    2e5a:	90                   	nop
    2e5b:	be 4f 00 00 00       	mov    esi,0x4f
    2e60:	48 8d 05 b2 c1 00 00 	lea    rax,[rip+0xc1b2]        # f019 <_IO_stdin_used+0x19>
    2e67:	48 89 c7             	mov    rdi,rax
    2e6a:	b8 00 00 00 00       	mov    eax,0x0
    2e6f:	e8 7c e2 ff ff       	call   10f0 <printf@plt>
    2e74:	b8 00 00 00 00       	mov    eax,0x0
    2e79:	e8 f2 e3 ff ff       	call   1270 <get_input>
    2e7e:	89 45 fc             	mov    DWORD PTR [rbp-0x4],eax
    2e81:	83 7d fc 7a          	cmp    DWORD PTR [rbp-0x4],0x7a
    2e85:	75 05                	jne    2e8c <main+0x1b75>
    2e87:	e9 21 0f 00 00       	jmp    3dad <main+0x2a96>
    2e8c:	48 8d 05 95 c1 00 00 	lea    rax,[rip+0xc195]        # f028 <_IO_stdin_used+0x28>
    2e93:	48 89 c7             	mov    rdi,rax
    2e96:	e8 25 e2 ff ff       	call   10c0 <puts@plt>
    2e9b:	bf 01 00 00 00       	mov    edi,0x1
    2ea0:	e8 8b e2 ff ff       	call   1130 <exit@plt>
    2ea5:	be 50 00 00 00       	mov    esi,0x50
    2eaa:	48 8d 05 68 c1 00 00 	lea    rax,[rip+0xc168]        # f019 <_IO_stdin_used+0x19>
    2eb1:	48 89 c7             	mov    rdi,rax
    2eb4:	b8 00 00 00 00       	mov    eax,0x0
    2eb9:	e8 32 e2 ff ff       	call   10f0 <printf@plt>
    2ebe:	b8 00 00 00 00       	mov    eax,0x0
    2ec3:	e8 a8 e3 ff ff       	call   1270 <get_input>
    2ec8:	89 45 fc             	mov    DWORD PTR [rbp-0x4],eax
    2ecb:	81 7d fc 4b 02 00 00 	cmp    DWORD PTR [rbp-0x4],0x24b
    2ed2:	75 05                	jne    2ed9 <main+0x1bc2>
    2ed4:	e9 94 b1 00 00       	jmp    e06d <main+0xcd56>
    2ed9:	81 7d fc df 01 00 00 	cmp    DWORD PTR [rbp-0x4],0x1df
    2ee0:	0f 84 9b 8b 00 00    	je     ba81 <main+0xa76a>
    2ee6:	81 7d fc 1c 02 00 00 	cmp    DWORD PTR [rbp-0x4],0x21c
    2eed:	75 05                	jne    2ef4 <main+0x1bdd>
    2eef:	e9 5c a0 00 00       	jmp    cf50 <main+0xbc39>
    2ef4:	48 8d 05 2d c1 00 00 	lea    rax,[rip+0xc12d]        # f028 <_IO_stdin_used+0x28>
    2efb:	48 89 c7             	mov    rdi,rax
    2efe:	e8 bd e1 ff ff       	call   10c0 <puts@plt>
    2f03:	bf 01 00 00 00       	mov    edi,0x1
    2f08:	e8 23 e2 ff ff       	call   1130 <exit@plt>
    2f0d:	90                   	nop
    2f0e:	be 51 00 00 00       	mov    esi,0x51
    2f13:	48 8d 05 ff c0 00 00 	lea    rax,[rip+0xc0ff]        # f019 <_IO_stdin_used+0x19>
    2f1a:	48 89 c7             	mov    rdi,rax
    2f1d:	b8 00 00 00 00       	mov    eax,0x0
    2f22:	e8 c9 e1 ff ff       	call   10f0 <printf@plt>
    2f27:	b8 00 00 00 00       	mov    eax,0x0
    2f2c:	e8 3f e3 ff ff       	call   1270 <get_input>
    2f31:	89 45 fc             	mov    DWORD PTR [rbp-0x4],eax
    2f34:	81 7d fc 95 01 00 00 	cmp    DWORD PTR [rbp-0x4],0x195
    2f3b:	75 05                	jne    2f42 <main+0x1c2b>
    2f3d:	e9 54 71 00 00       	jmp    a096 <main+0x8d7f>
    2f42:	48 8d 05 df c0 00 00 	lea    rax,[rip+0xc0df]        # f028 <_IO_stdin_used+0x28>
    2f49:	48 89 c7             	mov    rdi,rax
    2f4c:	e8 6f e1 ff ff       	call   10c0 <puts@plt>
    2f51:	bf 01 00 00 00       	mov    edi,0x1
    2f56:	e8 d5 e1 ff ff       	call   1130 <exit@plt>
    2f5b:	be 52 00 00 00       	mov    esi,0x52
    2f60:	48 8d 05 b2 c0 00 00 	lea    rax,[rip+0xc0b2]        # f019 <_IO_stdin_used+0x19>
    2f67:	48 89 c7             	mov    rdi,rax
    2f6a:	b8 00 00 00 00       	mov    eax,0x0
    2f6f:	e8 7c e1 ff ff       	call   10f0 <printf@plt>
    2f74:	b8 00 00 00 00       	mov    eax,0x0
    2f79:	e8 f2 e2 ff ff       	call   1270 <get_input>
    2f7e:	89 45 fc             	mov    DWORD PTR [rbp-0x4],eax
    2f81:	81 7d fc 51 01 00 00 	cmp    DWORD PTR [rbp-0x4],0x151
    2f88:	75 05                	jne    2f8f <main+0x1c78>
    2f8a:	e9 2f 59 00 00       	jmp    88be <main+0x75a7>
    2f8f:	81 7d fc 13 02 00 00 	cmp    DWORD PTR [rbp-0x4],0x213
    2f96:	75 05                	jne    2f9d <main+0x1c86>
    2f98:	e9 aa 9c 00 00       	jmp    cc47 <main+0xb930>
    2f9d:	48 8d 05 84 c0 00 00 	lea    rax,[rip+0xc084]        # f028 <_IO_stdin_used+0x28>
    2fa4:	48 89 c7             	mov    rdi,rax
    2fa7:	e8 14 e1 ff ff       	call   10c0 <puts@plt>
    2fac:	bf 01 00 00 00       	mov    edi,0x1
    2fb1:	e8 7a e1 ff ff       	call   1130 <exit@plt>
    2fb6:	be 53 00 00 00       	mov    esi,0x53
    2fbb:	48 8d 05 57 c0 00 00 	lea    rax,[rip+0xc057]        # f019 <_IO_stdin_used+0x19>
    2fc2:	48 89 c7             	mov    rdi,rax
    2fc5:	b8 00 00 00 00       	mov    eax,0x0
    2fca:	e8 21 e1 ff ff       	call   10f0 <printf@plt>
    2fcf:	b8 00 00 00 00       	mov    eax,0x0
    2fd4:	e8 97 e2 ff ff       	call   1270 <get_input>
    2fd9:	89 45 fc             	mov    DWORD PTR [rbp-0x4],eax
    2fdc:	81 7d fc 9a 00 00 00 	cmp    DWORD PTR [rbp-0x4],0x9a
    2fe3:	75 05                	jne    2fea <main+0x1cd3>
    2fe5:	e9 08 19 00 00       	jmp    48f2 <main+0x35db>
    2fea:	83 7d fc 2b          	cmp    DWORD PTR [rbp-0x4],0x2b
    2fee:	0f 84 0b f2 ff ff    	je     21ff <main+0xee8>
    2ff4:	83 7d fc 79          	cmp    DWORD PTR [rbp-0x4],0x79
    2ff8:	75 05                	jne    2fff <main+0x1ce8>
    2ffa:	e9 4c 0d 00 00       	jmp    3d4b <main+0x2a34>
    2fff:	48 8d 05 22 c0 00 00 	lea    rax,[rip+0xc022]        # f028 <_IO_stdin_used+0x28>
    3006:	48 89 c7             	mov    rdi,rax
    3009:	e8 b2 e0 ff ff       	call   10c0 <puts@plt>
    300e:	bf 01 00 00 00       	mov    edi,0x1
    3013:	e8 18 e1 ff ff       	call   1130 <exit@plt>
    3018:	90                   	nop
    3019:	be 54 00 00 00       	mov    esi,0x54
    301e:	48 8d 05 f4 bf 00 00 	lea    rax,[rip+0xbff4]        # f019 <_IO_stdin_used+0x19>
    3025:	48 89 c7             	mov    rdi,rax
    3028:	b8 00 00 00 00       	mov    eax,0x0
    302d:	e8 be e0 ff ff       	call   10f0 <printf@plt>
    3032:	b8 00 00 00 00       	mov    eax,0x0
    3037:	e8 34 e2 ff ff       	call   1270 <get_input>
    303c:	89 45 fc             	mov    DWORD PTR [rbp-0x4],eax
    303f:	81 7d fc 12 01 00 00 	cmp    DWORD PTR [rbp-0x4],0x112
    3046:	75 05                	jne    304d <main+0x1d36>
    3048:	e9 36 42 00 00       	jmp    7283 <main+0x5f6c>
    304d:	48 8d 05 d4 bf 00 00 	lea    rax,[rip+0xbfd4]        # f028 <_IO_stdin_used+0x28>
    3054:	48 89 c7             	mov    rdi,rax
    3057:	e8 64 e0 ff ff       	call   10c0 <puts@plt>
    305c:	bf 01 00 00 00       	mov    edi,0x1
    3061:	e8 ca e0 ff ff       	call   1130 <exit@plt>
    3066:	be 55 00 00 00       	mov    esi,0x55
    306b:	48 8d 05 a7 bf 00 00 	lea    rax,[rip+0xbfa7]        # f019 <_IO_stdin_used+0x19>
    3072:	48 89 c7             	mov    rdi,rax
    3075:	b8 00 00 00 00       	mov    eax,0x0
    307a:	e8 71 e0 ff ff       	call   10f0 <printf@plt>
    307f:	b8 00 00 00 00       	mov    eax,0x0
    3084:	e8 e7 e1 ff ff       	call   1270 <get_input>
    3089:	89 45 fc             	mov    DWORD PTR [rbp-0x4],eax
    308c:	81 7d fc 04 02 00 00 	cmp    DWORD PTR [rbp-0x4],0x204
    3093:	0f 84 78 96 00 00    	je     c711 <main+0xb3fa>
    3099:	81 7d fc 41 01 00 00 	cmp    DWORD PTR [rbp-0x4],0x141
    30a0:	75 05                	jne    30a7 <main+0x1d90>
    30a2:	e9 61 52 00 00       	jmp    8308 <main+0x6ff1>
    30a7:	81 7d fc a3 00 00 00 	cmp    DWORD PTR [rbp-0x4],0xa3
    30ae:	75 05                	jne    30b5 <main+0x1d9e>
    30b0:	e9 4b 1b 00 00       	jmp    4c00 <main+0x38e9>
    30b5:	48 8d 05 6c bf 00 00 	lea    rax,[rip+0xbf6c]        # f028 <_IO_stdin_used+0x28>
    30bc:	48 89 c7             	mov    rdi,rax
    30bf:	e8 fc df ff ff       	call   10c0 <puts@plt>
    30c4:	bf 01 00 00 00       	mov    edi,0x1
    30c9:	e8 62 e0 ff ff       	call   1130 <exit@plt>
    30ce:	be 56 00 00 00       	mov    esi,0x56
    30d3:	48 8d 05 3f bf 00 00 	lea    rax,[rip+0xbf3f]        # f019 <_IO_stdin_used+0x19>
    30da:	48 89 c7             	mov    rdi,rax
    30dd:	b8 00 00 00 00       	mov    eax,0x0
    30e2:	e8 09 e0 ff ff       	call   10f0 <printf@plt>
    30e7:	b8 00 00 00 00       	mov    eax,0x0
    30ec:	e8 7f e1 ff ff       	call   1270 <get_input>
    30f1:	89 45 fc             	mov    DWORD PTR [rbp-0x4],eax
    30f4:	81 7d fc 6e 02 00 00 	cmp    DWORD PTR [rbp-0x4],0x26e
    30fb:	75 05                	jne    3102 <main+0x1deb>
    30fd:	e9 36 bc 00 00       	jmp    ed38 <main+0xda21>
    3102:	81 7d fc e6 00 00 00 	cmp    DWORD PTR [rbp-0x4],0xe6
    3109:	75 05                	jne    3110 <main+0x1df9>
    310b:	e9 29 32 00 00       	jmp    6339 <main+0x5022>
    3110:	81 7d fc 58 02 00 00 	cmp    DWORD PTR [rbp-0x4],0x258
    3117:	75 05                	jne    311e <main+0x1e07>
    3119:	e9 2e b4 00 00       	jmp    e54c <main+0xd235>
    311e:	48 8d 05 03 bf 00 00 	lea    rax,[rip+0xbf03]        # f028 <_IO_stdin_used+0x28>
    3125:	48 89 c7             	mov    rdi,rax
    3128:	e8 93 df ff ff       	call   10c0 <puts@plt>
    312d:	bf 01 00 00 00       	mov    edi,0x1
    3132:	e8 f9 df ff ff       	call   1130 <exit@plt>
    3137:	be 57 00 00 00       	mov    esi,0x57
    313c:	48 8d 05 d6 be 00 00 	lea    rax,[rip+0xbed6]        # f019 <_IO_stdin_used+0x19>
    3143:	48 89 c7             	mov    rdi,rax
    3146:	b8 00 00 00 00       	mov    eax,0x0
    314b:	e8 a0 df ff ff       	call   10f0 <printf@plt>
    3150:	b8 00 00 00 00       	mov    eax,0x0
    3155:	e8 16 e1 ff ff       	call   1270 <get_input>
    315a:	89 45 fc             	mov    DWORD PTR [rbp-0x4],eax
    315d:	81 7d fc 56 01 00 00 	cmp    DWORD PTR [rbp-0x4],0x156
    3164:	75 05                	jne    316b <main+0x1e54>
    3166:	e9 1d 59 00 00       	jmp    8a88 <main+0x7771>
    316b:	81 7d fc ca 00 00 00 	cmp    DWORD PTR [rbp-0x4],0xca
    3172:	75 05                	jne    3179 <main+0x1e62>
    3174:	e9 1a 28 00 00       	jmp    5993 <main+0x467c>
    3179:	48 8d 05 a8 be 00 00 	lea    rax,[rip+0xbea8]        # f028 <_IO_stdin_used+0x28>
    3180:	48 89 c7             	mov    rdi,rax
    3183:	e8 38 df ff ff       	call   10c0 <puts@plt>
    3188:	bf 01 00 00 00       	mov    edi,0x1
    318d:	e8 9e df ff ff       	call   1130 <exit@plt>
    3192:	90                   	nop
    3193:	be 58 00 00 00       	mov    esi,0x58
    3198:	48 8d 05 7a be 00 00 	lea    rax,[rip+0xbe7a]        # f019 <_IO_stdin_used+0x19>
    319f:	48 89 c7             	mov    rdi,rax
    31a2:	b8 00 00 00 00       	mov    eax,0x0
    31a7:	e8 44 df ff ff       	call   10f0 <printf@plt>
    31ac:	b8 00 00 00 00       	mov    eax,0x0
    31b1:	e8 ba e0 ff ff       	call   1270 <get_input>
    31b6:	89 45 fc             	mov    DWORD PTR [rbp-0x4],eax
    31b9:	83 7d fc 00          	cmp    DWORD PTR [rbp-0x4],0x0
    31bd:	75 05                	jne    31c4 <main+0x1ead>
    31bf:	e9 5f e1 ff ff       	jmp    1323 <main+0xc>
    31c4:	48 8d 05 5d be 00 00 	lea    rax,[rip+0xbe5d]        # f028 <_IO_stdin_used+0x28>
    31cb:	48 89 c7             	mov    rdi,rax
    31ce:	e8 ed de ff ff       	call   10c0 <puts@plt>
    31d3:	bf 01 00 00 00       	mov    edi,0x1
    31d8:	e8 53 df ff ff       	call   1130 <exit@plt>
    31dd:	be 59 00 00 00       	mov    esi,0x59
    31e2:	48 8d 05 30 be 00 00 	lea    rax,[rip+0xbe30]        # f019 <_IO_stdin_used+0x19>
    31e9:	48 89 c7             	mov    rdi,rax
    31ec:	b8 00 00 00 00       	mov    eax,0x0
    31f1:	e8 fa de ff ff       	call   10f0 <printf@plt>
    31f6:	b8 00 00 00 00       	mov    eax,0x0
    31fb:	e8 70 e0 ff ff       	call   1270 <get_input>
    3200:	89 45 fc             	mov    DWORD PTR [rbp-0x4],eax
    3203:	81 7d fc a7 01 00 00 	cmp    DWORD PTR [rbp-0x4],0x1a7
    320a:	75 05                	jne    3211 <main+0x1efa>
    320c:	e9 17 75 00 00       	jmp    a728 <main+0x9411>
    3211:	81 7d fc cb 00 00 00 	cmp    DWORD PTR [rbp-0x4],0xcb
    3218:	0f 84 d8 27 00 00    	je     59f6 <main+0x46df>
    321e:	48 8d 05 03 be 00 00 	lea    rax,[rip+0xbe03]        # f028 <_IO_stdin_used+0x28>
    3225:	48 89 c7             	mov    rdi,rax
    3228:	e8 93 de ff ff       	call   10c0 <puts@plt>
    322d:	bf 01 00 00 00       	mov    edi,0x1
    3232:	e8 f9 de ff ff       	call   1130 <exit@plt>
    3237:	be 5a 00 00 00       	mov    esi,0x5a
    323c:	48 8d 05 d6 bd 00 00 	lea    rax,[rip+0xbdd6]        # f019 <_IO_stdin_used+0x19>
    3243:	48 89 c7             	mov    rdi,rax
    3246:	b8 00 00 00 00       	mov    eax,0x0
    324b:	e8 a0 de ff ff       	call   10f0 <printf@plt>
    3250:	b8 00 00 00 00       	mov    eax,0x0
    3255:	e8 16 e0 ff ff       	call   1270 <get_input>
    325a:	89 45 fc             	mov    DWORD PTR [rbp-0x4],eax
    325d:	81 7d fc c2 01 00 00 	cmp    DWORD PTR [rbp-0x4],0x1c2
    3264:	75 05                	jne    326b <main+0x1f54>
    3266:	e9 00 7e 00 00       	jmp    b06b <main+0x9d54>
    326b:	81 7d fc 91 01 00 00 	cmp    DWORD PTR [rbp-0x4],0x191
    3272:	75 05                	jne    3279 <main+0x1f62>
    3274:	e9 b6 6c 00 00       	jmp    9f2f <main+0x8c18>
    3279:	48 8d 05 a8 bd 00 00 	lea    rax,[rip+0xbda8]        # f028 <_IO_stdin_used+0x28>
    3280:	48 89 c7             	mov    rdi,rax
    3283:	e8 38 de ff ff       	call   10c0 <puts@plt>
    3288:	bf 01 00 00 00       	mov    edi,0x1
    328d:	e8 9e de ff ff       	call   1130 <exit@plt>
    3292:	be 5b 00 00 00       	mov    esi,0x5b
    3297:	48 8d 05 7b bd 00 00 	lea    rax,[rip+0xbd7b]        # f019 <_IO_stdin_used+0x19>
    329e:	48 89 c7             	mov    rdi,rax
    32a1:	b8 00 00 00 00       	mov    eax,0x0
    32a6:	e8 45 de ff ff       	call   10f0 <printf@plt>
    32ab:	b8 00 00 00 00       	mov    eax,0x0
    32b0:	e8 bb df ff ff       	call   1270 <get_input>
    32b5:	89 45 fc             	mov    DWORD PTR [rbp-0x4],eax
    32b8:	81 7d fc db 00 00 00 	cmp    DWORD PTR [rbp-0x4],0xdb
    32bf:	75 05                	jne    32c6 <main+0x1faf>
    32c1:	e9 a1 2c 00 00       	jmp    5f67 <main+0x4c50>
    32c6:	81 7d fc 47 02 00 00 	cmp    DWORD PTR [rbp-0x4],0x247
    32cd:	75 05                	jne    32d4 <main+0x1fbd>
    32cf:	e9 35 ac 00 00       	jmp    df09 <main+0xcbf2>
    32d4:	48 8d 05 4d bd 00 00 	lea    rax,[rip+0xbd4d]        # f028 <_IO_stdin_used+0x28>
    32db:	48 89 c7             	mov    rdi,rax
    32de:	e8 dd dd ff ff       	call   10c0 <puts@plt>
    32e3:	bf 01 00 00 00       	mov    edi,0x1
    32e8:	e8 43 de ff ff       	call   1130 <exit@plt>
    32ed:	90                   	nop
    32ee:	be 5c 00 00 00       	mov    esi,0x5c
    32f3:	48 8d 05 1f bd 00 00 	lea    rax,[rip+0xbd1f]        # f019 <_IO_stdin_used+0x19>
    32fa:	48 89 c7             	mov    rdi,rax
    32fd:	b8 00 00 00 00       	mov    eax,0x0
    3302:	e8 e9 dd ff ff       	call   10f0 <printf@plt>
    3307:	b8 00 00 00 00       	mov    eax,0x0
    330c:	e8 5f df ff ff       	call   1270 <get_input>
    3311:	89 45 fc             	mov    DWORD PTR [rbp-0x4],eax
    3314:	81 7d fc fe 00 00 00 	cmp    DWORD PTR [rbp-0x4],0xfe
    331b:	75 05                	jne    3322 <main+0x200b>
    331d:	e9 93 38 00 00       	jmp    6bb5 <main+0x589e>
    3322:	48 8d 05 ff bc 00 00 	lea    rax,[rip+0xbcff]        # f028 <_IO_stdin_used+0x28>
    3329:	48 89 c7             	mov    rdi,rax
    332c:	e8 8f dd ff ff       	call   10c0 <puts@plt>
    3331:	bf 01 00 00 00       	mov    edi,0x1
    3336:	e8 f5 dd ff ff       	call   1130 <exit@plt>
    333b:	be 5d 00 00 00       	mov    esi,0x5d
    3340:	48 8d 05 d2 bc 00 00 	lea    rax,[rip+0xbcd2]        # f019 <_IO_stdin_used+0x19>
    3347:	48 89 c7             	mov    rdi,rax
    334a:	b8 00 00 00 00       	mov    eax,0x0
    334f:	e8 9c dd ff ff       	call   10f0 <printf@plt>
    3354:	b8 00 00 00 00       	mov    eax,0x0
    3359:	e8 12 df ff ff       	call   1270 <get_input>
    335e:	89 45 fc             	mov    DWORD PTR [rbp-0x4],eax
    3361:	81 7d fc 2c 02 00 00 	cmp    DWORD PTR [rbp-0x4],0x22c
    3368:	75 05                	jne    336f <main+0x2058>
    336a:	e9 a9 a1 00 00       	jmp    d518 <main+0xc201>
    336f:	81 7d fc 3e 01 00 00 	cmp    DWORD PTR [rbp-0x4],0x13e
    3376:	75 05                	jne    337d <main+0x2066>
    3378:	e9 76 4e 00 00       	jmp    81f3 <main+0x6edc>
    337d:	81 7d fc c1 00 00 00 	cmp    DWORD PTR [rbp-0x4],0xc1
    3384:	0f 84 11 23 00 00    	je     569b <main+0x4384>
    338a:	48 8d 05 97 bc 00 00 	lea    rax,[rip+0xbc97]        # f028 <_IO_stdin_used+0x28>
    3391:	48 89 c7             	mov    rdi,rax
    3394:	e8 27 dd ff ff       	call   10c0 <puts@plt>
    3399:	bf 01 00 00 00       	mov    edi,0x1
    339e:	e8 8d dd ff ff       	call   1130 <exit@plt>
    33a3:	be 5e 00 00 00       	mov    esi,0x5e
    33a8:	48 8d 05 6a bc 00 00 	lea    rax,[rip+0xbc6a]        # f019 <_IO_stdin_used+0x19>
    33af:	48 89 c7             	mov    rdi,rax
    33b2:	b8 00 00 00 00       	mov    eax,0x0
    33b7:	e8 34 dd ff ff       	call   10f0 <printf@plt>
    33bc:	b8 00 00 00 00       	mov    eax,0x0
    33c1:	e8 aa de ff ff       	call   1270 <get_input>
    33c6:	89 45 fc             	mov    DWORD PTR [rbp-0x4],eax
    33c9:	81 7d fc 38 02 00 00 	cmp    DWORD PTR [rbp-0x4],0x238
    33d0:	75 05                	jne    33d7 <main+0x20c0>
    33d2:	e9 bb a5 00 00       	jmp    d992 <main+0xc67b>
    33d7:	83 7d fc 63          	cmp    DWORD PTR [rbp-0x4],0x63
    33db:	75 05                	jne    33e2 <main+0x20cb>
    33dd:	e9 7a 01 00 00       	jmp    355c <main+0x2245>
    33e2:	83 7d fc 31          	cmp    DWORD PTR [rbp-0x4],0x31
    33e6:	0f 84 f9 ef ff ff    	je     23e5 <main+0x10ce>
    33ec:	48 8d 05 35 bc 00 00 	lea    rax,[rip+0xbc35]        # f028 <_IO_stdin_used+0x28>
    33f3:	48 89 c7             	mov    rdi,rax
    33f6:	e8 c5 dc ff ff       	call   10c0 <puts@plt>
    33fb:	bf 01 00 00 00       	mov    edi,0x1
    3400:	e8 2b dd ff ff       	call   1130 <exit@plt>
    3405:	be 5f 00 00 00       	mov    esi,0x5f
    340a:	48 8d 05 08 bc 00 00 	lea    rax,[rip+0xbc08]        # f019 <_IO_stdin_used+0x19>
    3411:	48 89 c7             	mov    rdi,rax
    3414:	b8 00 00 00 00       	mov    eax,0x0
    3419:	e8 d2 dc ff ff       	call   10f0 <printf@plt>
    341e:	b8 00 00 00 00       	mov    eax,0x0
    3423:	e8 48 de ff ff       	call   1270 <get_input>
    3428:	89 45 fc             	mov    DWORD PTR [rbp-0x4],eax
    342b:	81 7d fc 55 02 00 00 	cmp    DWORD PTR [rbp-0x4],0x255
    3432:	75 05                	jne    3439 <main+0x2122>
    3434:	e9 12 b0 00 00       	jmp    e44b <main+0xd134>
    3439:	83 7d fc 08          	cmp    DWORD PTR [rbp-0x4],0x8
    343d:	75 05                	jne    3444 <main+0x212d>
    343f:	e9 79 e1 ff ff       	jmp    15bd <main+0x2a6>
    3444:	83 7d fc 6d          	cmp    DWORD PTR [rbp-0x4],0x6d
    3448:	75 05                	jne    344f <main+0x2138>
    344a:	e9 a4 04 00 00       	jmp    38f3 <main+0x25dc>
    344f:	48 8d 05 d2 bb 00 00 	lea    rax,[rip+0xbbd2]        # f028 <_IO_stdin_used+0x28>
    3456:	48 89 c7             	mov    rdi,rax
    3459:	e8 62 dc ff ff       	call   10c0 <puts@plt>
    345e:	bf 01 00 00 00       	mov    edi,0x1
    3463:	e8 c8 dc ff ff       	call   1130 <exit@plt>
    3468:	90                   	nop
    3469:	be 60 00 00 00       	mov    esi,0x60
    346e:	48 8d 05 a4 bb 00 00 	lea    rax,[rip+0xbba4]        # f019 <_IO_stdin_used+0x19>
    3475:	48 89 c7             	mov    rdi,rax
    3478:	b8 00 00 00 00       	mov    eax,0x0
    347d:	e8 6e dc ff ff       	call   10f0 <printf@plt>
    3482:	b8 00 00 00 00       	mov    eax,0x0
    3487:	e8 e4 dd ff ff       	call   1270 <get_input>
    348c:	89 45 fc             	mov    DWORD PTR [rbp-0x4],eax
    348f:	81 7d fc b8 00 00 00 	cmp    DWORD PTR [rbp-0x4],0xb8
    3496:	75 05                	jne    349d <main+0x2186>
    3498:	e9 a9 1e 00 00       	jmp    5346 <main+0x402f>
    349d:	48 8d 05 84 bb 00 00 	lea    rax,[rip+0xbb84]        # f028 <_IO_stdin_used+0x28>
    34a4:	48 89 c7             	mov    rdi,rax
    34a7:	e8 14 dc ff ff       	call   10c0 <puts@plt>
    34ac:	bf 01 00 00 00       	mov    edi,0x1
    34b1:	e8 7a dc ff ff       	call   1130 <exit@plt>
    34b6:	90                   	nop
    34b7:	be 61 00 00 00       	mov    esi,0x61
    34bc:	48 8d 05 56 bb 00 00 	lea    rax,[rip+0xbb56]        # f019 <_IO_stdin_used+0x19>
    34c3:	48 89 c7             	mov    rdi,rax
    34c6:	b8 00 00 00 00       	mov    eax,0x0
    34cb:	e8 20 dc ff ff       	call   10f0 <printf@plt>
    34d0:	b8 00 00 00 00       	mov    eax,0x0
    34d5:	e8 96 dd ff ff       	call   1270 <get_input>
    34da:	89 45 fc             	mov    DWORD PTR [rbp-0x4],eax
    34dd:	81 7d fc 2e 01 00 00 	cmp    DWORD PTR [rbp-0x4],0x12e
    34e4:	75 05                	jne    34eb <main+0x21d4>
    34e6:	e9 38 47 00 00       	jmp    7c23 <main+0x690c>
    34eb:	48 8d 05 36 bb 00 00 	lea    rax,[rip+0xbb36]        # f028 <_IO_stdin_used+0x28>
    34f2:	48 89 c7             	mov    rdi,rax
    34f5:	e8 c6 db ff ff       	call   10c0 <puts@plt>
    34fa:	bf 01 00 00 00       	mov    edi,0x1
    34ff:	e8 2c dc ff ff       	call   1130 <exit@plt>
    3504:	be 62 00 00 00       	mov    esi,0x62
    3509:	48 8d 05 09 bb 00 00 	lea    rax,[rip+0xbb09]        # f019 <_IO_stdin_used+0x19>
    3510:	48 89 c7             	mov    rdi,rax
    3513:	b8 00 00 00 00       	mov    eax,0x0
    3518:	e8 d3 db ff ff       	call   10f0 <printf@plt>
    351d:	b8 00 00 00 00       	mov    eax,0x0
    3522:	e8 49 dd ff ff       	call   1270 <get_input>
    3527:	89 45 fc             	mov    DWORD PTR [rbp-0x4],eax
    352a:	83 7d fc 21          	cmp    DWORD PTR [rbp-0x4],0x21
    352e:	75 05                	jne    3535 <main+0x221e>
    3530:	e9 62 e9 ff ff       	jmp    1e97 <main+0xb80>
    3535:	81 7d fc 6f 02 00 00 	cmp    DWORD PTR [rbp-0x4],0x26f
    353c:	75 05                	jne    3543 <main+0x222c>
    353e:	e9 4d b8 00 00       	jmp    ed90 <main+0xda79>
    3543:	48 8d 05 de ba 00 00 	lea    rax,[rip+0xbade]        # f028 <_IO_stdin_used+0x28>
    354a:	48 89 c7             	mov    rdi,rax
    354d:	e8 6e db ff ff       	call   10c0 <puts@plt>
    3552:	bf 01 00 00 00       	mov    edi,0x1
    3557:	e8 d4 db ff ff       	call   1130 <exit@plt>
    355c:	be 63 00 00 00       	mov    esi,0x63
    3561:	48 8d 05 b1 ba 00 00 	lea    rax,[rip+0xbab1]        # f019 <_IO_stdin_used+0x19>
    3568:	48 89 c7             	mov    rdi,rax
    356b:	b8 00 00 00 00       	mov    eax,0x0
    3570:	e8 7b db ff ff       	call   10f0 <printf@plt>
    3575:	b8 00 00 00 00       	mov    eax,0x0
    357a:	e8 f1 dc ff ff       	call   1270 <get_input>
    357f:	89 45 fc             	mov    DWORD PTR [rbp-0x4],eax
    3582:	83 7d fc 5e          	cmp    DWORD PTR [rbp-0x4],0x5e
    3586:	75 05                	jne    358d <main+0x2276>
    3588:	e9 16 fe ff ff       	jmp    33a3 <main+0x208c>
    358d:	81 7d fc 9d 01 00 00 	cmp    DWORD PTR [rbp-0x4],0x19d
    3594:	75 05                	jne    359b <main+0x2284>
    3596:	e9 f2 6d 00 00       	jmp    a38d <main+0x9076>
    359b:	48 8d 05 86 ba 00 00 	lea    rax,[rip+0xba86]        # f028 <_IO_stdin_used+0x28>
    35a2:	48 89 c7             	mov    rdi,rax
    35a5:	e8 16 db ff ff       	call   10c0 <puts@plt>
    35aa:	bf 01 00 00 00       	mov    edi,0x1
    35af:	e8 7c db ff ff       	call   1130 <exit@plt>
    35b4:	be 64 00 00 00       	mov    esi,0x64
    35b9:	48 8d 05 59 ba 00 00 	lea    rax,[rip+0xba59]        # f019 <_IO_stdin_used+0x19>
    35c0:	48 89 c7             	mov    rdi,rax
    35c3:	b8 00 00 00 00       	mov    eax,0x0
    35c8:	e8 23 db ff ff       	call   10f0 <printf@plt>
    35cd:	b8 00 00 00 00       	mov    eax,0x0
    35d2:	e8 99 dc ff ff       	call   1270 <get_input>
    35d7:	89 45 fc             	mov    DWORD PTR [rbp-0x4],eax
    35da:	81 7d fc b3 00 00 00 	cmp    DWORD PTR [rbp-0x4],0xb3
    35e1:	75 05                	jne    35e8 <main+0x22d1>
    35e3:	e9 9e 1b 00 00       	jmp    5186 <main+0x3e6f>
    35e8:	81 7d fc ab 01 00 00 	cmp    DWORD PTR [rbp-0x4],0x1ab
    35ef:	75 05                	jne    35f6 <main+0x22df>
    35f1:	e9 b4 72 00 00       	jmp    a8aa <main+0x9593>
    35f6:	81 7d fc 65 02 00 00 	cmp    DWORD PTR [rbp-0x4],0x265
    35fd:	75 05                	jne    3604 <main+0x22ed>
    35ff:	e9 e9 b3 00 00       	jmp    e9ed <main+0xd6d6>
    3604:	48 8d 05 1d ba 00 00 	lea    rax,[rip+0xba1d]        # f028 <_IO_stdin_used+0x28>
    360b:	48 89 c7             	mov    rdi,rax
    360e:	e8 ad da ff ff       	call   10c0 <puts@plt>
    3613:	bf 01 00 00 00       	mov    edi,0x1
    3618:	e8 13 db ff ff       	call   1130 <exit@plt>
    361d:	be 65 00 00 00       	mov    esi,0x65
    3622:	48 8d 05 f0 b9 00 00 	lea    rax,[rip+0xb9f0]        # f019 <_IO_stdin_used+0x19>
    3629:	48 89 c7             	mov    rdi,rax
    362c:	b8 00 00 00 00       	mov    eax,0x0
    3631:	e8 ba da ff ff       	call   10f0 <printf@plt>
    3636:	b8 00 00 00 00       	mov    eax,0x0
    363b:	e8 30 dc ff ff       	call   1270 <get_input>
    3640:	89 45 fc             	mov    DWORD PTR [rbp-0x4],eax
    3643:	83 7d fc 04          	cmp    DWORD PTR [rbp-0x4],0x4
    3647:	75 05                	jne    364e <main+0x2337>
    3649:	e9 16 de ff ff       	jmp    1464 <main+0x14d>
    364e:	81 7d fc 66 02 00 00 	cmp    DWORD PTR [rbp-0x4],0x266
    3655:	75 05                	jne    365c <main+0x2345>
    3657:	e9 f6 b3 00 00       	jmp    ea52 <main+0xd73b>
    365c:	48 8d 05 c5 b9 00 00 	lea    rax,[rip+0xb9c5]        # f028 <_IO_stdin_used+0x28>
    3663:	48 89 c7             	mov    rdi,rax
    3666:	e8 55 da ff ff       	call   10c0 <puts@plt>
    366b:	bf 01 00 00 00       	mov    edi,0x1
    3670:	e8 bb da ff ff       	call   1130 <exit@plt>
    3675:	be 66 00 00 00       	mov    esi,0x66
    367a:	48 8d 05 98 b9 00 00 	lea    rax,[rip+0xb998]        # f019 <_IO_stdin_used+0x19>
    3681:	48 89 c7             	mov    rdi,rax
    3684:	b8 00 00 00 00       	mov    eax,0x0
    3689:	e8 62 da ff ff       	call   10f0 <printf@plt>
    368e:	b8 00 00 00 00       	mov    eax,0x0
    3693:	e8 d8 db ff ff       	call   1270 <get_input>
    3698:	89 45 fc             	mov    DWORD PTR [rbp-0x4],eax
    369b:	81 7d fc 1f 01 00 00 	cmp    DWORD PTR [rbp-0x4],0x11f
    36a2:	75 05                	jne    36a9 <main+0x2392>
    36a4:	e9 7b 40 00 00       	jmp    7724 <main+0x640d>
    36a9:	81 7d fc 81 01 00 00 	cmp    DWORD PTR [rbp-0x4],0x181
    36b0:	0f 84 d4 62 00 00    	je     998a <main+0x8673>
    36b6:	48 8d 05 6b b9 00 00 	lea    rax,[rip+0xb96b]        # f028 <_IO_stdin_used+0x28>
    36bd:	48 89 c7             	mov    rdi,rax
    36c0:	e8 fb d9 ff ff       	call   10c0 <puts@plt>
    36c5:	bf 01 00 00 00       	mov    edi,0x1
    36ca:	e8 61 da ff ff       	call   1130 <exit@plt>
    36cf:	90                   	nop
    36d0:	be 67 00 00 00       	mov    esi,0x67
    36d5:	48 8d 05 3d b9 00 00 	lea    rax,[rip+0xb93d]        # f019 <_IO_stdin_used+0x19>
    36dc:	48 89 c7             	mov    rdi,rax
    36df:	b8 00 00 00 00       	mov    eax,0x0
    36e4:	e8 07 da ff ff       	call   10f0 <printf@plt>
    36e9:	b8 00 00 00 00       	mov    eax,0x0
    36ee:	e8 7d db ff ff       	call   1270 <get_input>
    36f3:	89 45 fc             	mov    DWORD PTR [rbp-0x4],eax
    36f6:	81 7d fc fa 00 00 00 	cmp    DWORD PTR [rbp-0x4],0xfa
    36fd:	75 05                	jne    3704 <main+0x23ed>
    36ff:	e9 44 33 00 00       	jmp    6a48 <main+0x5731>
    3704:	48 8d 05 1d b9 00 00 	lea    rax,[rip+0xb91d]        # f028 <_IO_stdin_used+0x28>
    370b:	48 89 c7             	mov    rdi,rax
    370e:	e8 ad d9 ff ff       	call   10c0 <puts@plt>
    3713:	bf 01 00 00 00       	mov    edi,0x1
    3718:	e8 13 da ff ff       	call   1130 <exit@plt>
    371d:	be 68 00 00 00       	mov    esi,0x68
    3722:	48 8d 05 f0 b8 00 00 	lea    rax,[rip+0xb8f0]        # f019 <_IO_stdin_used+0x19>
    3729:	48 89 c7             	mov    rdi,rax
    372c:	b8 00 00 00 00       	mov    eax,0x0
    3731:	e8 ba d9 ff ff       	call   10f0 <printf@plt>
    3736:	b8 00 00 00 00       	mov    eax,0x0
    373b:	e8 30 db ff ff       	call   1270 <get_input>
    3740:	89 45 fc             	mov    DWORD PTR [rbp-0x4],eax
    3743:	83 7d fc 7b          	cmp    DWORD PTR [rbp-0x4],0x7b
    3747:	75 05                	jne    374e <main+0x2437>
    3749:	e9 c4 06 00 00       	jmp    3e12 <main+0x2afb>
    374e:	81 7d fc 29 01 00 00 	cmp    DWORD PTR [rbp-0x4],0x129
    3755:	75 05                	jne    375c <main+0x2445>
    3757:	e9 1d 43 00 00       	jmp    7a79 <main+0x6762>
    375c:	81 7d fc 18 02 00 00 	cmp    DWORD PTR [rbp-0x4],0x218
    3763:	75 05                	jne    376a <main+0x2453>
    3765:	e9 97 96 00 00       	jmp    ce01 <main+0xbaea>
    376a:	48 8d 05 b7 b8 00 00 	lea    rax,[rip+0xb8b7]        # f028 <_IO_stdin_used+0x28>
    3771:	48 89 c7             	mov    rdi,rax
    3774:	e8 47 d9 ff ff       	call   10c0 <puts@plt>
    3779:	bf 01 00 00 00       	mov    edi,0x1
    377e:	e8 ad d9 ff ff       	call   1130 <exit@plt>
    3783:	be 69 00 00 00       	mov    esi,0x69
    3788:	48 8d 05 8a b8 00 00 	lea    rax,[rip+0xb88a]        # f019 <_IO_stdin_used+0x19>
    378f:	48 89 c7             	mov    rdi,rax
    3792:	b8 00 00 00 00       	mov    eax,0x0
    3797:	e8 54 d9 ff ff       	call   10f0 <printf@plt>
    379c:	b8 00 00 00 00       	mov    eax,0x0
    37a1:	e8 ca da ff ff       	call   1270 <get_input>
    37a6:	89 45 fc             	mov    DWORD PTR [rbp-0x4],eax
    37a9:	83 7d fc 77          	cmp    DWORD PTR [rbp-0x4],0x77
    37ad:	75 05                	jne    37b4 <main+0x249d>
    37af:	e9 c8 04 00 00       	jmp    3c7c <main+0x2965>
    37b4:	81 7d fc f3 01 00 00 	cmp    DWORD PTR [rbp-0x4],0x1f3
    37bb:	75 05                	jne    37c2 <main+0x24ab>
    37bd:	e9 9b 89 00 00       	jmp    c15d <main+0xae46>
    37c2:	48 8d 05 5f b8 00 00 	lea    rax,[rip+0xb85f]        # f028 <_IO_stdin_used+0x28>
    37c9:	48 89 c7             	mov    rdi,rax
    37cc:	e8 ef d8 ff ff       	call   10c0 <puts@plt>
    37d1:	bf 01 00 00 00       	mov    edi,0x1
    37d6:	e8 55 d9 ff ff       	call   1130 <exit@plt>
    37db:	be 6a 00 00 00       	mov    esi,0x6a
    37e0:	48 8d 05 32 b8 00 00 	lea    rax,[rip+0xb832]        # f019 <_IO_stdin_used+0x19>
    37e7:	48 89 c7             	mov    rdi,rax
    37ea:	b8 00 00 00 00       	mov    eax,0x0
    37ef:	e8 fc d8 ff ff       	call   10f0 <printf@plt>
    37f4:	b8 00 00 00 00       	mov    eax,0x0
    37f9:	e8 72 da ff ff       	call   1270 <get_input>
    37fe:	89 45 fc             	mov    DWORD PTR [rbp-0x4],eax
    3801:	83 7d fc 4d          	cmp    DWORD PTR [rbp-0x4],0x4d
    3805:	75 05                	jne    380c <main+0x24f5>
    3807:	e9 73 f5 ff ff       	jmp    2d7f <main+0x1a68>
    380c:	81 7d fc 4d 02 00 00 	cmp    DWORD PTR [rbp-0x4],0x24d
    3813:	75 05                	jne    381a <main+0x2503>
    3815:	e9 1f a9 00 00       	jmp    e139 <main+0xce22>
    381a:	48 8d 05 07 b8 00 00 	lea    rax,[rip+0xb807]        # f028 <_IO_stdin_used+0x28>
    3821:	48 89 c7             	mov    rdi,rax
    3824:	e8 97 d8 ff ff       	call   10c0 <puts@plt>
    3829:	bf 01 00 00 00       	mov    edi,0x1
    382e:	e8 fd d8 ff ff       	call   1130 <exit@plt>
    3833:	be 6b 00 00 00       	mov    esi,0x6b
    3838:	48 8d 05 da b7 00 00 	lea    rax,[rip+0xb7da]        # f019 <_IO_stdin_used+0x19>
    383f:	48 89 c7             	mov    rdi,rax
    3842:	b8 00 00 00 00       	mov    eax,0x0
    3847:	e8 a4 d8 ff ff       	call   10f0 <printf@plt>
    384c:	b8 00 00 00 00       	mov    eax,0x0
    3851:	e8 1a da ff ff       	call   1270 <get_input>
    3856:	89 45 fc             	mov    DWORD PTR [rbp-0x4],eax
    3859:	81 7d fc 34 01 00 00 	cmp    DWORD PTR [rbp-0x4],0x134
    3860:	75 05                	jne    3867 <main+0x2550>
    3862:	e9 fc 45 00 00       	jmp    7e63 <main+0x6b4c>
    3867:	81 7d fc 6b 02 00 00 	cmp    DWORD PTR [rbp-0x4],0x26b
    386e:	75 05                	jne    3875 <main+0x255e>
    3870:	e9 b7 b3 00 00       	jmp    ec2c <main+0xd915>
    3875:	48 8d 05 ac b7 00 00 	lea    rax,[rip+0xb7ac]        # f028 <_IO_stdin_used+0x28>
    387c:	48 89 c7             	mov    rdi,rax
    387f:	e8 3c d8 ff ff       	call   10c0 <puts@plt>
    3884:	bf 01 00 00 00       	mov    edi,0x1
    3889:	e8 a2 d8 ff ff       	call   1130 <exit@plt>
    388e:	be 6c 00 00 00       	mov    esi,0x6c
    3893:	48 8d 05 7f b7 00 00 	lea    rax,[rip+0xb77f]        # f019 <_IO_stdin_used+0x19>
    389a:	48 89 c7             	mov    rdi,rax
    389d:	b8 00 00 00 00       	mov    eax,0x0
    38a2:	e8 49 d8 ff ff       	call   10f0 <printf@plt>
    38a7:	b8 00 00 00 00       	mov    eax,0x0
    38ac:	e8 bf d9 ff ff       	call   1270 <get_input>
    38b1:	89 45 fc             	mov    DWORD PTR [rbp-0x4],eax
    38b4:	83 7d fc 7d          	cmp    DWORD PTR [rbp-0x4],0x7d
    38b8:	75 05                	jne    38bf <main+0x25a8>
    38ba:	e9 06 06 00 00       	jmp    3ec5 <main+0x2bae>
    38bf:	81 7d fc b6 01 00 00 	cmp    DWORD PTR [rbp-0x4],0x1b6
    38c6:	0f 84 69 73 00 00    	je     ac35 <main+0x991e>
    38cc:	81 7d fc 85 01 00 00 	cmp    DWORD PTR [rbp-0x4],0x185
    38d3:	75 05                	jne    38da <main+0x25c3>
    38d5:	e9 fc 61 00 00       	jmp    9ad6 <main+0x87bf>
    38da:	48 8d 05 47 b7 00 00 	lea    rax,[rip+0xb747]        # f028 <_IO_stdin_used+0x28>
    38e1:	48 89 c7             	mov    rdi,rax
    38e4:	e8 d7 d7 ff ff       	call   10c0 <puts@plt>
    38e9:	bf 01 00 00 00       	mov    edi,0x1
    38ee:	e8 3d d8 ff ff       	call   1130 <exit@plt>
    38f3:	be 6d 00 00 00       	mov    esi,0x6d
    38f8:	48 8d 05 1a b7 00 00 	lea    rax,[rip+0xb71a]        # f019 <_IO_stdin_used+0x19>
    38ff:	48 89 c7             	mov    rdi,rax
    3902:	b8 00 00 00 00       	mov    eax,0x0
    3907:	e8 e4 d7 ff ff       	call   10f0 <printf@plt>
    390c:	b8 00 00 00 00       	mov    eax,0x0
    3911:	e8 5a d9 ff ff       	call   1270 <get_input>
    3916:	89 45 fc             	mov    DWORD PTR [rbp-0x4],eax
    3919:	83 7d fc 5f          	cmp    DWORD PTR [rbp-0x4],0x5f
    391d:	75 05                	jne    3924 <main+0x260d>
    391f:	e9 e1 fa ff ff       	jmp    3405 <main+0x20ee>
    3924:	81 7d fc 86 00 00 00 	cmp    DWORD PTR [rbp-0x4],0x86
    392b:	0f 84 ba 08 00 00    	je     41eb <main+0x2ed4>
    3931:	48 8d 05 f0 b6 00 00 	lea    rax,[rip+0xb6f0]        # f028 <_IO_stdin_used+0x28>
    3938:	48 89 c7             	mov    rdi,rax
    393b:	e8 80 d7 ff ff       	call   10c0 <puts@plt>
    3940:	bf 01 00 00 00       	mov    edi,0x1
    3945:	e8 e6 d7 ff ff       	call   1130 <exit@plt>
    394a:	be 6e 00 00 00       	mov    esi,0x6e
    394f:	48 8d 05 c3 b6 00 00 	lea    rax,[rip+0xb6c3]        # f019 <_IO_stdin_used+0x19>
    3956:	48 89 c7             	mov    rdi,rax
    3959:	b8 00 00 00 00       	mov    eax,0x0
    395e:	e8 8d d7 ff ff       	call   10f0 <printf@plt>
    3963:	b8 00 00 00 00       	mov    eax,0x0
    3968:	e8 03 d9 ff ff       	call   1270 <get_input>
    396d:	89 45 fc             	mov    DWORD PTR [rbp-0x4],eax
    3970:	81 7d fc 5f 02 00 00 	cmp    DWORD PTR [rbp-0x4],0x25f
    3977:	0f 84 53 ae 00 00    	je     e7d0 <main+0xd4b9>
    397d:	81 7d fc 40 01 00 00 	cmp    DWORD PTR [rbp-0x4],0x140
    3984:	75 05                	jne    398b <main+0x2674>
    3986:	e9 17 49 00 00       	jmp    82a2 <main+0x6f8b>
    398b:	48 8d 05 96 b6 00 00 	lea    rax,[rip+0xb696]        # f028 <_IO_stdin_used+0x28>
    3992:	48 89 c7             	mov    rdi,rax
    3995:	e8 26 d7 ff ff       	call   10c0 <puts@plt>
    399a:	bf 01 00 00 00       	mov    edi,0x1
    399f:	e8 8c d7 ff ff       	call   1130 <exit@plt>
    39a4:	be 6f 00 00 00       	mov    esi,0x6f
    39a9:	48 8d 05 69 b6 00 00 	lea    rax,[rip+0xb669]        # f019 <_IO_stdin_used+0x19>
    39b0:	48 89 c7             	mov    rdi,rax
    39b3:	b8 00 00 00 00       	mov    eax,0x0
    39b8:	e8 33 d7 ff ff       	call   10f0 <printf@plt>
    39bd:	b8 00 00 00 00       	mov    eax,0x0
    39c2:	e8 a9 d8 ff ff       	call   1270 <get_input>
    39c7:	89 45 fc             	mov    DWORD PTR [rbp-0x4],eax
    39ca:	83 7d fc 19          	cmp    DWORD PTR [rbp-0x4],0x19
    39ce:	75 05                	jne    39d5 <main+0x26be>
    39d0:	e9 df e1 ff ff       	jmp    1bb4 <main+0x89d>
    39d5:	81 7d fc 8b 00 00 00 	cmp    DWORD PTR [rbp-0x4],0x8b
    39dc:	75 05                	jne    39e3 <main+0x26cc>
    39de:	e9 a1 09 00 00       	jmp    4384 <main+0x306d>
    39e3:	48 8d 05 3e b6 00 00 	lea    rax,[rip+0xb63e]        # f028 <_IO_stdin_used+0x28>
    39ea:	48 89 c7             	mov    rdi,rax
    39ed:	e8 ce d6 ff ff       	call   10c0 <puts@plt>
    39f2:	bf 01 00 00 00       	mov    edi,0x1
    39f7:	e8 34 d7 ff ff       	call   1130 <exit@plt>
    39fc:	be 70 00 00 00       	mov    esi,0x70
    3a01:	48 8d 05 11 b6 00 00 	lea    rax,[rip+0xb611]        # f019 <_IO_stdin_used+0x19>
    3a08:	48 89 c7             	mov    rdi,rax
    3a0b:	b8 00 00 00 00       	mov    eax,0x0
    3a10:	e8 db d6 ff ff       	call   10f0 <printf@plt>
    3a15:	b8 00 00 00 00       	mov    eax,0x0
    3a1a:	e8 51 d8 ff ff       	call   1270 <get_input>
    3a1f:	89 45 fc             	mov    DWORD PTR [rbp-0x4],eax
    3a22:	83 7d fc 11          	cmp    DWORD PTR [rbp-0x4],0x11
    3a26:	75 05                	jne    3a2d <main+0x2716>
    3a28:	e9 b5 de ff ff       	jmp    18e2 <main+0x5cb>
    3a2d:	81 7d fc 7f 01 00 00 	cmp    DWORD PTR [rbp-0x4],0x17f
    3a34:	75 05                	jne    3a3b <main+0x2724>
    3a36:	e9 74 5e 00 00       	jmp    98af <main+0x8598>
    3a3b:	48 8d 05 e6 b5 00 00 	lea    rax,[rip+0xb5e6]        # f028 <_IO_stdin_used+0x28>
    3a42:	48 89 c7             	mov    rdi,rax
    3a45:	e8 76 d6 ff ff       	call   10c0 <puts@plt>
    3a4a:	bf 01 00 00 00       	mov    edi,0x1
    3a4f:	e8 dc d6 ff ff       	call   1130 <exit@plt>
    3a54:	be 71 00 00 00       	mov    esi,0x71
    3a59:	48 8d 05 b9 b5 00 00 	lea    rax,[rip+0xb5b9]        # f019 <_IO_stdin_used+0x19>
    3a60:	48 89 c7             	mov    rdi,rax
    3a63:	b8 00 00 00 00       	mov    eax,0x0
    3a68:	e8 83 d6 ff ff       	call   10f0 <printf@plt>
    3a6d:	b8 00 00 00 00       	mov    eax,0x0
    3a72:	e8 f9 d7 ff ff       	call   1270 <get_input>
    3a77:	89 45 fc             	mov    DWORD PTR [rbp-0x4],eax
    3a7a:	81 7d fc 34 01 00 00 	cmp    DWORD PTR [rbp-0x4],0x134
    3a81:	75 05                	jne    3a88 <main+0x2771>
    3a83:	e9 db 43 00 00       	jmp    7e63 <main+0x6b4c>
    3a88:	83 7d fc 35          	cmp    DWORD PTR [rbp-0x4],0x35
    3a8c:	75 05                	jne    3a93 <main+0x277c>
    3a8e:	e9 a2 ea ff ff       	jmp    2535 <main+0x121e>
    3a93:	48 8d 05 8e b5 00 00 	lea    rax,[rip+0xb58e]        # f028 <_IO_stdin_used+0x28>
    3a9a:	48 89 c7             	mov    rdi,rax
    3a9d:	e8 1e d6 ff ff       	call   10c0 <puts@plt>
    3aa2:	bf 01 00 00 00       	mov    edi,0x1
    3aa7:	e8 84 d6 ff ff       	call   1130 <exit@plt>
    3aac:	be 72 00 00 00       	mov    esi,0x72
    3ab1:	48 8d 05 61 b5 00 00 	lea    rax,[rip+0xb561]        # f019 <_IO_stdin_used+0x19>
    3ab8:	48 89 c7             	mov    rdi,rax
    3abb:	b8 00 00 00 00       	mov    eax,0x0
    3ac0:	e8 2b d6 ff ff       	call   10f0 <printf@plt>
    3ac5:	b8 00 00 00 00       	mov    eax,0x0
    3aca:	e8 a1 d7 ff ff       	call   1270 <get_input>
    3acf:	89 45 fc             	mov    DWORD PTR [rbp-0x4],eax
    3ad2:	81 7d fc 3a 02 00 00 	cmp    DWORD PTR [rbp-0x4],0x23a
    3ad9:	75 05                	jne    3ae0 <main+0x27c9>
    3adb:	e9 65 9f 00 00       	jmp    da45 <main+0xc72e>
    3ae0:	81 7d fc 3e 01 00 00 	cmp    DWORD PTR [rbp-0x4],0x13e
    3ae7:	75 05                	jne    3aee <main+0x27d7>
    3ae9:	e9 05 47 00 00       	jmp    81f3 <main+0x6edc>
    3aee:	81 7d fc 14 01 00 00 	cmp    DWORD PTR [rbp-0x4],0x114
    3af5:	75 05                	jne    3afc <main+0x27e5>
    3af7:	e9 37 38 00 00       	jmp    7333 <main+0x601c>
    3afc:	48 8d 05 25 b5 00 00 	lea    rax,[rip+0xb525]        # f028 <_IO_stdin_used+0x28>
    3b03:	48 89 c7             	mov    rdi,rax
    3b06:	e8 b5 d5 ff ff       	call   10c0 <puts@plt>
    3b0b:	bf 01 00 00 00       	mov    edi,0x1
    3b10:	e8 1b d6 ff ff       	call   1130 <exit@plt>
    3b15:	be 73 00 00 00       	mov    esi,0x73
    3b1a:	48 8d 05 f8 b4 00 00 	lea    rax,[rip+0xb4f8]        # f019 <_IO_stdin_used+0x19>
    3b21:	48 89 c7             	mov    rdi,rax
    3b24:	b8 00 00 00 00       	mov    eax,0x0
    3b29:	e8 c2 d5 ff ff       	call   10f0 <printf@plt>
    3b2e:	b8 00 00 00 00       	mov    eax,0x0
    3b33:	e8 38 d7 ff ff       	call   1270 <get_input>
    3b38:	89 45 fc             	mov    DWORD PTR [rbp-0x4],eax
    3b3b:	83 7d fc 15          	cmp    DWORD PTR [rbp-0x4],0x15
    3b3f:	75 05                	jne    3b46 <main+0x282f>
    3b41:	e9 1b df ff ff       	jmp    1a61 <main+0x74a>
    3b46:	81 7d fc 24 01 00 00 	cmp    DWORD PTR [rbp-0x4],0x124
    3b4d:	0f 84 70 3d 00 00    	je     78c3 <main+0x65ac>
    3b53:	81 7d fc bc 01 00 00 	cmp    DWORD PTR [rbp-0x4],0x1bc
    3b5a:	75 05                	jne    3b61 <main+0x284a>
    3b5c:	e9 e4 72 00 00       	jmp    ae45 <main+0x9b2e>
    3b61:	48 8d 05 c0 b4 00 00 	lea    rax,[rip+0xb4c0]        # f028 <_IO_stdin_used+0x28>
    3b68:	48 89 c7             	mov    rdi,rax
    3b6b:	e8 50 d5 ff ff       	call   10c0 <puts@plt>
    3b70:	bf 01 00 00 00       	mov    edi,0x1
    3b75:	e8 b6 d5 ff ff       	call   1130 <exit@plt>
    3b7a:	be 74 00 00 00       	mov    esi,0x74
    3b7f:	48 8d 05 93 b4 00 00 	lea    rax,[rip+0xb493]        # f019 <_IO_stdin_used+0x19>
    3b86:	48 89 c7             	mov    rdi,rax
    3b89:	b8 00 00 00 00       	mov    eax,0x0
    3b8e:	e8 5d d5 ff ff       	call   10f0 <printf@plt>
    3b93:	b8 00 00 00 00       	mov    eax,0x0
    3b98:	e8 d3 d6 ff ff       	call   1270 <get_input>
    3b9d:	89 45 fc             	mov    DWORD PTR [rbp-0x4],eax
    3ba0:	81 7d fc 19 01 00 00 	cmp    DWORD PTR [rbp-0x4],0x119
    3ba7:	75 05                	jne    3bae <main+0x2897>
    3ba9:	e9 52 39 00 00       	jmp    7500 <main+0x61e9>
    3bae:	81 7d fc 94 00 00 00 	cmp    DWORD PTR [rbp-0x4],0x94
    3bb5:	0f 84 ff 0a 00 00    	je     46ba <main+0x33a3>
    3bbb:	48 8d 05 66 b4 00 00 	lea    rax,[rip+0xb466]        # f028 <_IO_stdin_used+0x28>
    3bc2:	48 89 c7             	mov    rdi,rax
    3bc5:	e8 f6 d4 ff ff       	call   10c0 <puts@plt>
    3bca:	bf 01 00 00 00       	mov    edi,0x1
    3bcf:	e8 5c d5 ff ff       	call   1130 <exit@plt>
    3bd4:	be 75 00 00 00       	mov    esi,0x75
    3bd9:	48 8d 05 39 b4 00 00 	lea    rax,[rip+0xb439]        # f019 <_IO_stdin_used+0x19>
    3be0:	48 89 c7             	mov    rdi,rax
    3be3:	b8 00 00 00 00       	mov    eax,0x0
    3be8:	e8 03 d5 ff ff       	call   10f0 <printf@plt>
    3bed:	b8 00 00 00 00       	mov    eax,0x0
    3bf2:	e8 79 d6 ff ff       	call   1270 <get_input>
    3bf7:	89 45 fc             	mov    DWORD PTR [rbp-0x4],eax
    3bfa:	81 7d fc b0 00 00 00 	cmp    DWORD PTR [rbp-0x4],0xb0
    3c01:	75 05                	jne    3c08 <main+0x28f1>
    3c03:	e9 8a 14 00 00       	jmp    5092 <main+0x3d7b>
    3c08:	81 7d fc 17 02 00 00 	cmp    DWORD PTR [rbp-0x4],0x217
    3c0f:	0f 84 a1 91 00 00    	je     cdb6 <main+0xba9f>
    3c15:	48 8d 05 0c b4 00 00 	lea    rax,[rip+0xb40c]        # f028 <_IO_stdin_used+0x28>
    3c1c:	48 89 c7             	mov    rdi,rax
    3c1f:	e8 9c d4 ff ff       	call   10c0 <puts@plt>
    3c24:	bf 01 00 00 00       	mov    edi,0x1
    3c29:	e8 02 d5 ff ff       	call   1130 <exit@plt>
    3c2e:	90                   	nop
    3c2f:	be 76 00 00 00       	mov    esi,0x76
    3c34:	48 8d 05 de b3 00 00 	lea    rax,[rip+0xb3de]        # f019 <_IO_stdin_used+0x19>
    3c3b:	48 89 c7             	mov    rdi,rax
    3c3e:	b8 00 00 00 00       	mov    eax,0x0
    3c43:	e8 a8 d4 ff ff       	call   10f0 <printf@plt>
    3c48:	b8 00 00 00 00       	mov    eax,0x0
    3c4d:	e8 1e d6 ff ff       	call   1270 <get_input>
    3c52:	89 45 fc             	mov    DWORD PTR [rbp-0x4],eax
    3c55:	81 7d fc d2 01 00 00 	cmp    DWORD PTR [rbp-0x4],0x1d2
    3c5c:	75 05                	jne    3c63 <main+0x294c>
    3c5e:	e9 86 79 00 00       	jmp    b5e9 <main+0xa2d2>
    3c63:	48 8d 05 be b3 00 00 	lea    rax,[rip+0xb3be]        # f028 <_IO_stdin_used+0x28>
    3c6a:	48 89 c7             	mov    rdi,rax
    3c6d:	e8 4e d4 ff ff       	call   10c0 <puts@plt>
    3c72:	bf 01 00 00 00       	mov    edi,0x1
    3c77:	e8 b4 d4 ff ff       	call   1130 <exit@plt>
    3c7c:	be 77 00 00 00       	mov    esi,0x77
    3c81:	48 8d 05 91 b3 00 00 	lea    rax,[rip+0xb391]        # f019 <_IO_stdin_used+0x19>
    3c88:	48 89 c7             	mov    rdi,rax
    3c8b:	b8 00 00 00 00       	mov    eax,0x0
    3c90:	e8 5b d4 ff ff       	call   10f0 <printf@plt>
    3c95:	b8 00 00 00 00       	mov    eax,0x0
    3c9a:	e8 d1 d5 ff ff       	call   1270 <get_input>
    3c9f:	89 45 fc             	mov    DWORD PTR [rbp-0x4],eax
    3ca2:	81 7d fc 3a 01 00 00 	cmp    DWORD PTR [rbp-0x4],0x13a
    3ca9:	75 05                	jne    3cb0 <main+0x2999>
    3cab:	e9 d9 43 00 00       	jmp    8089 <main+0x6d72>
    3cb0:	81 7d fc 87 01 00 00 	cmp    DWORD PTR [rbp-0x4],0x187
    3cb7:	75 05                	jne    3cbe <main+0x29a7>
    3cb9:	e9 cb 5e 00 00       	jmp    9b89 <main+0x8872>
    3cbe:	83 7d fc 69          	cmp    DWORD PTR [rbp-0x4],0x69
    3cc2:	75 05                	jne    3cc9 <main+0x29b2>
    3cc4:	e9 ba fa ff ff       	jmp    3783 <main+0x246c>
    3cc9:	48 8d 05 58 b3 00 00 	lea    rax,[rip+0xb358]        # f028 <_IO_stdin_used+0x28>
    3cd0:	48 89 c7             	mov    rdi,rax
    3cd3:	e8 e8 d3 ff ff       	call   10c0 <puts@plt>
    3cd8:	bf 01 00 00 00       	mov    edi,0x1
    3cdd:	e8 4e d4 ff ff       	call   1130 <exit@plt>
    3ce2:	be 78 00 00 00       	mov    esi,0x78
    3ce7:	48 8d 05 2b b3 00 00 	lea    rax,[rip+0xb32b]        # f019 <_IO_stdin_used+0x19>
    3cee:	48 89 c7             	mov    rdi,rax
    3cf1:	b8 00 00 00 00       	mov    eax,0x0
    3cf6:	e8 f5 d3 ff ff       	call   10f0 <printf@plt>
    3cfb:	b8 00 00 00 00       	mov    eax,0x0
    3d00:	e8 6b d5 ff ff       	call   1270 <get_input>
    3d05:	89 45 fc             	mov    DWORD PTR [rbp-0x4],eax
    3d08:	81 7d fc ab 00 00 00 	cmp    DWORD PTR [rbp-0x4],0xab
    3d0f:	75 05                	jne    3d16 <main+0x29ff>
    3d11:	e9 a0 11 00 00       	jmp    4eb6 <main+0x3b9f>
    3d16:	81 7d fc 8e 01 00 00 	cmp    DWORD PTR [rbp-0x4],0x18e
    3d1d:	75 05                	jne    3d24 <main+0x2a0d>
    3d1f:	e9 f5 60 00 00       	jmp    9e19 <main+0x8b02>
    3d24:	81 7d fc c3 01 00 00 	cmp    DWORD PTR [rbp-0x4],0x1c3
    3d2b:	75 05                	jne    3d32 <main+0x2a1b>
    3d2d:	e9 91 73 00 00       	jmp    b0c3 <main+0x9dac>
    3d32:	48 8d 05 ef b2 00 00 	lea    rax,[rip+0xb2ef]        # f028 <_IO_stdin_used+0x28>
    3d39:	48 89 c7             	mov    rdi,rax
    3d3c:	e8 7f d3 ff ff       	call   10c0 <puts@plt>
    3d41:	bf 01 00 00 00       	mov    edi,0x1
    3d46:	e8 e5 d3 ff ff       	call   1130 <exit@plt>
    3d4b:	be 79 00 00 00       	mov    esi,0x79
    3d50:	48 8d 05 c2 b2 00 00 	lea    rax,[rip+0xb2c2]        # f019 <_IO_stdin_used+0x19>
    3d57:	48 89 c7             	mov    rdi,rax
    3d5a:	b8 00 00 00 00       	mov    eax,0x0
    3d5f:	e8 8c d3 ff ff       	call   10f0 <printf@plt>
    3d64:	b8 00 00 00 00       	mov    eax,0x0
    3d69:	e8 02 d5 ff ff       	call   1270 <get_input>
    3d6e:	89 45 fc             	mov    DWORD PTR [rbp-0x4],eax
    3d71:	83 7d fc 22          	cmp    DWORD PTR [rbp-0x4],0x22
    3d75:	75 05                	jne    3d7c <main+0x2a65>
    3d77:	e9 81 e1 ff ff       	jmp    1efd <main+0xbe6>
    3d7c:	83 7d fc 53          	cmp    DWORD PTR [rbp-0x4],0x53
    3d80:	75 05                	jne    3d87 <main+0x2a70>
    3d82:	e9 2f f2 ff ff       	jmp    2fb6 <main+0x1c9f>
    3d87:	81 7d fc fb 00 00 00 	cmp    DWORD PTR [rbp-0x4],0xfb
    3d8e:	0f 84 24 2d 00 00    	je     6ab8 <main+0x57a1>
    3d94:	48 8d 05 8d b2 00 00 	lea    rax,[rip+0xb28d]        # f028 <_IO_stdin_used+0x28>
    3d9b:	48 89 c7             	mov    rdi,rax
    3d9e:	e8 1d d3 ff ff       	call   10c0 <puts@plt>
    3da3:	bf 01 00 00 00       	mov    edi,0x1
    3da8:	e8 83 d3 ff ff       	call   1130 <exit@plt>
    3dad:	be 7a 00 00 00       	mov    esi,0x7a
    3db2:	48 8d 05 60 b2 00 00 	lea    rax,[rip+0xb260]        # f019 <_IO_stdin_used+0x19>
    3db9:	48 89 c7             	mov    rdi,rax
    3dbc:	b8 00 00 00 00       	mov    eax,0x0
    3dc1:	e8 2a d3 ff ff       	call   10f0 <printf@plt>
    3dc6:	b8 00 00 00 00       	mov    eax,0x0
    3dcb:	e8 a0 d4 ff ff       	call   1270 <get_input>
    3dd0:	89 45 fc             	mov    DWORD PTR [rbp-0x4],eax
    3dd3:	81 7d fc 10 01 00 00 	cmp    DWORD PTR [rbp-0x4],0x110
    3dda:	75 05                	jne    3de1 <main+0x2aca>
    3ddc:	e9 f5 33 00 00       	jmp    71d6 <main+0x5ebf>
    3de1:	81 7d fc 82 00 00 00 	cmp    DWORD PTR [rbp-0x4],0x82
    3de8:	75 05                	jne    3def <main+0x2ad8>
    3dea:	e9 8a 02 00 00       	jmp    4079 <main+0x2d62>
    3def:	83 7d fc 4f          	cmp    DWORD PTR [rbp-0x4],0x4f
    3df3:	0f 84 61 f0 ff ff    	je     2e5a <main+0x1b43>
    3df9:	48 8d 05 28 b2 00 00 	lea    rax,[rip+0xb228]        # f028 <_IO_stdin_used+0x28>
    3e00:	48 89 c7             	mov    rdi,rax
    3e03:	e8 b8 d2 ff ff       	call   10c0 <puts@plt>
    3e08:	bf 01 00 00 00       	mov    edi,0x1
    3e0d:	e8 1e d3 ff ff       	call   1130 <exit@plt>
    3e12:	be 7b 00 00 00       	mov    esi,0x7b
    3e17:	48 8d 05 fb b1 00 00 	lea    rax,[rip+0xb1fb]        # f019 <_IO_stdin_used+0x19>
    3e1e:	48 89 c7             	mov    rdi,rax
    3e21:	b8 00 00 00 00       	mov    eax,0x0
    3e26:	e8 c5 d2 ff ff       	call   10f0 <printf@plt>
    3e2b:	b8 00 00 00 00       	mov    eax,0x0
    3e30:	e8 3b d4 ff ff       	call   1270 <get_input>
    3e35:	89 45 fc             	mov    DWORD PTR [rbp-0x4],eax
    3e38:	83 7d fc 68          	cmp    DWORD PTR [rbp-0x4],0x68
    3e3c:	75 05                	jne    3e43 <main+0x2b2c>
    3e3e:	e9 da f8 ff ff       	jmp    371d <main+0x2406>
    3e43:	81 7d fc f3 01 00 00 	cmp    DWORD PTR [rbp-0x4],0x1f3
    3e4a:	75 05                	jne    3e51 <main+0x2b3a>
    3e4c:	e9 0c 83 00 00       	jmp    c15d <main+0xae46>
    3e51:	48 8d 05 d0 b1 00 00 	lea    rax,[rip+0xb1d0]        # f028 <_IO_stdin_used+0x28>
    3e58:	48 89 c7             	mov    rdi,rax
    3e5b:	e8 60 d2 ff ff       	call   10c0 <puts@plt>
    3e60:	bf 01 00 00 00       	mov    edi,0x1
    3e65:	e8 c6 d2 ff ff       	call   1130 <exit@plt>
    3e6a:	be 7c 00 00 00       	mov    esi,0x7c
    3e6f:	48 8d 05 a3 b1 00 00 	lea    rax,[rip+0xb1a3]        # f019 <_IO_stdin_used+0x19>
    3e76:	48 89 c7             	mov    rdi,rax
    3e79:	b8 00 00 00 00       	mov    eax,0x0
    3e7e:	e8 6d d2 ff ff       	call   10f0 <printf@plt>
    3e83:	b8 00 00 00 00       	mov    eax,0x0
    3e88:	e8 e3 d3 ff ff       	call   1270 <get_input>
    3e8d:	89 45 fc             	mov    DWORD PTR [rbp-0x4],eax
    3e90:	81 7d fc 9e 01 00 00 	cmp    DWORD PTR [rbp-0x4],0x19e
    3e97:	75 05                	jne    3e9e <main+0x2b87>
    3e99:	e9 47 65 00 00       	jmp    a3e5 <main+0x90ce>
    3e9e:	81 7d fc f7 01 00 00 	cmp    DWORD PTR [rbp-0x4],0x1f7
    3ea5:	75 05                	jne    3eac <main+0x2b95>
    3ea7:	e9 06 84 00 00       	jmp    c2b2 <main+0xaf9b>
    3eac:	48 8d 05 75 b1 00 00 	lea    rax,[rip+0xb175]        # f028 <_IO_stdin_used+0x28>
    3eb3:	48 89 c7             	mov    rdi,rax
    3eb6:	e8 05 d2 ff ff       	call   10c0 <puts@plt>
    3ebb:	bf 01 00 00 00       	mov    edi,0x1
    3ec0:	e8 6b d2 ff ff       	call   1130 <exit@plt>
    3ec5:	be 7d 00 00 00       	mov    esi,0x7d
    3eca:	48 8d 05 48 b1 00 00 	lea    rax,[rip+0xb148]        # f019 <_IO_stdin_used+0x19>
    3ed1:	48 89 c7             	mov    rdi,rax
    3ed4:	b8 00 00 00 00       	mov    eax,0x0
    3ed9:	e8 12 d2 ff ff       	call   10f0 <printf@plt>
    3ede:	b8 00 00 00 00       	mov    eax,0x0
    3ee3:	e8 88 d3 ff ff       	call   1270 <get_input>
    3ee8:	89 45 fc             	mov    DWORD PTR [rbp-0x4],eax
    3eeb:	81 7d fc cd 01 00 00 	cmp    DWORD PTR [rbp-0x4],0x1cd
    3ef2:	75 05                	jne    3ef9 <main+0x2be2>
    3ef4:	e9 3e 75 00 00       	jmp    b437 <main+0xa120>
    3ef9:	83 7d fc 6c          	cmp    DWORD PTR [rbp-0x4],0x6c
    3efd:	75 05                	jne    3f04 <main+0x2bed>
    3eff:	e9 8a f9 ff ff       	jmp    388e <main+0x2577>
    3f04:	48 8d 05 1d b1 00 00 	lea    rax,[rip+0xb11d]        # f028 <_IO_stdin_used+0x28>
    3f0b:	48 89 c7             	mov    rdi,rax
    3f0e:	e8 ad d1 ff ff       	call   10c0 <puts@plt>
    3f13:	bf 01 00 00 00       	mov    edi,0x1
    3f18:	e8 13 d2 ff ff       	call   1130 <exit@plt>
    3f1d:	be 7e 00 00 00       	mov    esi,0x7e
    3f22:	48 8d 05 f0 b0 00 00 	lea    rax,[rip+0xb0f0]        # f019 <_IO_stdin_used+0x19>
    3f29:	48 89 c7             	mov    rdi,rax
    3f2c:	b8 00 00 00 00       	mov    eax,0x0
    3f31:	e8 ba d1 ff ff       	call   10f0 <printf@plt>
    3f36:	b8 00 00 00 00       	mov    eax,0x0
    3f3b:	e8 30 d3 ff ff       	call   1270 <get_input>
    3f40:	89 45 fc             	mov    DWORD PTR [rbp-0x4],eax
    3f43:	81 7d fc 03 01 00 00 	cmp    DWORD PTR [rbp-0x4],0x103
    3f4a:	75 05                	jne    3f51 <main+0x2c3a>
    3f4c:	e9 15 2e 00 00       	jmp    6d66 <main+0x5a4f>
    3f51:	81 7d fc a9 01 00 00 	cmp    DWORD PTR [rbp-0x4],0x1a9
    3f58:	75 05                	jne    3f5f <main+0x2c48>
    3f5a:	e9 7d 68 00 00       	jmp    a7dc <main+0x94c5>
    3f5f:	48 8d 05 c2 b0 00 00 	lea    rax,[rip+0xb0c2]        # f028 <_IO_stdin_used+0x28>
    3f66:	48 89 c7             	mov    rdi,rax
    3f69:	e8 52 d1 ff ff       	call   10c0 <puts@plt>
    3f6e:	bf 01 00 00 00       	mov    edi,0x1
    3f73:	e8 b8 d1 ff ff       	call   1130 <exit@plt>
    3f78:	90                   	nop
    3f79:	be 7f 00 00 00       	mov    esi,0x7f
    3f7e:	48 8d 05 94 b0 00 00 	lea    rax,[rip+0xb094]        # f019 <_IO_stdin_used+0x19>
    3f85:	48 89 c7             	mov    rdi,rax
    3f88:	b8 00 00 00 00       	mov    eax,0x0
    3f8d:	e8 5e d1 ff ff       	call   10f0 <printf@plt>
    3f92:	b8 00 00 00 00       	mov    eax,0x0
    3f97:	e8 d4 d2 ff ff       	call   1270 <get_input>
    3f9c:	89 45 fc             	mov    DWORD PTR [rbp-0x4],eax
    3f9f:	81 7d fc 53 01 00 00 	cmp    DWORD PTR [rbp-0x4],0x153
    3fa6:	75 05                	jne    3fad <main+0x2c96>
    3fa8:	e9 c1 49 00 00       	jmp    896e <main+0x7657>
    3fad:	48 8d 05 74 b0 00 00 	lea    rax,[rip+0xb074]        # f028 <_IO_stdin_used+0x28>
    3fb4:	48 89 c7             	mov    rdi,rax
    3fb7:	e8 04 d1 ff ff       	call   10c0 <puts@plt>
    3fbc:	bf 01 00 00 00       	mov    edi,0x1
    3fc1:	e8 6a d1 ff ff       	call   1130 <exit@plt>
    3fc6:	be 80 00 00 00       	mov    esi,0x80
    3fcb:	48 8d 05 47 b0 00 00 	lea    rax,[rip+0xb047]        # f019 <_IO_stdin_used+0x19>
    3fd2:	48 89 c7             	mov    rdi,rax
    3fd5:	b8 00 00 00 00       	mov    eax,0x0
    3fda:	e8 11 d1 ff ff       	call   10f0 <printf@plt>
    3fdf:	b8 00 00 00 00       	mov    eax,0x0
    3fe4:	e8 87 d2 ff ff       	call   1270 <get_input>
    3fe9:	89 45 fc             	mov    DWORD PTR [rbp-0x4],eax
    3fec:	81 7d fc 96 00 00 00 	cmp    DWORD PTR [rbp-0x4],0x96
    3ff3:	75 05                	jne    3ffa <main+0x2ce3>
    3ff5:	e9 66 07 00 00       	jmp    4760 <main+0x3449>
    3ffa:	81 7d fc e9 01 00 00 	cmp    DWORD PTR [rbp-0x4],0x1e9
    4001:	75 05                	jne    4008 <main+0x2cf1>
    4003:	e9 de 7d 00 00       	jmp    bde6 <main+0xaacf>
    4008:	48 8d 05 19 b0 00 00 	lea    rax,[rip+0xb019]        # f028 <_IO_stdin_used+0x28>
    400f:	48 89 c7             	mov    rdi,rax
    4012:	e8 a9 d0 ff ff       	call   10c0 <puts@plt>
    4017:	bf 01 00 00 00       	mov    edi,0x1
    401c:	e8 0f d1 ff ff       	call   1130 <exit@plt>
    4021:	be 81 00 00 00       	mov    esi,0x81
    4026:	48 8d 05 ec af 00 00 	lea    rax,[rip+0xafec]        # f019 <_IO_stdin_used+0x19>
    402d:	48 89 c7             	mov    rdi,rax
    4030:	b8 00 00 00 00       	mov    eax,0x0
    4035:	e8 b6 d0 ff ff       	call   10f0 <printf@plt>
    403a:	b8 00 00 00 00       	mov    eax,0x0
    403f:	e8 2c d2 ff ff       	call   1270 <get_input>
    4044:	89 45 fc             	mov    DWORD PTR [rbp-0x4],eax
    4047:	81 7d fc 37 01 00 00 	cmp    DWORD PTR [rbp-0x4],0x137
    404e:	75 05                	jne    4055 <main+0x2d3e>
    4050:	e9 18 3f 00 00       	jmp    7f6d <main+0x6c56>
    4055:	83 7d fc 4d          	cmp    DWORD PTR [rbp-0x4],0x4d
    4059:	75 05                	jne    4060 <main+0x2d49>
    405b:	e9 1f ed ff ff       	jmp    2d7f <main+0x1a68>
    4060:	48 8d 05 c1 af 00 00 	lea    rax,[rip+0xafc1]        # f028 <_IO_stdin_used+0x28>
    4067:	48 89 c7             	mov    rdi,rax
    406a:	e8 51 d0 ff ff       	call   10c0 <puts@plt>
    406f:	bf 01 00 00 00       	mov    edi,0x1
    4074:	e8 b7 d0 ff ff       	call   1130 <exit@plt>
    4079:	be 82 00 00 00       	mov    esi,0x82
    407e:	48 8d 05 94 af 00 00 	lea    rax,[rip+0xaf94]        # f019 <_IO_stdin_used+0x19>
    4085:	48 89 c7             	mov    rdi,rax
    4088:	b8 00 00 00 00       	mov    eax,0x0
    408d:	e8 5e d0 ff ff       	call   10f0 <printf@plt>
    4092:	b8 00 00 00 00       	mov    eax,0x0
    4097:	e8 d4 d1 ff ff       	call   1270 <get_input>
    409c:	89 45 fc             	mov    DWORD PTR [rbp-0x4],eax
    409f:	81 7d fc 33 02 00 00 	cmp    DWORD PTR [rbp-0x4],0x233
    40a6:	75 05                	jne    40ad <main+0x2d96>
    40a8:	e9 04 97 00 00       	jmp    d7b1 <main+0xc49a>
    40ad:	83 7d fc 7a          	cmp    DWORD PTR [rbp-0x4],0x7a
    40b1:	75 05                	jne    40b8 <main+0x2da1>
    40b3:	e9 f5 fc ff ff       	jmp    3dad <main+0x2a96>
    40b8:	81 7d fc 92 00 00 00 	cmp    DWORD PTR [rbp-0x4],0x92
    40bf:	0f 84 59 05 00 00    	je     461e <main+0x3307>
    40c5:	48 8d 05 5c af 00 00 	lea    rax,[rip+0xaf5c]        # f028 <_IO_stdin_used+0x28>
    40cc:	48 89 c7             	mov    rdi,rax
    40cf:	e8 ec cf ff ff       	call   10c0 <puts@plt>
    40d4:	bf 01 00 00 00       	mov    edi,0x1
    40d9:	e8 52 d0 ff ff       	call   1130 <exit@plt>
    40de:	be 83 00 00 00       	mov    esi,0x83
    40e3:	48 8d 05 2f af 00 00 	lea    rax,[rip+0xaf2f]        # f019 <_IO_stdin_used+0x19>
    40ea:	48 89 c7             	mov    rdi,rax
    40ed:	b8 00 00 00 00       	mov    eax,0x0
    40f2:	e8 f9 cf ff ff       	call   10f0 <printf@plt>
    40f7:	b8 00 00 00 00       	mov    eax,0x0
    40fc:	e8 6f d1 ff ff       	call   1270 <get_input>
    4101:	89 45 fc             	mov    DWORD PTR [rbp-0x4],eax
    4104:	81 7d fc be 01 00 00 	cmp    DWORD PTR [rbp-0x4],0x1be
    410b:	75 05                	jne    4112 <main+0x2dfb>
    410d:	e9 e2 6d 00 00       	jmp    aef4 <main+0x9bdd>
    4112:	81 7d fc a6 01 00 00 	cmp    DWORD PTR [rbp-0x4],0x1a6
    4119:	75 05                	jne    4120 <main+0x2e09>
    411b:	e9 ad 65 00 00       	jmp    a6cd <main+0x93b6>
    4120:	48 8d 05 01 af 00 00 	lea    rax,[rip+0xaf01]        # f028 <_IO_stdin_used+0x28>
    4127:	48 89 c7             	mov    rdi,rax
    412a:	e8 91 cf ff ff       	call   10c0 <puts@plt>
    412f:	bf 01 00 00 00       	mov    edi,0x1
    4134:	e8 f7 cf ff ff       	call   1130 <exit@plt>
    4139:	be 84 00 00 00       	mov    esi,0x84
    413e:	48 8d 05 d4 ae 00 00 	lea    rax,[rip+0xaed4]        # f019 <_IO_stdin_used+0x19>
    4145:	48 89 c7             	mov    rdi,rax
    4148:	b8 00 00 00 00       	mov    eax,0x0
    414d:	e8 9e cf ff ff       	call   10f0 <printf@plt>
    4152:	b8 00 00 00 00       	mov    eax,0x0
    4157:	e8 14 d1 ff ff       	call   1270 <get_input>
    415c:	89 45 fc             	mov    DWORD PTR [rbp-0x4],eax
    415f:	81 7d fc 45 02 00 00 	cmp    DWORD PTR [rbp-0x4],0x245
    4166:	75 05                	jne    416d <main+0x2e56>
    4168:	e9 c0 9c 00 00       	jmp    de2d <main+0xcb16>
    416d:	81 7d fc f5 01 00 00 	cmp    DWORD PTR [rbp-0x4],0x1f5
    4174:	0f 84 93 80 00 00    	je     c20d <main+0xaef6>
    417a:	48 8d 05 a7 ae 00 00 	lea    rax,[rip+0xaea7]        # f028 <_IO_stdin_used+0x28>
    4181:	48 89 c7             	mov    rdi,rax
    4184:	e8 37 cf ff ff       	call   10c0 <puts@plt>
    4189:	bf 01 00 00 00       	mov    edi,0x1
    418e:	e8 9d cf ff ff       	call   1130 <exit@plt>
    4193:	be 85 00 00 00       	mov    esi,0x85
    4198:	48 8d 05 7a ae 00 00 	lea    rax,[rip+0xae7a]        # f019 <_IO_stdin_used+0x19>
    419f:	48 89 c7             	mov    rdi,rax
    41a2:	b8 00 00 00 00       	mov    eax,0x0
    41a7:	e8 44 cf ff ff       	call   10f0 <printf@plt>
    41ac:	b8 00 00 00 00       	mov    eax,0x0
    41b1:	e8 ba d0 ff ff       	call   1270 <get_input>
    41b6:	89 45 fc             	mov    DWORD PTR [rbp-0x4],eax
    41b9:	83 7d fc 42          	cmp    DWORD PTR [rbp-0x4],0x42
    41bd:	75 05                	jne    41c4 <main+0x2ead>
    41bf:	e9 b6 e7 ff ff       	jmp    297a <main+0x1663>
    41c4:	81 7d fc 25 01 00 00 	cmp    DWORD PTR [rbp-0x4],0x125
    41cb:	75 05                	jne    41d2 <main+0x2ebb>
    41cd:	e9 3c 37 00 00       	jmp    790e <main+0x65f7>
    41d2:	48 8d 05 4f ae 00 00 	lea    rax,[rip+0xae4f]        # f028 <_IO_stdin_used+0x28>
    41d9:	48 89 c7             	mov    rdi,rax
    41dc:	e8 df ce ff ff       	call   10c0 <puts@plt>
    41e1:	bf 01 00 00 00       	mov    edi,0x1
    41e6:	e8 45 cf ff ff       	call   1130 <exit@plt>
    41eb:	90                   	nop
    41ec:	be 86 00 00 00       	mov    esi,0x86
    41f1:	48 8d 05 21 ae 00 00 	lea    rax,[rip+0xae21]        # f019 <_IO_stdin_used+0x19>
    41f8:	48 89 c7             	mov    rdi,rax
    41fb:	b8 00 00 00 00       	mov    eax,0x0
    4200:	e8 eb ce ff ff       	call   10f0 <printf@plt>
    4205:	b8 00 00 00 00       	mov    eax,0x0
    420a:	e8 61 d0 ff ff       	call   1270 <get_input>
    420f:	89 45 fc             	mov    DWORD PTR [rbp-0x4],eax
    4212:	83 7d fc 6d          	cmp    DWORD PTR [rbp-0x4],0x6d
    4216:	75 05                	jne    421d <main+0x2f06>
    4218:	e9 d6 f6 ff ff       	jmp    38f3 <main+0x25dc>
    421d:	48 8d 05 04 ae 00 00 	lea    rax,[rip+0xae04]        # f028 <_IO_stdin_used+0x28>
    4224:	48 89 c7             	mov    rdi,rax
    4227:	e8 94 ce ff ff       	call   10c0 <puts@plt>
    422c:	bf 01 00 00 00       	mov    edi,0x1
    4231:	e8 fa ce ff ff       	call   1130 <exit@plt>
    4236:	90                   	nop
    4237:	be 87 00 00 00       	mov    esi,0x87
    423c:	48 8d 05 d6 ad 00 00 	lea    rax,[rip+0xadd6]        # f019 <_IO_stdin_used+0x19>
    4243:	48 89 c7             	mov    rdi,rax
    4246:	b8 00 00 00 00       	mov    eax,0x0
    424b:	e8 a0 ce ff ff       	call   10f0 <printf@plt>
    4250:	b8 00 00 00 00       	mov    eax,0x0
    4255:	e8 16 d0 ff ff       	call   1270 <get_input>
    425a:	89 45 fc             	mov    DWORD PTR [rbp-0x4],eax
    425d:	81 7d fc 03 01 00 00 	cmp    DWORD PTR [rbp-0x4],0x103
    4264:	75 05                	jne    426b <main+0x2f54>
    4266:	e9 fb 2a 00 00       	jmp    6d66 <main+0x5a4f>
    426b:	48 8d 05 b6 ad 00 00 	lea    rax,[rip+0xadb6]        # f028 <_IO_stdin_used+0x28>
    4272:	48 89 c7             	mov    rdi,rax
    4275:	e8 46 ce ff ff       	call   10c0 <puts@plt>
    427a:	bf 01 00 00 00       	mov    edi,0x1
    427f:	e8 ac ce ff ff       	call   1130 <exit@plt>
    4284:	90                   	nop
    4285:	be 88 00 00 00       	mov    esi,0x88
    428a:	48 8d 05 88 ad 00 00 	lea    rax,[rip+0xad88]        # f019 <_IO_stdin_used+0x19>
    4291:	48 89 c7             	mov    rdi,rax
    4294:	b8 00 00 00 00       	mov    eax,0x0
    4299:	e8 52 ce ff ff       	call   10f0 <printf@plt>
    429e:	b8 00 00 00 00       	mov    eax,0x0
    42a3:	e8 c8 cf ff ff       	call   1270 <get_input>
    42a8:	89 45 fc             	mov    DWORD PTR [rbp-0x4],eax
    42ab:	83 7d fc 22          	cmp    DWORD PTR [rbp-0x4],0x22
    42af:	75 05                	jne    42b6 <main+0x2f9f>
    42b1:	e9 47 dc ff ff       	jmp    1efd <main+0xbe6>
    42b6:	48 8d 05 6b ad 00 00 	lea    rax,[rip+0xad6b]        # f028 <_IO_stdin_used+0x28>
    42bd:	48 89 c7             	mov    rdi,rax
    42c0:	e8 fb cd ff ff       	call   10c0 <puts@plt>
    42c5:	bf 01 00 00 00       	mov    edi,0x1
    42ca:	e8 61 ce ff ff       	call   1130 <exit@plt>
    42cf:	be 89 00 00 00       	mov    esi,0x89
    42d4:	48 8d 05 3e ad 00 00 	lea    rax,[rip+0xad3e]        # f019 <_IO_stdin_used+0x19>
    42db:	48 89 c7             	mov    rdi,rax
    42de:	b8 00 00 00 00       	mov    eax,0x0
    42e3:	e8 08 ce ff ff       	call   10f0 <printf@plt>
    42e8:	b8 00 00 00 00       	mov    eax,0x0
    42ed:	e8 7e cf ff ff       	call   1270 <get_input>
    42f2:	89 45 fc             	mov    DWORD PTR [rbp-0x4],eax
    42f5:	81 7d fc 2d 02 00 00 	cmp    DWORD PTR [rbp-0x4],0x22d
    42fc:	0f 84 78 92 00 00    	je     d57a <main+0xc263>
    4302:	81 7d fc ed 00 00 00 	cmp    DWORD PTR [rbp-0x4],0xed
    4309:	75 05                	jne    4310 <main+0x2ff9>
    430b:	e9 9c 22 00 00       	jmp    65ac <main+0x5295>
    4310:	48 8d 05 11 ad 00 00 	lea    rax,[rip+0xad11]        # f028 <_IO_stdin_used+0x28>
    4317:	48 89 c7             	mov    rdi,rax
    431a:	e8 a1 cd ff ff       	call   10c0 <puts@plt>
    431f:	bf 01 00 00 00       	mov    edi,0x1
    4324:	e8 07 ce ff ff       	call   1130 <exit@plt>
    4329:	be 8a 00 00 00       	mov    esi,0x8a
    432e:	48 8d 05 e4 ac 00 00 	lea    rax,[rip+0xace4]        # f019 <_IO_stdin_used+0x19>
    4335:	48 89 c7             	mov    rdi,rax
    4338:	b8 00 00 00 00       	mov    eax,0x0
    433d:	e8 ae cd ff ff       	call   10f0 <printf@plt>
    4342:	b8 00 00 00 00       	mov    eax,0x0
    4347:	e8 24 cf ff ff       	call   1270 <get_input>
    434c:	89 45 fc             	mov    DWORD PTR [rbp-0x4],eax
    434f:	81 7d fc 7e 01 00 00 	cmp    DWORD PTR [rbp-0x4],0x17e
    4356:	75 05                	jne    435d <main+0x3046>
    4358:	e9 ea 54 00 00       	jmp    9847 <main+0x8530>
    435d:	81 7d fc 76 01 00 00 	cmp    DWORD PTR [rbp-0x4],0x176
    4364:	75 05                	jne    436b <main+0x3054>
    4366:	e9 2a 52 00 00       	jmp    9595 <main+0x827e>
    436b:	48 8d 05 b6 ac 00 00 	lea    rax,[rip+0xacb6]        # f028 <_IO_stdin_used+0x28>
    4372:	48 89 c7             	mov    rdi,rax
    4375:	e8 46 cd ff ff       	call   10c0 <puts@plt>
    437a:	bf 01 00 00 00       	mov    edi,0x1
    437f:	e8 ac cd ff ff       	call   1130 <exit@plt>
    4384:	be 8b 00 00 00       	mov    esi,0x8b
    4389:	48 8d 05 89 ac 00 00 	lea    rax,[rip+0xac89]        # f019 <_IO_stdin_used+0x19>
    4390:	48 89 c7             	mov    rdi,rax
    4393:	b8 00 00 00 00       	mov    eax,0x0
    4398:	e8 53 cd ff ff       	call   10f0 <printf@plt>
    439d:	b8 00 00 00 00       	mov    eax,0x0
    43a2:	e8 c9 ce ff ff       	call   1270 <get_input>
    43a7:	89 45 fc             	mov    DWORD PTR [rbp-0x4],eax
    43aa:	83 7d fc 6f          	cmp    DWORD PTR [rbp-0x4],0x6f
    43ae:	75 05                	jne    43b5 <main+0x309e>
    43b0:	e9 ef f5 ff ff       	jmp    39a4 <main+0x268d>
    43b5:	81 7d fc 62 01 00 00 	cmp    DWORD PTR [rbp-0x4],0x162
    43bc:	0f 84 df 4a 00 00    	je     8ea1 <main+0x7b8a>
    43c2:	48 8d 05 5f ac 00 00 	lea    rax,[rip+0xac5f]        # f028 <_IO_stdin_used+0x28>
    43c9:	48 89 c7             	mov    rdi,rax
    43cc:	e8 ef cc ff ff       	call   10c0 <puts@plt>
    43d1:	bf 01 00 00 00       	mov    edi,0x1
    43d6:	e8 55 cd ff ff       	call   1130 <exit@plt>
    43db:	be 8c 00 00 00       	mov    esi,0x8c
    43e0:	48 8d 05 32 ac 00 00 	lea    rax,[rip+0xac32]        # f019 <_IO_stdin_used+0x19>
    43e7:	48 89 c7             	mov    rdi,rax
    43ea:	b8 00 00 00 00       	mov    eax,0x0
    43ef:	e8 fc cc ff ff       	call   10f0 <printf@plt>
    43f4:	b8 00 00 00 00       	mov    eax,0x0
    43f9:	e8 72 ce ff ff       	call   1270 <get_input>
    43fe:	89 45 fc             	mov    DWORD PTR [rbp-0x4],eax
    4401:	83 7d fc 34          	cmp    DWORD PTR [rbp-0x4],0x34
    4405:	75 05                	jne    440c <main+0x30f5>
    4407:	e9 c0 e0 ff ff       	jmp    24cc <main+0x11b5>
    440c:	81 7d fc c8 00 00 00 	cmp    DWORD PTR [rbp-0x4],0xc8
    4413:	75 05                	jne    441a <main+0x3103>
    4415:	e9 c3 14 00 00       	jmp    58dd <main+0x45c6>
    441a:	48 8d 05 07 ac 00 00 	lea    rax,[rip+0xac07]        # f028 <_IO_stdin_used+0x28>
    4421:	48 89 c7             	mov    rdi,rax
    4424:	e8 97 cc ff ff       	call   10c0 <puts@plt>
    4429:	bf 01 00 00 00       	mov    edi,0x1
    442e:	e8 fd cc ff ff       	call   1130 <exit@plt>
    4433:	be 8d 00 00 00       	mov    esi,0x8d
    4438:	48 8d 05 da ab 00 00 	lea    rax,[rip+0xabda]        # f019 <_IO_stdin_used+0x19>
    443f:	48 89 c7             	mov    rdi,rax
    4442:	b8 00 00 00 00       	mov    eax,0x0
    4447:	e8 a4 cc ff ff       	call   10f0 <printf@plt>
    444c:	b8 00 00 00 00       	mov    eax,0x0
    4451:	e8 1a ce ff ff       	call   1270 <get_input>
    4456:	89 45 fc             	mov    DWORD PTR [rbp-0x4],eax
    4459:	83 7d fc 39          	cmp    DWORD PTR [rbp-0x4],0x39
    445d:	0f 84 11 e2 ff ff    	je     2674 <main+0x135d>
    4463:	81 7d fc d2 00 00 00 	cmp    DWORD PTR [rbp-0x4],0xd2
    446a:	75 05                	jne    4471 <main+0x315a>
    446c:	e9 e1 17 00 00       	jmp    5c52 <main+0x493b>
    4471:	48 8d 05 b0 ab 00 00 	lea    rax,[rip+0xabb0]        # f028 <_IO_stdin_used+0x28>
    4478:	48 89 c7             	mov    rdi,rax
    447b:	e8 40 cc ff ff       	call   10c0 <puts@plt>
    4480:	bf 01 00 00 00       	mov    edi,0x1
    4485:	e8 a6 cc ff ff       	call   1130 <exit@plt>
    448a:	be 8e 00 00 00       	mov    esi,0x8e
    448f:	48 8d 05 83 ab 00 00 	lea    rax,[rip+0xab83]        # f019 <_IO_stdin_used+0x19>
    4496:	48 89 c7             	mov    rdi,rax
    4499:	b8 00 00 00 00       	mov    eax,0x0
    449e:	e8 4d cc ff ff       	call   10f0 <printf@plt>
    44a3:	b8 00 00 00 00       	mov    eax,0x0
    44a8:	e8 c3 cd ff ff       	call   1270 <get_input>
    44ad:	89 45 fc             	mov    DWORD PTR [rbp-0x4],eax
    44b0:	81 7d fc 61 01 00 00 	cmp    DWORD PTR [rbp-0x4],0x161
    44b7:	75 05                	jne    44be <main+0x31a7>
    44b9:	e9 7b 49 00 00       	jmp    8e39 <main+0x7b22>
    44be:	81 7d fc da 00 00 00 	cmp    DWORD PTR [rbp-0x4],0xda
    44c5:	0f 84 4e 1a 00 00    	je     5f19 <main+0x4c02>
    44cb:	81 7d fc 64 01 00 00 	cmp    DWORD PTR [rbp-0x4],0x164
    44d2:	75 05                	jne    44d9 <main+0x31c2>
    44d4:	e9 64 4a 00 00       	jmp    8f3d <main+0x7c26>
    44d9:	81 7d fc 2b 02 00 00 	cmp    DWORD PTR [rbp-0x4],0x22b
    44e0:	75 05                	jne    44e7 <main+0x31d0>
    44e2:	e9 be 8f 00 00       	jmp    d4a5 <main+0xc18e>
    44e7:	48 8d 05 3a ab 00 00 	lea    rax,[rip+0xab3a]        # f028 <_IO_stdin_used+0x28>
    44ee:	48 89 c7             	mov    rdi,rax
    44f1:	e8 ca cb ff ff       	call   10c0 <puts@plt>
    44f6:	bf 01 00 00 00       	mov    edi,0x1
    44fb:	e8 30 cc ff ff       	call   1130 <exit@plt>
    4500:	be 8f 00 00 00       	mov    esi,0x8f
    4505:	48 8d 05 0d ab 00 00 	lea    rax,[rip+0xab0d]        # f019 <_IO_stdin_used+0x19>
    450c:	48 89 c7             	mov    rdi,rax
    450f:	b8 00 00 00 00       	mov    eax,0x0
    4514:	e8 d7 cb ff ff       	call   10f0 <printf@plt>
    4519:	b8 00 00 00 00       	mov    eax,0x0
    451e:	e8 4d cd ff ff       	call   1270 <get_input>
    4523:	89 45 fc             	mov    DWORD PTR [rbp-0x4],eax
    4526:	81 7d fc bb 01 00 00 	cmp    DWORD PTR [rbp-0x4],0x1bb
    452d:	0f 84 c4 68 00 00    	je     adf7 <main+0x9ae0>
    4533:	81 7d fc a1 00 00 00 	cmp    DWORD PTR [rbp-0x4],0xa1
    453a:	75 05                	jne    4541 <main+0x322a>
    453c:	e9 16 06 00 00       	jmp    4b57 <main+0x3840>
    4541:	81 7d fc ac 01 00 00 	cmp    DWORD PTR [rbp-0x4],0x1ac
    4548:	0f 84 b4 63 00 00    	je     a902 <main+0x95eb>
    454e:	81 7d fc e3 01 00 00 	cmp    DWORD PTR [rbp-0x4],0x1e3
    4555:	75 05                	jne    455c <main+0x3245>
    4557:	e9 7c 76 00 00       	jmp    bbd8 <main+0xa8c1>
    455c:	48 8d 05 c5 aa 00 00 	lea    rax,[rip+0xaac5]        # f028 <_IO_stdin_used+0x28>
    4563:	48 89 c7             	mov    rdi,rax
    4566:	e8 55 cb ff ff       	call   10c0 <puts@plt>
    456b:	bf 01 00 00 00       	mov    edi,0x1
    4570:	e8 bb cb ff ff       	call   1130 <exit@plt>
    4575:	be 90 00 00 00       	mov    esi,0x90
    457a:	48 8d 05 98 aa 00 00 	lea    rax,[rip+0xaa98]        # f019 <_IO_stdin_used+0x19>
    4581:	48 89 c7             	mov    rdi,rax
    4584:	b8 00 00 00 00       	mov    eax,0x0
    4589:	e8 62 cb ff ff       	call   10f0 <printf@plt>
    458e:	b8 00 00 00 00       	mov    eax,0x0
    4593:	e8 d8 cc ff ff       	call   1270 <get_input>
    4598:	89 45 fc             	mov    DWORD PTR [rbp-0x4],eax
    459b:	81 7d fc 22 01 00 00 	cmp    DWORD PTR [rbp-0x4],0x122
    45a2:	75 05                	jne    45a9 <main+0x3292>
    45a4:	e9 75 32 00 00       	jmp    781e <main+0x6507>
    45a9:	81 7d fc 95 00 00 00 	cmp    DWORD PTR [rbp-0x4],0x95
    45b0:	75 05                	jne    45b7 <main+0x32a0>
    45b2:	e9 4e 01 00 00       	jmp    4705 <main+0x33ee>
    45b7:	48 8d 05 6a aa 00 00 	lea    rax,[rip+0xaa6a]        # f028 <_IO_stdin_used+0x28>
    45be:	48 89 c7             	mov    rdi,rax
    45c1:	e8 fa ca ff ff       	call   10c0 <puts@plt>
    45c6:	bf 01 00 00 00       	mov    edi,0x1
    45cb:	e8 60 cb ff ff       	call   1130 <exit@plt>
    45d0:	90                   	nop
    45d1:	be 91 00 00 00       	mov    esi,0x91
    45d6:	48 8d 05 3c aa 00 00 	lea    rax,[rip+0xaa3c]        # f019 <_IO_stdin_used+0x19>
    45dd:	48 89 c7             	mov    rdi,rax
    45e0:	b8 00 00 00 00       	mov    eax,0x0
    45e5:	e8 06 cb ff ff       	call   10f0 <printf@plt>
    45ea:	b8 00 00 00 00       	mov    eax,0x0
    45ef:	e8 7c cc ff ff       	call   1270 <get_input>
    45f4:	89 45 fc             	mov    DWORD PTR [rbp-0x4],eax
    45f7:	81 7d fc 5d 01 00 00 	cmp    DWORD PTR [rbp-0x4],0x15d
    45fe:	75 05                	jne    4605 <main+0x32ee>
    4600:	e9 dc 46 00 00       	jmp    8ce1 <main+0x79ca>
    4605:	48 8d 05 1c aa 00 00 	lea    rax,[rip+0xaa1c]        # f028 <_IO_stdin_used+0x28>
    460c:	48 89 c7             	mov    rdi,rax
    460f:	e8 ac ca ff ff       	call   10c0 <puts@plt>
    4614:	bf 01 00 00 00       	mov    edi,0x1
    4619:	e8 12 cb ff ff       	call   1130 <exit@plt>
    461e:	90                   	nop
    461f:	be 92 00 00 00       	mov    esi,0x92
    4624:	48 8d 05 ee a9 00 00 	lea    rax,[rip+0xa9ee]        # f019 <_IO_stdin_used+0x19>
    462b:	48 89 c7             	mov    rdi,rax
    462e:	b8 00 00 00 00       	mov    eax,0x0
    4633:	e8 b8 ca ff ff       	call   10f0 <printf@plt>
    4638:	b8 00 00 00 00       	mov    eax,0x0
    463d:	e8 2e cc ff ff       	call   1270 <get_input>
    4642:	89 45 fc             	mov    DWORD PTR [rbp-0x4],eax
    4645:	81 7d fc 82 00 00 00 	cmp    DWORD PTR [rbp-0x4],0x82
    464c:	75 05                	jne    4653 <main+0x333c>
    464e:	e9 26 fa ff ff       	jmp    4079 <main+0x2d62>
    4653:	48 8d 05 ce a9 00 00 	lea    rax,[rip+0xa9ce]        # f028 <_IO_stdin_used+0x28>
    465a:	48 89 c7             	mov    rdi,rax
    465d:	e8 5e ca ff ff       	call   10c0 <puts@plt>
    4662:	bf 01 00 00 00       	mov    edi,0x1
    4667:	e8 c4 ca ff ff       	call   1130 <exit@plt>
    466c:	90                   	nop
    466d:	be 93 00 00 00       	mov    esi,0x93
    4672:	48 8d 05 a0 a9 00 00 	lea    rax,[rip+0xa9a0]        # f019 <_IO_stdin_used+0x19>
    4679:	48 89 c7             	mov    rdi,rax
    467c:	b8 00 00 00 00       	mov    eax,0x0
    4681:	e8 6a ca ff ff       	call   10f0 <printf@plt>
    4686:	b8 00 00 00 00       	mov    eax,0x0
    468b:	e8 e0 cb ff ff       	call   1270 <get_input>
    4690:	89 45 fc             	mov    DWORD PTR [rbp-0x4],eax
    4693:	81 7d fc 80 01 00 00 	cmp    DWORD PTR [rbp-0x4],0x180
    469a:	75 05                	jne    46a1 <main+0x338a>
    469c:	e9 74 52 00 00       	jmp    9915 <main+0x85fe>
    46a1:	48 8d 05 80 a9 00 00 	lea    rax,[rip+0xa980]        # f028 <_IO_stdin_used+0x28>
    46a8:	48 89 c7             	mov    rdi,rax
    46ab:	e8 10 ca ff ff       	call   10c0 <puts@plt>
    46b0:	bf 01 00 00 00       	mov    edi,0x1
    46b5:	e8 76 ca ff ff       	call   1130 <exit@plt>
    46ba:	90                   	nop
    46bb:	be 94 00 00 00       	mov    esi,0x94
    46c0:	48 8d 05 52 a9 00 00 	lea    rax,[rip+0xa952]        # f019 <_IO_stdin_used+0x19>
    46c7:	48 89 c7             	mov    rdi,rax
    46ca:	b8 00 00 00 00       	mov    eax,0x0
    46cf:	e8 1c ca ff ff       	call   10f0 <printf@plt>
    46d4:	b8 00 00 00 00       	mov    eax,0x0
    46d9:	e8 92 cb ff ff       	call   1270 <get_input>
    46de:	89 45 fc             	mov    DWORD PTR [rbp-0x4],eax
    46e1:	83 7d fc 74          	cmp    DWORD PTR [rbp-0x4],0x74
    46e5:	75 05                	jne    46ec <main+0x33d5>
    46e7:	e9 8e f4 ff ff       	jmp    3b7a <main+0x2863>
    46ec:	48 8d 05 35 a9 00 00 	lea    rax,[rip+0xa935]        # f028 <_IO_stdin_used+0x28>
    46f3:	48 89 c7             	mov    rdi,rax
    46f6:	e8 c5 c9 ff ff       	call   10c0 <puts@plt>
    46fb:	bf 01 00 00 00       	mov    edi,0x1
    4700:	e8 2b ca ff ff       	call   1130 <exit@plt>
    4705:	be 95 00 00 00       	mov    esi,0x95
    470a:	48 8d 05 08 a9 00 00 	lea    rax,[rip+0xa908]        # f019 <_IO_stdin_used+0x19>
    4711:	48 89 c7             	mov    rdi,rax
    4714:	b8 00 00 00 00       	mov    eax,0x0
    4719:	e8 d2 c9 ff ff       	call   10f0 <printf@plt>
    471e:	b8 00 00 00 00       	mov    eax,0x0
    4723:	e8 48 cb ff ff       	call   1270 <get_input>
    4728:	89 45 fc             	mov    DWORD PTR [rbp-0x4],eax
    472b:	81 7d fc 90 00 00 00 	cmp    DWORD PTR [rbp-0x4],0x90
    4732:	75 05                	jne    4739 <main+0x3422>
    4734:	e9 3c fe ff ff       	jmp    4575 <main+0x325e>
    4739:	81 7d fc c0 01 00 00 	cmp    DWORD PTR [rbp-0x4],0x1c0
    4740:	75 05                	jne    4747 <main+0x3430>
    4742:	e9 60 68 00 00       	jmp    afa7 <main+0x9c90>
    4747:	48 8d 05 da a8 00 00 	lea    rax,[rip+0xa8da]        # f028 <_IO_stdin_used+0x28>
    474e:	48 89 c7             	mov    rdi,rax
    4751:	e8 6a c9 ff ff       	call   10c0 <puts@plt>
    4756:	bf 01 00 00 00       	mov    edi,0x1
    475b:	e8 d0 c9 ff ff       	call   1130 <exit@plt>
    4760:	be 96 00 00 00       	mov    esi,0x96
    4765:	48 8d 05 ad a8 00 00 	lea    rax,[rip+0xa8ad]        # f019 <_IO_stdin_used+0x19>
    476c:	48 89 c7             	mov    rdi,rax
    476f:	b8 00 00 00 00       	mov    eax,0x0
    4774:	e8 77 c9 ff ff       	call   10f0 <printf@plt>
    4779:	b8 00 00 00 00       	mov    eax,0x0
    477e:	e8 ed ca ff ff       	call   1270 <get_input>
    4783:	89 45 fc             	mov    DWORD PTR [rbp-0x4],eax
    4786:	83 7d fc 3a          	cmp    DWORD PTR [rbp-0x4],0x3a
    478a:	75 05                	jne    4791 <main+0x347a>
    478c:	e9 31 df ff ff       	jmp    26c2 <main+0x13ab>
    4791:	81 7d fc ee 00 00 00 	cmp    DWORD PTR [rbp-0x4],0xee
    4798:	75 05                	jne    479f <main+0x3488>
    479a:	e9 68 1e 00 00       	jmp    6607 <main+0x52f0>
    479f:	81 7d fc 80 00 00 00 	cmp    DWORD PTR [rbp-0x4],0x80
    47a6:	75 05                	jne    47ad <main+0x3496>
    47a8:	e9 19 f8 ff ff       	jmp    3fc6 <main+0x2caf>
    47ad:	48 8d 05 74 a8 00 00 	lea    rax,[rip+0xa874]        # f028 <_IO_stdin_used+0x28>
    47b4:	48 89 c7             	mov    rdi,rax
    47b7:	e8 04 c9 ff ff       	call   10c0 <puts@plt>
    47bc:	bf 01 00 00 00       	mov    edi,0x1
    47c1:	e8 6a c9 ff ff       	call   1130 <exit@plt>
    47c6:	be 97 00 00 00       	mov    esi,0x97
    47cb:	48 8d 05 47 a8 00 00 	lea    rax,[rip+0xa847]        # f019 <_IO_stdin_used+0x19>
    47d2:	48 89 c7             	mov    rdi,rax
    47d5:	b8 00 00 00 00       	mov    eax,0x0
    47da:	e8 11 c9 ff ff       	call   10f0 <printf@plt>
    47df:	b8 00 00 00 00       	mov    eax,0x0
    47e4:	e8 87 ca ff ff       	call   1270 <get_input>
    47e9:	89 45 fc             	mov    DWORD PTR [rbp-0x4],eax
    47ec:	81 7d fc 22 02 00 00 	cmp    DWORD PTR [rbp-0x4],0x222
    47f3:	75 05                	jne    47fa <main+0x34e3>
    47f5:	e9 73 89 00 00       	jmp    d16d <main+0xbe56>
    47fa:	81 7d fc 83 01 00 00 	cmp    DWORD PTR [rbp-0x4],0x183
    4801:	75 05                	jne    4808 <main+0x34f1>
    4803:	e9 1b 52 00 00       	jmp    9a23 <main+0x870c>
    4808:	48 8d 05 19 a8 00 00 	lea    rax,[rip+0xa819]        # f028 <_IO_stdin_used+0x28>
    480f:	48 89 c7             	mov    rdi,rax
    4812:	e8 a9 c8 ff ff       	call   10c0 <puts@plt>
    4817:	bf 01 00 00 00       	mov    edi,0x1
    481c:	e8 0f c9 ff ff       	call   1130 <exit@plt>
    4821:	be 98 00 00 00       	mov    esi,0x98
    4826:	48 8d 05 ec a7 00 00 	lea    rax,[rip+0xa7ec]        # f019 <_IO_stdin_used+0x19>
    482d:	48 89 c7             	mov    rdi,rax
    4830:	b8 00 00 00 00       	mov    eax,0x0
    4835:	e8 b6 c8 ff ff       	call   10f0 <printf@plt>
    483a:	b8 00 00 00 00       	mov    eax,0x0
    483f:	e8 2c ca ff ff       	call   1270 <get_input>
    4844:	89 45 fc             	mov    DWORD PTR [rbp-0x4],eax
    4847:	81 7d fc 26 01 00 00 	cmp    DWORD PTR [rbp-0x4],0x126
    484e:	75 05                	jne    4855 <main+0x353e>
    4850:	e9 20 31 00 00       	jmp    7975 <main+0x665e>
    4855:	81 7d fc 41 01 00 00 	cmp    DWORD PTR [rbp-0x4],0x141
    485c:	75 05                	jne    4863 <main+0x354c>
    485e:	e9 a5 3a 00 00       	jmp    8308 <main+0x6ff1>
    4863:	81 7d fc bc 00 00 00 	cmp    DWORD PTR [rbp-0x4],0xbc
    486a:	75 05                	jne    4871 <main+0x355a>
    486c:	e9 38 0c 00 00       	jmp    54a9 <main+0x4192>
    4871:	48 8d 05 b0 a7 00 00 	lea    rax,[rip+0xa7b0]        # f028 <_IO_stdin_used+0x28>
    4878:	48 89 c7             	mov    rdi,rax
    487b:	e8 40 c8 ff ff       	call   10c0 <puts@plt>
    4880:	bf 01 00 00 00       	mov    edi,0x1
    4885:	e8 a6 c8 ff ff       	call   1130 <exit@plt>
    488a:	be 99 00 00 00       	mov    esi,0x99
    488f:	48 8d 05 83 a7 00 00 	lea    rax,[rip+0xa783]        # f019 <_IO_stdin_used+0x19>
    4896:	48 89 c7             	mov    rdi,rax
    4899:	b8 00 00 00 00       	mov    eax,0x0
    489e:	e8 4d c8 ff ff       	call   10f0 <printf@plt>
    48a3:	b8 00 00 00 00       	mov    eax,0x0
    48a8:	e8 c3 c9 ff ff       	call   1270 <get_input>
    48ad:	89 45 fc             	mov    DWORD PTR [rbp-0x4],eax
    48b0:	81 7d fc e7 01 00 00 	cmp    DWORD PTR [rbp-0x4],0x1e7
    48b7:	75 05                	jne    48be <main+0x35a7>
    48b9:	e9 76 74 00 00       	jmp    bd34 <main+0xaa1d>
    48be:	81 7d fc 55 01 00 00 	cmp    DWORD PTR [rbp-0x4],0x155
    48c5:	0f 84 6f 41 00 00    	je     8a3a <main+0x7723>
    48cb:	81 7d fc 60 02 00 00 	cmp    DWORD PTR [rbp-0x4],0x260
    48d2:	75 05                	jne    48d9 <main+0x35c2>
    48d4:	e9 42 9f 00 00       	jmp    e81b <main+0xd504>
    48d9:	48 8d 05 48 a7 00 00 	lea    rax,[rip+0xa748]        # f028 <_IO_stdin_used+0x28>
    48e0:	48 89 c7             	mov    rdi,rax
    48e3:	e8 d8 c7 ff ff       	call   10c0 <puts@plt>
    48e8:	bf 01 00 00 00       	mov    edi,0x1
    48ed:	e8 3e c8 ff ff       	call   1130 <exit@plt>
    48f2:	be 9a 00 00 00       	mov    esi,0x9a
    48f7:	48 8d 05 1b a7 00 00 	lea    rax,[rip+0xa71b]        # f019 <_IO_stdin_used+0x19>
    48fe:	48 89 c7             	mov    rdi,rax
    4901:	b8 00 00 00 00       	mov    eax,0x0
    4906:	e8 e5 c7 ff ff       	call   10f0 <printf@plt>
    490b:	b8 00 00 00 00       	mov    eax,0x0
    4910:	e8 5b c9 ff ff       	call   1270 <get_input>
    4915:	89 45 fc             	mov    DWORD PTR [rbp-0x4],eax
    4918:	81 7d fc a5 01 00 00 	cmp    DWORD PTR [rbp-0x4],0x1a5
    491f:	75 05                	jne    4926 <main+0x360f>
    4921:	e9 3e 5d 00 00       	jmp    a664 <main+0x934d>
    4926:	83 7d fc 53          	cmp    DWORD PTR [rbp-0x4],0x53
    492a:	75 05                	jne    4931 <main+0x361a>
    492c:	e9 85 e6 ff ff       	jmp    2fb6 <main+0x1c9f>
    4931:	81 7d fc d9 00 00 00 	cmp    DWORD PTR [rbp-0x4],0xd9
    4938:	75 05                	jne    493f <main+0x3628>
    493a:	e9 72 15 00 00       	jmp    5eb1 <main+0x4b9a>
    493f:	48 8d 05 e2 a6 00 00 	lea    rax,[rip+0xa6e2]        # f028 <_IO_stdin_used+0x28>
    4946:	48 89 c7             	mov    rdi,rax
    4949:	e8 72 c7 ff ff       	call   10c0 <puts@plt>
    494e:	bf 01 00 00 00       	mov    edi,0x1
    4953:	e8 d8 c7 ff ff       	call   1130 <exit@plt>
    4958:	90                   	nop
    4959:	be 9b 00 00 00       	mov    esi,0x9b
    495e:	48 8d 05 b4 a6 00 00 	lea    rax,[rip+0xa6b4]        # f019 <_IO_stdin_used+0x19>
    4965:	48 89 c7             	mov    rdi,rax
    4968:	b8 00 00 00 00       	mov    eax,0x0
    496d:	e8 7e c7 ff ff       	call   10f0 <printf@plt>
    4972:	b8 00 00 00 00       	mov    eax,0x0
    4977:	e8 f4 c8 ff ff       	call   1270 <get_input>
    497c:	89 45 fc             	mov    DWORD PTR [rbp-0x4],eax
    497f:	83 7d fc 44          	cmp    DWORD PTR [rbp-0x4],0x44
    4983:	75 05                	jne    498a <main+0x3673>
    4985:	e9 b3 e0 ff ff       	jmp    2a3d <main+0x1726>
    498a:	48 8d 05 97 a6 00 00 	lea    rax,[rip+0xa697]        # f028 <_IO_stdin_used+0x28>
    4991:	48 89 c7             	mov    rdi,rax
    4994:	e8 27 c7 ff ff       	call   10c0 <puts@plt>
    4999:	bf 01 00 00 00       	mov    edi,0x1
    499e:	e8 8d c7 ff ff       	call   1130 <exit@plt>
    49a3:	90                   	nop
    49a4:	be 9c 00 00 00       	mov    esi,0x9c
    49a9:	48 8d 05 69 a6 00 00 	lea    rax,[rip+0xa669]        # f019 <_IO_stdin_used+0x19>
    49b0:	48 89 c7             	mov    rdi,rax
    49b3:	b8 00 00 00 00       	mov    eax,0x0
    49b8:	e8 33 c7 ff ff       	call   10f0 <printf@plt>
    49bd:	b8 00 00 00 00       	mov    eax,0x0
    49c2:	e8 a9 c8 ff ff       	call   1270 <get_input>
    49c7:	89 45 fc             	mov    DWORD PTR [rbp-0x4],eax
    49ca:	81 7d fc 54 01 00 00 	cmp    DWORD PTR [rbp-0x4],0x154
    49d1:	75 05                	jne    49d8 <main+0x36c1>
    49d3:	e9 fb 3f 00 00       	jmp    89d3 <main+0x76bc>
    49d8:	48 8d 05 49 a6 00 00 	lea    rax,[rip+0xa649]        # f028 <_IO_stdin_used+0x28>
    49df:	48 89 c7             	mov    rdi,rax
    49e2:	e8 d9 c6 ff ff       	call   10c0 <puts@plt>
    49e7:	bf 01 00 00 00       	mov    edi,0x1
    49ec:	e8 3f c7 ff ff       	call   1130 <exit@plt>
    49f1:	be 9d 00 00 00       	mov    esi,0x9d
    49f6:	48 8d 05 1c a6 00 00 	lea    rax,[rip+0xa61c]        # f019 <_IO_stdin_used+0x19>
    49fd:	48 89 c7             	mov    rdi,rax
    4a00:	b8 00 00 00 00       	mov    eax,0x0
    4a05:	e8 e6 c6 ff ff       	call   10f0 <printf@plt>
    4a0a:	b8 00 00 00 00       	mov    eax,0x0
    4a0f:	e8 5c c8 ff ff       	call   1270 <get_input>
    4a14:	89 45 fc             	mov    DWORD PTR [rbp-0x4],eax
    4a17:	81 7d fc d1 01 00 00 	cmp    DWORD PTR [rbp-0x4],0x1d1
    4a1e:	75 05                	jne    4a25 <main+0x370e>
    4a20:	e9 6c 6b 00 00       	jmp    b591 <main+0xa27a>
    4a25:	81 7d fc c0 01 00 00 	cmp    DWORD PTR [rbp-0x4],0x1c0
    4a2c:	75 05                	jne    4a33 <main+0x371c>
    4a2e:	e9 74 65 00 00       	jmp    afa7 <main+0x9c90>
    4a33:	48 8d 05 ee a5 00 00 	lea    rax,[rip+0xa5ee]        # f028 <_IO_stdin_used+0x28>
    4a3a:	48 89 c7             	mov    rdi,rax
    4a3d:	e8 7e c6 ff ff       	call   10c0 <puts@plt>
    4a42:	bf 01 00 00 00       	mov    edi,0x1
    4a47:	e8 e4 c6 ff ff       	call   1130 <exit@plt>
    4a4c:	be 9e 00 00 00       	mov    esi,0x9e
    4a51:	48 8d 05 c1 a5 00 00 	lea    rax,[rip+0xa5c1]        # f019 <_IO_stdin_used+0x19>
    4a58:	48 89 c7             	mov    rdi,rax
    4a5b:	b8 00 00 00 00       	mov    eax,0x0
    4a60:	e8 8b c6 ff ff       	call   10f0 <printf@plt>
    4a65:	b8 00 00 00 00       	mov    eax,0x0
    4a6a:	e8 01 c8 ff ff       	call   1270 <get_input>
    4a6f:	89 45 fc             	mov    DWORD PTR [rbp-0x4],eax
    4a72:	81 7d fc 0a 01 00 00 	cmp    DWORD PTR [rbp-0x4],0x10a
    4a79:	75 05                	jne    4a80 <main+0x3769>
    4a7b:	e9 42 25 00 00       	jmp    6fc2 <main+0x5cab>
    4a80:	83 7d fc 28          	cmp    DWORD PTR [rbp-0x4],0x28
    4a84:	75 05                	jne    4a8b <main+0x3774>
    4a86:	e9 66 d6 ff ff       	jmp    20f1 <main+0xdda>
    4a8b:	48 8d 05 96 a5 00 00 	lea    rax,[rip+0xa596]        # f028 <_IO_stdin_used+0x28>
    4a92:	48 89 c7             	mov    rdi,rax
    4a95:	e8 26 c6 ff ff       	call   10c0 <puts@plt>
    4a9a:	bf 01 00 00 00       	mov    edi,0x1
    4a9f:	e8 8c c6 ff ff       	call   1130 <exit@plt>
    4aa4:	be 9f 00 00 00       	mov    esi,0x9f
    4aa9:	48 8d 05 69 a5 00 00 	lea    rax,[rip+0xa569]        # f019 <_IO_stdin_used+0x19>
    4ab0:	48 89 c7             	mov    rdi,rax
    4ab3:	b8 00 00 00 00       	mov    eax,0x0
    4ab8:	e8 33 c6 ff ff       	call   10f0 <printf@plt>
    4abd:	b8 00 00 00 00       	mov    eax,0x0
    4ac2:	e8 a9 c7 ff ff       	call   1270 <get_input>
    4ac7:	89 45 fc             	mov    DWORD PTR [rbp-0x4],eax
    4aca:	81 7d fc db 01 00 00 	cmp    DWORD PTR [rbp-0x4],0x1db
    4ad1:	75 05                	jne    4ad8 <main+0x37c1>
    4ad3:	e9 45 6e 00 00       	jmp    b91d <main+0xa606>
    4ad8:	81 7d fc 37 02 00 00 	cmp    DWORD PTR [rbp-0x4],0x237
    4adf:	75 05                	jne    4ae6 <main+0x37cf>
    4ae1:	e9 46 8e 00 00       	jmp    d92c <main+0xc615>
    4ae6:	48 8d 05 3b a5 00 00 	lea    rax,[rip+0xa53b]        # f028 <_IO_stdin_used+0x28>
    4aed:	48 89 c7             	mov    rdi,rax
    4af0:	e8 cb c5 ff ff       	call   10c0 <puts@plt>
    4af5:	bf 01 00 00 00       	mov    edi,0x1
    4afa:	e8 31 c6 ff ff       	call   1130 <exit@plt>
    4aff:	be a0 00 00 00       	mov    esi,0xa0
    4b04:	48 8d 05 0e a5 00 00 	lea    rax,[rip+0xa50e]        # f019 <_IO_stdin_used+0x19>
    4b0b:	48 89 c7             	mov    rdi,rax
    4b0e:	b8 00 00 00 00       	mov    eax,0x0
    4b13:	e8 d8 c5 ff ff       	call   10f0 <printf@plt>
    4b18:	b8 00 00 00 00       	mov    eax,0x0
    4b1d:	e8 4e c7 ff ff       	call   1270 <get_input>
    4b22:	89 45 fc             	mov    DWORD PTR [rbp-0x4],eax
    4b25:	83 7d fc 19          	cmp    DWORD PTR [rbp-0x4],0x19
    4b29:	75 05                	jne    4b30 <main+0x3819>
    4b2b:	e9 84 d0 ff ff       	jmp    1bb4 <main+0x89d>
    4b30:	81 7d fc cd 00 00 00 	cmp    DWORD PTR [rbp-0x4],0xcd
    4b37:	75 05                	jne    4b3e <main+0x3827>
    4b39:	e9 5e 0f 00 00       	jmp    5a9c <main+0x4785>
    4b3e:	48 8d 05 e3 a4 00 00 	lea    rax,[rip+0xa4e3]        # f028 <_IO_stdin_used+0x28>
    4b45:	48 89 c7             	mov    rdi,rax
    4b48:	e8 73 c5 ff ff       	call   10c0 <puts@plt>
    4b4d:	bf 01 00 00 00       	mov    edi,0x1
    4b52:	e8 d9 c5 ff ff       	call   1130 <exit@plt>
    4b57:	be a1 00 00 00       	mov    esi,0xa1
    4b5c:	48 8d 05 b6 a4 00 00 	lea    rax,[rip+0xa4b6]        # f019 <_IO_stdin_used+0x19>
    4b63:	48 89 c7             	mov    rdi,rax
    4b66:	b8 00 00 00 00       	mov    eax,0x0
    4b6b:	e8 80 c5 ff ff       	call   10f0 <printf@plt>
    4b70:	b8 00 00 00 00       	mov    eax,0x0
    4b75:	e8 f6 c6 ff ff       	call   1270 <get_input>
    4b7a:	89 45 fc             	mov    DWORD PTR [rbp-0x4],eax
    4b7d:	81 7d fc 8f 00 00 00 	cmp    DWORD PTR [rbp-0x4],0x8f
    4b84:	75 05                	jne    4b8b <main+0x3874>
    4b86:	e9 75 f9 ff ff       	jmp    4500 <main+0x31e9>
    4b8b:	81 7d fc 8f 01 00 00 	cmp    DWORD PTR [rbp-0x4],0x18f
    4b92:	75 05                	jne    4b99 <main+0x3882>
    4b94:	e9 e6 52 00 00       	jmp    9e7f <main+0x8b68>
    4b99:	48 8d 05 88 a4 00 00 	lea    rax,[rip+0xa488]        # f028 <_IO_stdin_used+0x28>
    4ba0:	48 89 c7             	mov    rdi,rax
    4ba3:	e8 18 c5 ff ff       	call   10c0 <puts@plt>
    4ba8:	bf 01 00 00 00       	mov    edi,0x1
    4bad:	e8 7e c5 ff ff       	call   1130 <exit@plt>
    4bb2:	90                   	nop
    4bb3:	be a2 00 00 00       	mov    esi,0xa2
    4bb8:	48 8d 05 5a a4 00 00 	lea    rax,[rip+0xa45a]        # f019 <_IO_stdin_used+0x19>
    4bbf:	48 89 c7             	mov    rdi,rax
    4bc2:	b8 00 00 00 00       	mov    eax,0x0
    4bc7:	e8 24 c5 ff ff       	call   10f0 <printf@plt>
    4bcc:	b8 00 00 00 00       	mov    eax,0x0
    4bd1:	e8 9a c6 ff ff       	call   1270 <get_input>
    4bd6:	89 45 fc             	mov    DWORD PTR [rbp-0x4],eax
    4bd9:	81 7d fc ac 00 00 00 	cmp    DWORD PTR [rbp-0x4],0xac
    4be0:	75 05                	jne    4be7 <main+0x38d0>
    4be2:	e9 34 03 00 00       	jmp    4f1b <main+0x3c04>
    4be7:	48 8d 05 3a a4 00 00 	lea    rax,[rip+0xa43a]        # f028 <_IO_stdin_used+0x28>
    4bee:	48 89 c7             	mov    rdi,rax
    4bf1:	e8 ca c4 ff ff       	call   10c0 <puts@plt>
    4bf6:	bf 01 00 00 00       	mov    edi,0x1
    4bfb:	e8 30 c5 ff ff       	call   1130 <exit@plt>
    4c00:	be a3 00 00 00       	mov    esi,0xa3
    4c05:	48 8d 05 0d a4 00 00 	lea    rax,[rip+0xa40d]        # f019 <_IO_stdin_used+0x19>
    4c0c:	48 89 c7             	mov    rdi,rax
    4c0f:	b8 00 00 00 00       	mov    eax,0x0
    4c14:	e8 d7 c4 ff ff       	call   10f0 <printf@plt>
    4c19:	b8 00 00 00 00       	mov    eax,0x0
    4c1e:	e8 4d c6 ff ff       	call   1270 <get_input>
    4c23:	89 45 fc             	mov    DWORD PTR [rbp-0x4],eax
    4c26:	83 7d fc 55          	cmp    DWORD PTR [rbp-0x4],0x55
    4c2a:	75 05                	jne    4c31 <main+0x391a>
    4c2c:	e9 35 e4 ff ff       	jmp    3066 <main+0x1d4f>
    4c31:	81 7d fc 32 02 00 00 	cmp    DWORD PTR [rbp-0x4],0x232
    4c38:	75 05                	jne    4c3f <main+0x3928>
    4c3a:	e9 09 8b 00 00       	jmp    d748 <main+0xc431>
    4c3f:	48 8d 05 e2 a3 00 00 	lea    rax,[rip+0xa3e2]        # f028 <_IO_stdin_used+0x28>
    4c46:	48 89 c7             	mov    rdi,rax
    4c49:	e8 72 c4 ff ff       	call   10c0 <puts@plt>
    4c4e:	bf 01 00 00 00       	mov    edi,0x1
    4c53:	e8 d8 c4 ff ff       	call   1130 <exit@plt>
    4c58:	90                   	nop
    4c59:	be a4 00 00 00       	mov    esi,0xa4
    4c5e:	48 8d 05 b4 a3 00 00 	lea    rax,[rip+0xa3b4]        # f019 <_IO_stdin_used+0x19>
    4c65:	48 89 c7             	mov    rdi,rax
    4c68:	b8 00 00 00 00       	mov    eax,0x0
    4c6d:	e8 7e c4 ff ff       	call   10f0 <printf@plt>
    4c72:	b8 00 00 00 00       	mov    eax,0x0
    4c77:	e8 f4 c5 ff ff       	call   1270 <get_input>
    4c7c:	89 45 fc             	mov    DWORD PTR [rbp-0x4],eax
    4c7f:	83 7d fc 0c          	cmp    DWORD PTR [rbp-0x4],0xc
    4c83:	75 05                	jne    4c8a <main+0x3973>
    4c85:	e9 a2 ca ff ff       	jmp    172c <main+0x415>
    4c8a:	48 8d 05 97 a3 00 00 	lea    rax,[rip+0xa397]        # f028 <_IO_stdin_used+0x28>
    4c91:	48 89 c7             	mov    rdi,rax
    4c94:	e8 27 c4 ff ff       	call   10c0 <puts@plt>
    4c99:	bf 01 00 00 00       	mov    edi,0x1
    4c9e:	e8 8d c4 ff ff       	call   1130 <exit@plt>
    4ca3:	be a5 00 00 00       	mov    esi,0xa5
    4ca8:	48 8d 05 6a a3 00 00 	lea    rax,[rip+0xa36a]        # f019 <_IO_stdin_used+0x19>
    4caf:	48 89 c7             	mov    rdi,rax
    4cb2:	b8 00 00 00 00       	mov    eax,0x0
    4cb7:	e8 34 c4 ff ff       	call   10f0 <printf@plt>
    4cbc:	b8 00 00 00 00       	mov    eax,0x0
    4cc1:	e8 aa c5 ff ff       	call   1270 <get_input>
    4cc6:	89 45 fc             	mov    DWORD PTR [rbp-0x4],eax
    4cc9:	81 7d fc 4f 02 00 00 	cmp    DWORD PTR [rbp-0x4],0x24f
    4cd0:	75 05                	jne    4cd7 <main+0x39c0>
    4cd2:	e9 12 95 00 00       	jmp    e1e9 <main+0xced2>
    4cd7:	81 7d fc ad 00 00 00 	cmp    DWORD PTR [rbp-0x4],0xad
    4cde:	75 05                	jne    4ce5 <main+0x39ce>
    4ce0:	e9 90 02 00 00       	jmp    4f75 <main+0x3c5e>
    4ce5:	48 8d 05 3c a3 00 00 	lea    rax,[rip+0xa33c]        # f028 <_IO_stdin_used+0x28>
    4cec:	48 89 c7             	mov    rdi,rax
    4cef:	e8 cc c3 ff ff       	call   10c0 <puts@plt>
    4cf4:	bf 01 00 00 00       	mov    edi,0x1
    4cf9:	e8 32 c4 ff ff       	call   1130 <exit@plt>
    4cfe:	90                   	nop
    4cff:	be a6 00 00 00       	mov    esi,0xa6
    4d04:	48 8d 05 0e a3 00 00 	lea    rax,[rip+0xa30e]        # f019 <_IO_stdin_used+0x19>
    4d0b:	48 89 c7             	mov    rdi,rax
    4d0e:	b8 00 00 00 00       	mov    eax,0x0
    4d13:	e8 d8 c3 ff ff       	call   10f0 <printf@plt>
    4d18:	b8 00 00 00 00       	mov    eax,0x0
    4d1d:	e8 4e c5 ff ff       	call   1270 <get_input>
    4d22:	89 45 fc             	mov    DWORD PTR [rbp-0x4],eax
    4d25:	83 7d fc 4d          	cmp    DWORD PTR [rbp-0x4],0x4d
    4d29:	75 05                	jne    4d30 <main+0x3a19>
    4d2b:	e9 4f e0 ff ff       	jmp    2d7f <main+0x1a68>
    4d30:	48 8d 05 f1 a2 00 00 	lea    rax,[rip+0xa2f1]        # f028 <_IO_stdin_used+0x28>
    4d37:	48 89 c7             	mov    rdi,rax
    4d3a:	e8 81 c3 ff ff       	call   10c0 <puts@plt>
    4d3f:	bf 01 00 00 00       	mov    edi,0x1
    4d44:	e8 e7 c3 ff ff       	call   1130 <exit@plt>
    4d49:	90                   	nop
    4d4a:	be a7 00 00 00       	mov    esi,0xa7
    4d4f:	48 8d 05 c3 a2 00 00 	lea    rax,[rip+0xa2c3]        # f019 <_IO_stdin_used+0x19>
    4d56:	48 89 c7             	mov    rdi,rax
    4d59:	b8 00 00 00 00       	mov    eax,0x0
    4d5e:	e8 8d c3 ff ff       	call   10f0 <printf@plt>
    4d63:	b8 00 00 00 00       	mov    eax,0x0
    4d68:	e8 03 c5 ff ff       	call   1270 <get_input>
    4d6d:	89 45 fc             	mov    DWORD PTR [rbp-0x4],eax
    4d70:	81 7d fc 50 02 00 00 	cmp    DWORD PTR [rbp-0x4],0x250
    4d77:	75 05                	jne    4d7e <main+0x3a67>
    4d79:	e9 d3 94 00 00       	jmp    e251 <main+0xcf3a>
    4d7e:	48 8d 05 a3 a2 00 00 	lea    rax,[rip+0xa2a3]        # f028 <_IO_stdin_used+0x28>
    4d85:	48 89 c7             	mov    rdi,rax
    4d88:	e8 33 c3 ff ff       	call   10c0 <puts@plt>
    4d8d:	bf 01 00 00 00       	mov    edi,0x1
    4d92:	e8 99 c3 ff ff       	call   1130 <exit@plt>
    4d97:	be a8 00 00 00       	mov    esi,0xa8
    4d9c:	48 8d 05 76 a2 00 00 	lea    rax,[rip+0xa276]        # f019 <_IO_stdin_used+0x19>
    4da3:	48 89 c7             	mov    rdi,rax
    4da6:	b8 00 00 00 00       	mov    eax,0x0
    4dab:	e8 40 c3 ff ff       	call   10f0 <printf@plt>
    4db0:	b8 00 00 00 00       	mov    eax,0x0
    4db5:	e8 b6 c4 ff ff       	call   1270 <get_input>
    4dba:	89 45 fc             	mov    DWORD PTR [rbp-0x4],eax
    4dbd:	81 7d fc 10 02 00 00 	cmp    DWORD PTR [rbp-0x4],0x210
    4dc4:	75 05                	jne    4dcb <main+0x3ab4>
    4dc6:	e9 50 7d 00 00       	jmp    cb1b <main+0xb804>
    4dcb:	81 7d fc 12 02 00 00 	cmp    DWORD PTR [rbp-0x4],0x212
    4dd2:	75 05                	jne    4dd9 <main+0x3ac2>
    4dd4:	e9 05 7e 00 00       	jmp    cbde <main+0xb8c7>
    4dd9:	81 7d fc 5a 01 00 00 	cmp    DWORD PTR [rbp-0x4],0x15a
    4de0:	75 05                	jne    4de7 <main+0x3ad0>
    4de2:	e9 f7 3d 00 00       	jmp    8bde <main+0x78c7>
    4de7:	48 8d 05 3a a2 00 00 	lea    rax,[rip+0xa23a]        # f028 <_IO_stdin_used+0x28>
    4dee:	48 89 c7             	mov    rdi,rax
    4df1:	e8 ca c2 ff ff       	call   10c0 <puts@plt>
    4df6:	bf 01 00 00 00       	mov    edi,0x1
    4dfb:	e8 30 c3 ff ff       	call   1130 <exit@plt>
    4e00:	be a9 00 00 00       	mov    esi,0xa9
    4e05:	48 8d 05 0d a2 00 00 	lea    rax,[rip+0xa20d]        # f019 <_IO_stdin_used+0x19>
    4e0c:	48 89 c7             	mov    rdi,rax
    4e0f:	b8 00 00 00 00       	mov    eax,0x0
    4e14:	e8 d7 c2 ff ff       	call   10f0 <printf@plt>
    4e19:	b8 00 00 00 00       	mov    eax,0x0
    4e1e:	e8 4d c4 ff ff       	call   1270 <get_input>
    4e23:	89 45 fc             	mov    DWORD PTR [rbp-0x4],eax
    4e26:	81 7d fc a9 01 00 00 	cmp    DWORD PTR [rbp-0x4],0x1a9
    4e2d:	75 05                	jne    4e34 <main+0x3b1d>
    4e2f:	e9 a8 59 00 00       	jmp    a7dc <main+0x94c5>
    4e34:	81 7d fc 2b 02 00 00 	cmp    DWORD PTR [rbp-0x4],0x22b
    4e3b:	75 05                	jne    4e42 <main+0x3b2b>
    4e3d:	e9 63 86 00 00       	jmp    d4a5 <main+0xc18e>
    4e42:	48 8d 05 df a1 00 00 	lea    rax,[rip+0xa1df]        # f028 <_IO_stdin_used+0x28>
    4e49:	48 89 c7             	mov    rdi,rax
    4e4c:	e8 6f c2 ff ff       	call   10c0 <puts@plt>
    4e51:	bf 01 00 00 00       	mov    edi,0x1
    4e56:	e8 d5 c2 ff ff       	call   1130 <exit@plt>
    4e5b:	be aa 00 00 00       	mov    esi,0xaa
    4e60:	48 8d 05 b2 a1 00 00 	lea    rax,[rip+0xa1b2]        # f019 <_IO_stdin_used+0x19>
    4e67:	48 89 c7             	mov    rdi,rax
    4e6a:	b8 00 00 00 00       	mov    eax,0x0
    4e6f:	e8 7c c2 ff ff       	call   10f0 <printf@plt>
    4e74:	b8 00 00 00 00       	mov    eax,0x0
    4e79:	e8 f2 c3 ff ff       	call   1270 <get_input>
    4e7e:	89 45 fc             	mov    DWORD PTR [rbp-0x4],eax
    4e81:	81 7d fc 31 02 00 00 	cmp    DWORD PTR [rbp-0x4],0x231
    4e88:	75 05                	jne    4e8f <main+0x3b78>
    4e8a:	e9 5e 88 00 00       	jmp    d6ed <main+0xc3d6>
    4e8f:	81 7d fc f8 00 00 00 	cmp    DWORD PTR [rbp-0x4],0xf8
    4e96:	75 05                	jne    4e9d <main+0x3b86>
    4e98:	e9 de 1a 00 00       	jmp    697b <main+0x5664>
    4e9d:	48 8d 05 84 a1 00 00 	lea    rax,[rip+0xa184]        # f028 <_IO_stdin_used+0x28>
    4ea4:	48 89 c7             	mov    rdi,rax
    4ea7:	e8 14 c2 ff ff       	call   10c0 <puts@plt>
    4eac:	bf 01 00 00 00       	mov    edi,0x1
    4eb1:	e8 7a c2 ff ff       	call   1130 <exit@plt>
    4eb6:	be ab 00 00 00       	mov    esi,0xab
    4ebb:	48 8d 05 57 a1 00 00 	lea    rax,[rip+0xa157]        # f019 <_IO_stdin_used+0x19>
    4ec2:	48 89 c7             	mov    rdi,rax
    4ec5:	b8 00 00 00 00       	mov    eax,0x0
    4eca:	e8 21 c2 ff ff       	call   10f0 <printf@plt>
    4ecf:	b8 00 00 00 00       	mov    eax,0x0
    4ed4:	e8 97 c3 ff ff       	call   1270 <get_input>
    4ed9:	89 45 fc             	mov    DWORD PTR [rbp-0x4],eax
    4edc:	83 7d fc 78          	cmp    DWORD PTR [rbp-0x4],0x78
    4ee0:	75 05                	jne    4ee7 <main+0x3bd0>
    4ee2:	e9 fb ed ff ff       	jmp    3ce2 <main+0x29cb>
    4ee7:	81 7d fc 4f 02 00 00 	cmp    DWORD PTR [rbp-0x4],0x24f
    4eee:	75 05                	jne    4ef5 <main+0x3bde>
    4ef0:	e9 f4 92 00 00       	jmp    e1e9 <main+0xced2>
    4ef5:	81 7d fc 0a 02 00 00 	cmp    DWORD PTR [rbp-0x4],0x20a
    4efc:	0f 84 1d 7a 00 00    	je     c91f <main+0xb608>
    4f02:	48 8d 05 1f a1 00 00 	lea    rax,[rip+0xa11f]        # f028 <_IO_stdin_used+0x28>
    4f09:	48 89 c7             	mov    rdi,rax
    4f0c:	e8 af c1 ff ff       	call   10c0 <puts@plt>
    4f11:	bf 01 00 00 00       	mov    edi,0x1
    4f16:	e8 15 c2 ff ff       	call   1130 <exit@plt>
    4f1b:	be ac 00 00 00       	mov    esi,0xac
    4f20:	48 8d 05 f2 a0 00 00 	lea    rax,[rip+0xa0f2]        # f019 <_IO_stdin_used+0x19>
    4f27:	48 89 c7             	mov    rdi,rax
    4f2a:	b8 00 00 00 00       	mov    eax,0x0
    4f2f:	e8 bc c1 ff ff       	call   10f0 <printf@plt>
    4f34:	b8 00 00 00 00       	mov    eax,0x0
    4f39:	e8 32 c3 ff ff       	call   1270 <get_input>
    4f3e:	89 45 fc             	mov    DWORD PTR [rbp-0x4],eax
    4f41:	81 7d fc a3 01 00 00 	cmp    DWORD PTR [rbp-0x4],0x1a3
    4f48:	75 05                	jne    4f4f <main+0x3c38>
    4f4a:	e9 55 56 00 00       	jmp    a5a4 <main+0x928d>
    4f4f:	81 7d fc a2 00 00 00 	cmp    DWORD PTR [rbp-0x4],0xa2
    4f56:	0f 84 56 fc ff ff    	je     4bb2 <main+0x389b>
    4f5c:	48 8d 05 c5 a0 00 00 	lea    rax,[rip+0xa0c5]        # f028 <_IO_stdin_used+0x28>
    4f63:	48 89 c7             	mov    rdi,rax
    4f66:	e8 55 c1 ff ff       	call   10c0 <puts@plt>
    4f6b:	bf 01 00 00 00       	mov    edi,0x1
    4f70:	e8 bb c1 ff ff       	call   1130 <exit@plt>
    4f75:	be ad 00 00 00       	mov    esi,0xad
    4f7a:	48 8d 05 98 a0 00 00 	lea    rax,[rip+0xa098]        # f019 <_IO_stdin_used+0x19>
    4f81:	48 89 c7             	mov    rdi,rax
    4f84:	b8 00 00 00 00       	mov    eax,0x0
    4f89:	e8 62 c1 ff ff       	call   10f0 <printf@plt>
    4f8e:	b8 00 00 00 00       	mov    eax,0x0
    4f93:	e8 d8 c2 ff ff       	call   1270 <get_input>
    4f98:	89 45 fc             	mov    DWORD PTR [rbp-0x4],eax
    4f9b:	81 7d fc a5 00 00 00 	cmp    DWORD PTR [rbp-0x4],0xa5
    4fa2:	75 05                	jne    4fa9 <main+0x3c92>
    4fa4:	e9 fa fc ff ff       	jmp    4ca3 <main+0x398c>
    4fa9:	81 7d fc 1e 01 00 00 	cmp    DWORD PTR [rbp-0x4],0x11e
    4fb0:	75 05                	jne    4fb7 <main+0x3ca0>
    4fb2:	e9 12 27 00 00       	jmp    76c9 <main+0x63b2>
    4fb7:	48 8d 05 6a a0 00 00 	lea    rax,[rip+0xa06a]        # f028 <_IO_stdin_used+0x28>
    4fbe:	48 89 c7             	mov    rdi,rax
    4fc1:	e8 fa c0 ff ff       	call   10c0 <puts@plt>
    4fc6:	bf 01 00 00 00       	mov    edi,0x1
    4fcb:	e8 60 c1 ff ff       	call   1130 <exit@plt>
    4fd0:	be ae 00 00 00       	mov    esi,0xae
    4fd5:	48 8d 05 3d a0 00 00 	lea    rax,[rip+0xa03d]        # f019 <_IO_stdin_used+0x19>
    4fdc:	48 89 c7             	mov    rdi,rax
    4fdf:	b8 00 00 00 00       	mov    eax,0x0
    4fe4:	e8 07 c1 ff ff       	call   10f0 <printf@plt>
    4fe9:	b8 00 00 00 00       	mov    eax,0x0
    4fee:	e8 7d c2 ff ff       	call   1270 <get_input>
    4ff3:	89 45 fc             	mov    DWORD PTR [rbp-0x4],eax
    4ff6:	81 7d fc d3 00 00 00 	cmp    DWORD PTR [rbp-0x4],0xd3
    4ffd:	75 05                	jne    5004 <main+0x3ced>
    4fff:	e9 a9 0c 00 00       	jmp    5cad <main+0x4996>
    5004:	81 7d fc e8 00 00 00 	cmp    DWORD PTR [rbp-0x4],0xe8
    500b:	75 05                	jne    5012 <main+0x3cfb>
    500d:	e9 db 13 00 00       	jmp    63ed <main+0x50d6>
    5012:	48 8d 05 0f a0 00 00 	lea    rax,[rip+0xa00f]        # f028 <_IO_stdin_used+0x28>
    5019:	48 89 c7             	mov    rdi,rax
    501c:	e8 9f c0 ff ff       	call   10c0 <puts@plt>
    5021:	bf 01 00 00 00       	mov    edi,0x1
    5026:	e8 05 c1 ff ff       	call   1130 <exit@plt>
    502b:	be af 00 00 00       	mov    esi,0xaf
    5030:	48 8d 05 e2 9f 00 00 	lea    rax,[rip+0x9fe2]        # f019 <_IO_stdin_used+0x19>
    5037:	48 89 c7             	mov    rdi,rax
    503a:	b8 00 00 00 00       	mov    eax,0x0
    503f:	e8 ac c0 ff ff       	call   10f0 <printf@plt>
    5044:	b8 00 00 00 00       	mov    eax,0x0
    5049:	e8 22 c2 ff ff       	call   1270 <get_input>
    504e:	89 45 fc             	mov    DWORD PTR [rbp-0x4],eax
    5051:	81 7d fc 63 02 00 00 	cmp    DWORD PTR [rbp-0x4],0x263
    5058:	0f 84 d9 98 00 00    	je     e937 <main+0xd620>
    505e:	81 7d fc 6d 02 00 00 	cmp    DWORD PTR [rbp-0x4],0x26d
    5065:	0f 84 7f 9c 00 00    	je     ecea <main+0xd9d3>
    506b:	81 7d fc ef 00 00 00 	cmp    DWORD PTR [rbp-0x4],0xef
    5072:	75 05                	jne    5079 <main+0x3d62>
    5074:	e9 e9 15 00 00       	jmp    6662 <main+0x534b>
    5079:	48 8d 05 a8 9f 00 00 	lea    rax,[rip+0x9fa8]        # f028 <_IO_stdin_used+0x28>
    5080:	48 89 c7             	mov    rdi,rax
    5083:	e8 38 c0 ff ff       	call   10c0 <puts@plt>
    5088:	bf 01 00 00 00       	mov    edi,0x1
    508d:	e8 9e c0 ff ff       	call   1130 <exit@plt>
    5092:	be b0 00 00 00       	mov    esi,0xb0
    5097:	48 8d 05 7b 9f 00 00 	lea    rax,[rip+0x9f7b]        # f019 <_IO_stdin_used+0x19>
    509e:	48 89 c7             	mov    rdi,rax
    50a1:	b8 00 00 00 00       	mov    eax,0x0
    50a6:	e8 45 c0 ff ff       	call   10f0 <printf@plt>
    50ab:	b8 00 00 00 00       	mov    eax,0x0
    50b0:	e8 bb c1 ff ff       	call   1270 <get_input>
    50b5:	89 45 fc             	mov    DWORD PTR [rbp-0x4],eax
    50b8:	83 7d fc 75          	cmp    DWORD PTR [rbp-0x4],0x75
    50bc:	75 05                	jne    50c3 <main+0x3dac>
    50be:	e9 11 eb ff ff       	jmp    3bd4 <main+0x28bd>
    50c3:	81 7d fc 64 02 00 00 	cmp    DWORD PTR [rbp-0x4],0x264
    50ca:	75 05                	jne    50d1 <main+0x3dba>
    50cc:	e9 b4 98 00 00       	jmp    e985 <main+0xd66e>
    50d1:	48 8d 05 50 9f 00 00 	lea    rax,[rip+0x9f50]        # f028 <_IO_stdin_used+0x28>
    50d8:	48 89 c7             	mov    rdi,rax
    50db:	e8 e0 bf ff ff       	call   10c0 <puts@plt>
    50e0:	bf 01 00 00 00       	mov    edi,0x1
    50e5:	e8 46 c0 ff ff       	call   1130 <exit@plt>
    50ea:	90                   	nop
    50eb:	be b1 00 00 00       	mov    esi,0xb1
    50f0:	48 8d 05 22 9f 00 00 	lea    rax,[rip+0x9f22]        # f019 <_IO_stdin_used+0x19>
    50f7:	48 89 c7             	mov    rdi,rax
    50fa:	b8 00 00 00 00       	mov    eax,0x0
    50ff:	e8 ec bf ff ff       	call   10f0 <printf@plt>
    5104:	b8 00 00 00 00       	mov    eax,0x0
    5109:	e8 62 c1 ff ff       	call   1270 <get_input>
    510e:	89 45 fc             	mov    DWORD PTR [rbp-0x4],eax
    5111:	81 7d fc fa 01 00 00 	cmp    DWORD PTR [rbp-0x4],0x1fa
    5118:	75 05                	jne    511f <main+0x3e08>
    511a:	e9 9c 72 00 00       	jmp    c3bb <main+0xb0a4>
    511f:	48 8d 05 02 9f 00 00 	lea    rax,[rip+0x9f02]        # f028 <_IO_stdin_used+0x28>
    5126:	48 89 c7             	mov    rdi,rax
    5129:	e8 92 bf ff ff       	call   10c0 <puts@plt>
    512e:	bf 01 00 00 00       	mov    edi,0x1
    5133:	e8 f8 bf ff ff       	call   1130 <exit@plt>
    5138:	90                   	nop
    5139:	be b2 00 00 00       	mov    esi,0xb2
    513e:	48 8d 05 d4 9e 00 00 	lea    rax,[rip+0x9ed4]        # f019 <_IO_stdin_used+0x19>
    5145:	48 89 c7             	mov    rdi,rax
    5148:	b8 00 00 00 00       	mov    eax,0x0
    514d:	e8 9e bf ff ff       	call   10f0 <printf@plt>
    5152:	b8 00 00 00 00       	mov    eax,0x0
    5157:	e8 14 c1 ff ff       	call   1270 <get_input>
    515c:	89 45 fc             	mov    DWORD PTR [rbp-0x4],eax
    515f:	81 7d fc 3e 02 00 00 	cmp    DWORD PTR [rbp-0x4],0x23e
    5166:	75 05                	jne    516d <main+0x3e56>
    5168:	e9 5c 8a 00 00       	jmp    dbc9 <main+0xc8b2>
    516d:	48 8d 05 b4 9e 00 00 	lea    rax,[rip+0x9eb4]        # f028 <_IO_stdin_used+0x28>
    5174:	48 89 c7             	mov    rdi,rax
    5177:	e8 44 bf ff ff       	call   10c0 <puts@plt>
    517c:	bf 01 00 00 00       	mov    edi,0x1
    5181:	e8 aa bf ff ff       	call   1130 <exit@plt>
    5186:	be b3 00 00 00       	mov    esi,0xb3
    518b:	48 8d 05 87 9e 00 00 	lea    rax,[rip+0x9e87]        # f019 <_IO_stdin_used+0x19>
    5192:	48 89 c7             	mov    rdi,rax
    5195:	b8 00 00 00 00       	mov    eax,0x0
    519a:	e8 51 bf ff ff       	call   10f0 <printf@plt>
    519f:	b8 00 00 00 00       	mov    eax,0x0
    51a4:	e8 c7 c0 ff ff       	call   1270 <get_input>
    51a9:	89 45 fc             	mov    DWORD PTR [rbp-0x4],eax
    51ac:	81 7d fc 4f 01 00 00 	cmp    DWORD PTR [rbp-0x4],0x14f
    51b3:	75 05                	jne    51ba <main+0x3ea3>
    51b5:	e9 5b 36 00 00       	jmp    8815 <main+0x74fe>
    51ba:	83 7d fc 64          	cmp    DWORD PTR [rbp-0x4],0x64
    51be:	75 05                	jne    51c5 <main+0x3eae>
    51c0:	e9 ef e3 ff ff       	jmp    35b4 <main+0x229d>
    51c5:	48 8d 05 5c 9e 00 00 	lea    rax,[rip+0x9e5c]        # f028 <_IO_stdin_used+0x28>
    51cc:	48 89 c7             	mov    rdi,rax
    51cf:	e8 ec be ff ff       	call   10c0 <puts@plt>
    51d4:	bf 01 00 00 00       	mov    edi,0x1
    51d9:	e8 52 bf ff ff       	call   1130 <exit@plt>
    51de:	be b4 00 00 00       	mov    esi,0xb4
    51e3:	48 8d 05 2f 9e 00 00 	lea    rax,[rip+0x9e2f]        # f019 <_IO_stdin_used+0x19>
    51ea:	48 89 c7             	mov    rdi,rax
    51ed:	b8 00 00 00 00       	mov    eax,0x0
    51f2:	e8 f9 be ff ff       	call   10f0 <printf@plt>
    51f7:	b8 00 00 00 00       	mov    eax,0x0
    51fc:	e8 6f c0 ff ff       	call   1270 <get_input>
    5201:	89 45 fc             	mov    DWORD PTR [rbp-0x4],eax
    5204:	81 7d fc a3 01 00 00 	cmp    DWORD PTR [rbp-0x4],0x1a3
    520b:	75 05                	jne    5212 <main+0x3efb>
    520d:	e9 92 53 00 00       	jmp    a5a4 <main+0x928d>
    5212:	81 7d fc e2 00 00 00 	cmp    DWORD PTR [rbp-0x4],0xe2
    5219:	0f 84 d5 0f 00 00    	je     61f4 <main+0x4edd>
    521f:	48 8d 05 02 9e 00 00 	lea    rax,[rip+0x9e02]        # f028 <_IO_stdin_used+0x28>
    5226:	48 89 c7             	mov    rdi,rax
    5229:	e8 92 be ff ff       	call   10c0 <puts@plt>
    522e:	bf 01 00 00 00       	mov    edi,0x1
    5233:	e8 f8 be ff ff       	call   1130 <exit@plt>
    5238:	be b5 00 00 00       	mov    esi,0xb5
    523d:	48 8d 05 d5 9d 00 00 	lea    rax,[rip+0x9dd5]        # f019 <_IO_stdin_used+0x19>
    5244:	48 89 c7             	mov    rdi,rax
    5247:	b8 00 00 00 00       	mov    eax,0x0
    524c:	e8 9f be ff ff       	call   10f0 <printf@plt>
    5251:	b8 00 00 00 00       	mov    eax,0x0
    5256:	e8 15 c0 ff ff       	call   1270 <get_input>
    525b:	89 45 fc             	mov    DWORD PTR [rbp-0x4],eax
    525e:	83 7d fc 21          	cmp    DWORD PTR [rbp-0x4],0x21
    5262:	75 05                	jne    5269 <main+0x3f52>
    5264:	e9 2e cc ff ff       	jmp    1e97 <main+0xb80>
    5269:	81 7d fc f5 00 00 00 	cmp    DWORD PTR [rbp-0x4],0xf5
    5270:	0f 84 00 16 00 00    	je     6876 <main+0x555f>
    5276:	81 7d fc f2 00 00 00 	cmp    DWORD PTR [rbp-0x4],0xf2
    527d:	75 05                	jne    5284 <main+0x3f6d>
    527f:	e9 d5 14 00 00       	jmp    6759 <main+0x5442>
    5284:	48 8d 05 9d 9d 00 00 	lea    rax,[rip+0x9d9d]        # f028 <_IO_stdin_used+0x28>
    528b:	48 89 c7             	mov    rdi,rax
    528e:	e8 2d be ff ff       	call   10c0 <puts@plt>
    5293:	bf 01 00 00 00       	mov    edi,0x1
    5298:	e8 93 be ff ff       	call   1130 <exit@plt>
    529d:	90                   	nop
    529e:	be b6 00 00 00       	mov    esi,0xb6
    52a3:	48 8d 05 6f 9d 00 00 	lea    rax,[rip+0x9d6f]        # f019 <_IO_stdin_used+0x19>
    52aa:	48 89 c7             	mov    rdi,rax
    52ad:	b8 00 00 00 00       	mov    eax,0x0
    52b2:	e8 39 be ff ff       	call   10f0 <printf@plt>
    52b7:	b8 00 00 00 00       	mov    eax,0x0
    52bc:	e8 af bf ff ff       	call   1270 <get_input>
    52c1:	89 45 fc             	mov    DWORD PTR [rbp-0x4],eax
    52c4:	81 7d fc 3f 01 00 00 	cmp    DWORD PTR [rbp-0x4],0x13f
    52cb:	75 05                	jne    52d2 <main+0x3fbb>
    52cd:	e9 76 2f 00 00       	jmp    8248 <main+0x6f31>
    52d2:	48 8d 05 4f 9d 00 00 	lea    rax,[rip+0x9d4f]        # f028 <_IO_stdin_used+0x28>
    52d9:	48 89 c7             	mov    rdi,rax
    52dc:	e8 df bd ff ff       	call   10c0 <puts@plt>
    52e1:	bf 01 00 00 00       	mov    edi,0x1
    52e6:	e8 45 be ff ff       	call   1130 <exit@plt>
    52eb:	be b7 00 00 00       	mov    esi,0xb7
    52f0:	48 8d 05 22 9d 00 00 	lea    rax,[rip+0x9d22]        # f019 <_IO_stdin_used+0x19>
    52f7:	48 89 c7             	mov    rdi,rax
    52fa:	b8 00 00 00 00       	mov    eax,0x0
    52ff:	e8 ec bd ff ff       	call   10f0 <printf@plt>
    5304:	b8 00 00 00 00       	mov    eax,0x0
    5309:	e8 62 bf ff ff       	call   1270 <get_input>
    530e:	89 45 fc             	mov    DWORD PTR [rbp-0x4],eax
    5311:	81 7d fc 31 01 00 00 	cmp    DWORD PTR [rbp-0x4],0x131
    5318:	75 05                	jne    531f <main+0x4008>
    531a:	e9 2c 2a 00 00       	jmp    7d4b <main+0x6a34>
    531f:	81 7d fc be 01 00 00 	cmp    DWORD PTR [rbp-0x4],0x1be
    5326:	75 05                	jne    532d <main+0x4016>
    5328:	e9 c7 5b 00 00       	jmp    aef4 <main+0x9bdd>
    532d:	48 8d 05 f4 9c 00 00 	lea    rax,[rip+0x9cf4]        # f028 <_IO_stdin_used+0x28>
    5334:	48 89 c7             	mov    rdi,rax
    5337:	e8 84 bd ff ff       	call   10c0 <puts@plt>
    533c:	bf 01 00 00 00       	mov    edi,0x1
    5341:	e8 ea bd ff ff       	call   1130 <exit@plt>
    5346:	be b8 00 00 00       	mov    esi,0xb8
    534b:	48 8d 05 c7 9c 00 00 	lea    rax,[rip+0x9cc7]        # f019 <_IO_stdin_used+0x19>
    5352:	48 89 c7             	mov    rdi,rax
    5355:	b8 00 00 00 00       	mov    eax,0x0
    535a:	e8 91 bd ff ff       	call   10f0 <printf@plt>
    535f:	b8 00 00 00 00       	mov    eax,0x0
    5364:	e8 07 bf ff ff       	call   1270 <get_input>
    5369:	89 45 fc             	mov    DWORD PTR [rbp-0x4],eax
    536c:	81 7d fc db 00 00 00 	cmp    DWORD PTR [rbp-0x4],0xdb
    5373:	75 05                	jne    537a <main+0x4063>
    5375:	e9 ed 0b 00 00       	jmp    5f67 <main+0x4c50>
    537a:	83 7d fc 60          	cmp    DWORD PTR [rbp-0x4],0x60
    537e:	0f 84 e4 e0 ff ff    	je     3468 <main+0x2151>
    5384:	48 8d 05 9d 9c 00 00 	lea    rax,[rip+0x9c9d]        # f028 <_IO_stdin_used+0x28>
    538b:	48 89 c7             	mov    rdi,rax
    538e:	e8 2d bd ff ff       	call   10c0 <puts@plt>
    5393:	bf 01 00 00 00       	mov    edi,0x1
    5398:	e8 93 bd ff ff       	call   1130 <exit@plt>
    539d:	be b9 00 00 00       	mov    esi,0xb9
    53a2:	48 8d 05 70 9c 00 00 	lea    rax,[rip+0x9c70]        # f019 <_IO_stdin_used+0x19>
    53a9:	48 89 c7             	mov    rdi,rax
    53ac:	b8 00 00 00 00       	mov    eax,0x0
    53b1:	e8 3a bd ff ff       	call   10f0 <printf@plt>
    53b6:	b8 00 00 00 00       	mov    eax,0x0
    53bb:	e8 b0 be ff ff       	call   1270 <get_input>
    53c0:	89 45 fc             	mov    DWORD PTR [rbp-0x4],eax
    53c3:	81 7d fc e7 00 00 00 	cmp    DWORD PTR [rbp-0x4],0xe7
    53ca:	0f 84 cf 0f 00 00    	je     639f <main+0x5088>
    53d0:	81 7d fc fe 01 00 00 	cmp    DWORD PTR [rbp-0x4],0x1fe
    53d7:	75 05                	jne    53de <main+0x40c7>
    53d9:	e9 49 71 00 00       	jmp    c527 <main+0xb210>
    53de:	48 8d 05 43 9c 00 00 	lea    rax,[rip+0x9c43]        # f028 <_IO_stdin_used+0x28>
    53e5:	48 89 c7             	mov    rdi,rax
    53e8:	e8 d3 bc ff ff       	call   10c0 <puts@plt>
    53ed:	bf 01 00 00 00       	mov    edi,0x1
    53f2:	e8 39 bd ff ff       	call   1130 <exit@plt>
    53f7:	be ba 00 00 00       	mov    esi,0xba
    53fc:	48 8d 05 16 9c 00 00 	lea    rax,[rip+0x9c16]        # f019 <_IO_stdin_used+0x19>
    5403:	48 89 c7             	mov    rdi,rax
    5406:	b8 00 00 00 00       	mov    eax,0x0
    540b:	e8 e0 bc ff ff       	call   10f0 <printf@plt>
    5410:	b8 00 00 00 00       	mov    eax,0x0
    5415:	e8 56 be ff ff       	call   1270 <get_input>
    541a:	89 45 fc             	mov    DWORD PTR [rbp-0x4],eax
    541d:	81 7d fc 74 01 00 00 	cmp    DWORD PTR [rbp-0x4],0x174
    5424:	75 05                	jne    542b <main+0x4114>
    5426:	e9 ac 40 00 00       	jmp    94d7 <main+0x81c0>
    542b:	83 7d fc 37          	cmp    DWORD PTR [rbp-0x4],0x37
    542f:	0f 84 a3 d1 ff ff    	je     25d8 <main+0x12c1>
    5435:	48 8d 05 ec 9b 00 00 	lea    rax,[rip+0x9bec]        # f028 <_IO_stdin_used+0x28>
    543c:	48 89 c7             	mov    rdi,rax
    543f:	e8 7c bc ff ff       	call   10c0 <puts@plt>
    5444:	bf 01 00 00 00       	mov    edi,0x1
    5449:	e8 e2 bc ff ff       	call   1130 <exit@plt>
    544e:	be bb 00 00 00       	mov    esi,0xbb
    5453:	48 8d 05 bf 9b 00 00 	lea    rax,[rip+0x9bbf]        # f019 <_IO_stdin_used+0x19>
    545a:	48 89 c7             	mov    rdi,rax
    545d:	b8 00 00 00 00       	mov    eax,0x0
    5462:	e8 89 bc ff ff       	call   10f0 <printf@plt>
    5467:	b8 00 00 00 00       	mov    eax,0x0
    546c:	e8 ff bd ff ff       	call   1270 <get_input>
    5471:	89 45 fc             	mov    DWORD PTR [rbp-0x4],eax
    5474:	81 7d fc 09 01 00 00 	cmp    DWORD PTR [rbp-0x4],0x109
    547b:	75 05                	jne    5482 <main+0x416b>
    547d:	e9 e5 1a 00 00       	jmp    6f67 <main+0x5c50>
    5482:	81 7d fc 66 01 00 00 	cmp    DWORD PTR [rbp-0x4],0x166
    5489:	75 05                	jne    5490 <main+0x4179>
    548b:	e9 63 3b 00 00       	jmp    8ff3 <main+0x7cdc>
    5490:	48 8d 05 91 9b 00 00 	lea    rax,[rip+0x9b91]        # f028 <_IO_stdin_used+0x28>
    5497:	48 89 c7             	mov    rdi,rax
    549a:	e8 21 bc ff ff       	call   10c0 <puts@plt>
    549f:	bf 01 00 00 00       	mov    edi,0x1
    54a4:	e8 87 bc ff ff       	call   1130 <exit@plt>
    54a9:	be bc 00 00 00       	mov    esi,0xbc
    54ae:	48 8d 05 64 9b 00 00 	lea    rax,[rip+0x9b64]        # f019 <_IO_stdin_used+0x19>
    54b5:	48 89 c7             	mov    rdi,rax
    54b8:	b8 00 00 00 00       	mov    eax,0x0
    54bd:	e8 2e bc ff ff       	call   10f0 <printf@plt>
    54c2:	b8 00 00 00 00       	mov    eax,0x0
    54c7:	e8 a4 bd ff ff       	call   1270 <get_input>
    54cc:	89 45 fc             	mov    DWORD PTR [rbp-0x4],eax
    54cf:	81 7d fc 98 00 00 00 	cmp    DWORD PTR [rbp-0x4],0x98
    54d6:	75 05                	jne    54dd <main+0x41c6>
    54d8:	e9 44 f3 ff ff       	jmp    4821 <main+0x350a>
    54dd:	81 7d fc 96 01 00 00 	cmp    DWORD PTR [rbp-0x4],0x196
    54e4:	75 05                	jne    54eb <main+0x41d4>
    54e6:	e9 10 4c 00 00       	jmp    a0fb <main+0x8de4>
    54eb:	48 8d 05 36 9b 00 00 	lea    rax,[rip+0x9b36]        # f028 <_IO_stdin_used+0x28>
    54f2:	48 89 c7             	mov    rdi,rax
    54f5:	e8 c6 bb ff ff       	call   10c0 <puts@plt>
    54fa:	bf 01 00 00 00       	mov    edi,0x1
    54ff:	e8 2c bc ff ff       	call   1130 <exit@plt>
    5504:	be bd 00 00 00       	mov    esi,0xbd
    5509:	48 8d 05 09 9b 00 00 	lea    rax,[rip+0x9b09]        # f019 <_IO_stdin_used+0x19>
    5510:	48 89 c7             	mov    rdi,rax
    5513:	b8 00 00 00 00       	mov    eax,0x0
    5518:	e8 d3 bb ff ff       	call   10f0 <printf@plt>
    551d:	b8 00 00 00 00       	mov    eax,0x0
    5522:	e8 49 bd ff ff       	call   1270 <get_input>
    5527:	89 45 fc             	mov    DWORD PTR [rbp-0x4],eax
    552a:	81 7d fc 8d 01 00 00 	cmp    DWORD PTR [rbp-0x4],0x18d
    5531:	75 05                	jne    5538 <main+0x4221>
    5533:	e9 78 48 00 00       	jmp    9db0 <main+0x8a99>
    5538:	83 7d fc 1c          	cmp    DWORD PTR [rbp-0x4],0x1c
    553c:	75 05                	jne    5543 <main+0x422c>
    553e:	e9 80 c7 ff ff       	jmp    1cc3 <main+0x9ac>
    5543:	81 7d fc 3a 02 00 00 	cmp    DWORD PTR [rbp-0x4],0x23a
    554a:	75 05                	jne    5551 <main+0x423a>
    554c:	e9 f4 84 00 00       	jmp    da45 <main+0xc72e>
    5551:	81 7d fc 48 02 00 00 	cmp    DWORD PTR [rbp-0x4],0x248
    5558:	0f 84 0e 8a 00 00    	je     df6c <main+0xcc55>
    555e:	48 8d 05 c3 9a 00 00 	lea    rax,[rip+0x9ac3]        # f028 <_IO_stdin_used+0x28>
    5565:	48 89 c7             	mov    rdi,rax
    5568:	e8 53 bb ff ff       	call   10c0 <puts@plt>
    556d:	bf 01 00 00 00       	mov    edi,0x1
    5572:	e8 b9 bb ff ff       	call   1130 <exit@plt>
    5577:	be be 00 00 00       	mov    esi,0xbe
    557c:	48 8d 05 96 9a 00 00 	lea    rax,[rip+0x9a96]        # f019 <_IO_stdin_used+0x19>
    5583:	48 89 c7             	mov    rdi,rax
    5586:	b8 00 00 00 00       	mov    eax,0x0
    558b:	e8 60 bb ff ff       	call   10f0 <printf@plt>
    5590:	b8 00 00 00 00       	mov    eax,0x0
    5595:	e8 d6 bc ff ff       	call   1270 <get_input>
    559a:	89 45 fc             	mov    DWORD PTR [rbp-0x4],eax
    559d:	83 7d fc 21          	cmp    DWORD PTR [rbp-0x4],0x21
    55a1:	75 05                	jne    55a8 <main+0x4291>
    55a3:	e9 ef c8 ff ff       	jmp    1e97 <main+0xb80>
    55a8:	83 7d fc 0b          	cmp    DWORD PTR [rbp-0x4],0xb
    55ac:	75 05                	jne    55b3 <main+0x429c>
    55ae:	e9 21 c1 ff ff       	jmp    16d4 <main+0x3bd>
    55b3:	48 8d 05 6e 9a 00 00 	lea    rax,[rip+0x9a6e]        # f028 <_IO_stdin_used+0x28>
    55ba:	48 89 c7             	mov    rdi,rax
    55bd:	e8 fe ba ff ff       	call   10c0 <puts@plt>
    55c2:	bf 01 00 00 00       	mov    edi,0x1
    55c7:	e8 64 bb ff ff       	call   1130 <exit@plt>
    55cc:	be bf 00 00 00       	mov    esi,0xbf
    55d1:	48 8d 05 41 9a 00 00 	lea    rax,[rip+0x9a41]        # f019 <_IO_stdin_used+0x19>
    55d8:	48 89 c7             	mov    rdi,rax
    55db:	b8 00 00 00 00       	mov    eax,0x0
    55e0:	e8 0b bb ff ff       	call   10f0 <printf@plt>
    55e5:	b8 00 00 00 00       	mov    eax,0x0
    55ea:	e8 81 bc ff ff       	call   1270 <get_input>
    55ef:	89 45 fc             	mov    DWORD PTR [rbp-0x4],eax
    55f2:	81 7d fc 12 02 00 00 	cmp    DWORD PTR [rbp-0x4],0x212
    55f9:	75 05                	jne    5600 <main+0x42e9>
    55fb:	e9 de 75 00 00       	jmp    cbde <main+0xb8c7>
    5600:	81 7d fc 6c 02 00 00 	cmp    DWORD PTR [rbp-0x4],0x26c
    5607:	75 05                	jne    560e <main+0x42f7>
    5609:	e9 75 96 00 00       	jmp    ec83 <main+0xd96c>
    560e:	83 7d fc 35          	cmp    DWORD PTR [rbp-0x4],0x35
    5612:	75 05                	jne    5619 <main+0x4302>
    5614:	e9 1c cf ff ff       	jmp    2535 <main+0x121e>
    5619:	48 8d 05 08 9a 00 00 	lea    rax,[rip+0x9a08]        # f028 <_IO_stdin_used+0x28>
    5620:	48 89 c7             	mov    rdi,rax
    5623:	e8 98 ba ff ff       	call   10c0 <puts@plt>
    5628:	bf 01 00 00 00       	mov    edi,0x1
    562d:	e8 fe ba ff ff       	call   1130 <exit@plt>
    5632:	be c0 00 00 00       	mov    esi,0xc0
    5637:	48 8d 05 db 99 00 00 	lea    rax,[rip+0x99db]        # f019 <_IO_stdin_used+0x19>
    563e:	48 89 c7             	mov    rdi,rax
    5641:	b8 00 00 00 00       	mov    eax,0x0
    5646:	e8 a5 ba ff ff       	call   10f0 <printf@plt>
    564b:	b8 00 00 00 00       	mov    eax,0x0
    5650:	e8 1b bc ff ff       	call   1270 <get_input>
    5655:	89 45 fc             	mov    DWORD PTR [rbp-0x4],eax
    5658:	81 7d fc 53 02 00 00 	cmp    DWORD PTR [rbp-0x4],0x253
    565f:	75 05                	jne    5666 <main+0x434f>
    5661:	e9 22 8d 00 00       	jmp    e388 <main+0xd071>
    5666:	81 7d fc 7f 01 00 00 	cmp    DWORD PTR [rbp-0x4],0x17f
    566d:	75 05                	jne    5674 <main+0x435d>
    566f:	e9 3b 42 00 00       	jmp    98af <main+0x8598>
    5674:	81 7d fc 73 01 00 00 	cmp    DWORD PTR [rbp-0x4],0x173
    567b:	75 05                	jne    5682 <main+0x436b>
    567d:	e9 fa 3d 00 00       	jmp    947c <main+0x8165>
    5682:	48 8d 05 9f 99 00 00 	lea    rax,[rip+0x999f]        # f028 <_IO_stdin_used+0x28>
    5689:	48 89 c7             	mov    rdi,rax
    568c:	e8 2f ba ff ff       	call   10c0 <puts@plt>
    5691:	bf 01 00 00 00       	mov    edi,0x1
    5696:	e8 95 ba ff ff       	call   1130 <exit@plt>
    569b:	90                   	nop
    569c:	be c1 00 00 00       	mov    esi,0xc1
    56a1:	48 8d 05 71 99 00 00 	lea    rax,[rip+0x9971]        # f019 <_IO_stdin_used+0x19>
    56a8:	48 89 c7             	mov    rdi,rax
    56ab:	b8 00 00 00 00       	mov    eax,0x0
    56b0:	e8 3b ba ff ff       	call   10f0 <printf@plt>
    56b5:	b8 00 00 00 00       	mov    eax,0x0
    56ba:	e8 b1 bb ff ff       	call   1270 <get_input>
    56bf:	89 45 fc             	mov    DWORD PTR [rbp-0x4],eax
    56c2:	83 7d fc 5d          	cmp    DWORD PTR [rbp-0x4],0x5d
    56c6:	75 05                	jne    56cd <main+0x43b6>
    56c8:	e9 6e dc ff ff       	jmp    333b <main+0x2024>
    56cd:	48 8d 05 54 99 00 00 	lea    rax,[rip+0x9954]        # f028 <_IO_stdin_used+0x28>
    56d4:	48 89 c7             	mov    rdi,rax
    56d7:	e8 e4 b9 ff ff       	call   10c0 <puts@plt>
    56dc:	bf 01 00 00 00       	mov    edi,0x1
    56e1:	e8 4a ba ff ff       	call   1130 <exit@plt>
    56e6:	be c2 00 00 00       	mov    esi,0xc2
    56eb:	48 8d 05 27 99 00 00 	lea    rax,[rip+0x9927]        # f019 <_IO_stdin_used+0x19>
    56f2:	48 89 c7             	mov    rdi,rax
    56f5:	b8 00 00 00 00       	mov    eax,0x0
    56fa:	e8 f1 b9 ff ff       	call   10f0 <printf@plt>
    56ff:	b8 00 00 00 00       	mov    eax,0x0
    5704:	e8 67 bb ff ff       	call   1270 <get_input>
    5709:	89 45 fc             	mov    DWORD PTR [rbp-0x4],eax
    570c:	81 7d fc 4e 02 00 00 	cmp    DWORD PTR [rbp-0x4],0x24e
    5713:	75 05                	jne    571a <main+0x4403>
    5715:	e9 74 8a 00 00       	jmp    e18e <main+0xce77>
    571a:	83 7d fc 02          	cmp    DWORD PTR [rbp-0x4],0x2
    571e:	0f 84 a4 bc ff ff    	je     13c8 <main+0xb1>
    5724:	48 8d 05 fd 98 00 00 	lea    rax,[rip+0x98fd]        # f028 <_IO_stdin_used+0x28>
    572b:	48 89 c7             	mov    rdi,rax
    572e:	e8 8d b9 ff ff       	call   10c0 <puts@plt>
    5733:	bf 01 00 00 00       	mov    edi,0x1
    5738:	e8 f3 b9 ff ff       	call   1130 <exit@plt>
    573d:	90                   	nop
    573e:	be c3 00 00 00       	mov    esi,0xc3
    5743:	48 8d 05 cf 98 00 00 	lea    rax,[rip+0x98cf]        # f019 <_IO_stdin_used+0x19>
    574a:	48 89 c7             	mov    rdi,rax
    574d:	b8 00 00 00 00       	mov    eax,0x0
    5752:	e8 99 b9 ff ff       	call   10f0 <printf@plt>
    5757:	b8 00 00 00 00       	mov    eax,0x0
    575c:	e8 0f bb ff ff       	call   1270 <get_input>
    5761:	89 45 fc             	mov    DWORD PTR [rbp-0x4],eax
    5764:	81 7d fc 48 01 00 00 	cmp    DWORD PTR [rbp-0x4],0x148
    576b:	75 05                	jne    5772 <main+0x445b>
    576d:	e9 fb 2d 00 00       	jmp    856d <main+0x7256>
    5772:	48 8d 05 af 98 00 00 	lea    rax,[rip+0x98af]        # f028 <_IO_stdin_used+0x28>
    5779:	48 89 c7             	mov    rdi,rax
    577c:	e8 3f b9 ff ff       	call   10c0 <puts@plt>
    5781:	bf 01 00 00 00       	mov    edi,0x1
    5786:	e8 a5 b9 ff ff       	call   1130 <exit@plt>
    578b:	be c4 00 00 00       	mov    esi,0xc4
    5790:	48 8d 05 82 98 00 00 	lea    rax,[rip+0x9882]        # f019 <_IO_stdin_used+0x19>
    5797:	48 89 c7             	mov    rdi,rax
    579a:	b8 00 00 00 00       	mov    eax,0x0
    579f:	e8 4c b9 ff ff       	call   10f0 <printf@plt>
    57a4:	b8 00 00 00 00       	mov    eax,0x0
    57a9:	e8 c2 ba ff ff       	call   1270 <get_input>
    57ae:	89 45 fc             	mov    DWORD PTR [rbp-0x4],eax
    57b1:	81 7d fc 4a 02 00 00 	cmp    DWORD PTR [rbp-0x4],0x24a
    57b8:	75 05                	jne    57bf <main+0x44a8>
    57ba:	e9 56 88 00 00       	jmp    e015 <main+0xccfe>
    57bf:	81 7d fc 8a 01 00 00 	cmp    DWORD PTR [rbp-0x4],0x18a
    57c6:	75 05                	jne    57cd <main+0x44b6>
    57c8:	e9 cb 44 00 00       	jmp    9c98 <main+0x8981>
    57cd:	48 8d 05 54 98 00 00 	lea    rax,[rip+0x9854]        # f028 <_IO_stdin_used+0x28>
    57d4:	48 89 c7             	mov    rdi,rax
    57d7:	e8 e4 b8 ff ff       	call   10c0 <puts@plt>
    57dc:	bf 01 00 00 00       	mov    edi,0x1
    57e1:	e8 4a b9 ff ff       	call   1130 <exit@plt>
    57e6:	90                   	nop
    57e7:	be c5 00 00 00       	mov    esi,0xc5
    57ec:	48 8d 05 26 98 00 00 	lea    rax,[rip+0x9826]        # f019 <_IO_stdin_used+0x19>
    57f3:	48 89 c7             	mov    rdi,rax
    57f6:	b8 00 00 00 00       	mov    eax,0x0
    57fb:	e8 f0 b8 ff ff       	call   10f0 <printf@plt>
    5800:	b8 00 00 00 00       	mov    eax,0x0
    5805:	e8 66 ba ff ff       	call   1270 <get_input>
    580a:	89 45 fc             	mov    DWORD PTR [rbp-0x4],eax
    580d:	81 7d fc 5a 02 00 00 	cmp    DWORD PTR [rbp-0x4],0x25a
    5814:	75 05                	jne    581b <main+0x4504>
    5816:	e9 d7 8d 00 00       	jmp    e5f2 <main+0xd2db>
    581b:	48 8d 05 06 98 00 00 	lea    rax,[rip+0x9806]        # f028 <_IO_stdin_used+0x28>
    5822:	48 89 c7             	mov    rdi,rax
    5825:	e8 96 b8 ff ff       	call   10c0 <puts@plt>
    582a:	bf 01 00 00 00       	mov    edi,0x1
    582f:	e8 fc b8 ff ff       	call   1130 <exit@plt>
    5834:	90                   	nop
    5835:	be c6 00 00 00       	mov    esi,0xc6
    583a:	48 8d 05 d8 97 00 00 	lea    rax,[rip+0x97d8]        # f019 <_IO_stdin_used+0x19>
    5841:	48 89 c7             	mov    rdi,rax
    5844:	b8 00 00 00 00       	mov    eax,0x0
    5849:	e8 a2 b8 ff ff       	call   10f0 <printf@plt>
    584e:	b8 00 00 00 00       	mov    eax,0x0
    5853:	e8 18 ba ff ff       	call   1270 <get_input>
    5858:	89 45 fc             	mov    DWORD PTR [rbp-0x4],eax
    585b:	81 7d fc de 00 00 00 	cmp    DWORD PTR [rbp-0x4],0xde
    5862:	75 05                	jne    5869 <main+0x4552>
    5864:	e9 24 08 00 00       	jmp    608d <main+0x4d76>
    5869:	48 8d 05 b8 97 00 00 	lea    rax,[rip+0x97b8]        # f028 <_IO_stdin_used+0x28>
    5870:	48 89 c7             	mov    rdi,rax
    5873:	e8 48 b8 ff ff       	call   10c0 <puts@plt>
    5878:	bf 01 00 00 00       	mov    edi,0x1
    587d:	e8 ae b8 ff ff       	call   1130 <exit@plt>
    5882:	be c7 00 00 00       	mov    esi,0xc7
    5887:	48 8d 05 8b 97 00 00 	lea    rax,[rip+0x978b]        # f019 <_IO_stdin_used+0x19>
    588e:	48 89 c7             	mov    rdi,rax
    5891:	b8 00 00 00 00       	mov    eax,0x0
    5896:	e8 55 b8 ff ff       	call   10f0 <printf@plt>
    589b:	b8 00 00 00 00       	mov    eax,0x0
    58a0:	e8 cb b9 ff ff       	call   1270 <get_input>
    58a5:	89 45 fc             	mov    DWORD PTR [rbp-0x4],eax
    58a8:	81 7d fc 15 01 00 00 	cmp    DWORD PTR [rbp-0x4],0x115
    58af:	75 05                	jne    58b6 <main+0x459f>
    58b1:	e9 dd 1a 00 00       	jmp    7393 <main+0x607c>
    58b6:	81 7d fc 4a 01 00 00 	cmp    DWORD PTR [rbp-0x4],0x14a
    58bd:	75 05                	jne    58c4 <main+0x45ad>
    58bf:	e9 5e 2d 00 00       	jmp    8622 <main+0x730b>
    58c4:	48 8d 05 5d 97 00 00 	lea    rax,[rip+0x975d]        # f028 <_IO_stdin_used+0x28>
    58cb:	48 89 c7             	mov    rdi,rax
    58ce:	e8 ed b7 ff ff       	call   10c0 <puts@plt>
    58d3:	bf 01 00 00 00       	mov    edi,0x1
    58d8:	e8 53 b8 ff ff       	call   1130 <exit@plt>
    58dd:	be c8 00 00 00       	mov    esi,0xc8
    58e2:	48 8d 05 30 97 00 00 	lea    rax,[rip+0x9730]        # f019 <_IO_stdin_used+0x19>
    58e9:	48 89 c7             	mov    rdi,rax
    58ec:	b8 00 00 00 00       	mov    eax,0x0
    58f1:	e8 fa b7 ff ff       	call   10f0 <printf@plt>
    58f6:	b8 00 00 00 00       	mov    eax,0x0
    58fb:	e8 70 b9 ff ff       	call   1270 <get_input>
    5900:	89 45 fc             	mov    DWORD PTR [rbp-0x4],eax
    5903:	81 7d fc 43 02 00 00 	cmp    DWORD PTR [rbp-0x4],0x243
    590a:	75 05                	jne    5911 <main+0x45fa>
    590c:	e9 58 84 00 00       	jmp    dd69 <main+0xca52>
    5911:	81 7d fc 8c 00 00 00 	cmp    DWORD PTR [rbp-0x4],0x8c
    5918:	75 05                	jne    591f <main+0x4608>
    591a:	e9 bc ea ff ff       	jmp    43db <main+0x30c4>
    591f:	48 8d 05 02 97 00 00 	lea    rax,[rip+0x9702]        # f028 <_IO_stdin_used+0x28>
    5926:	48 89 c7             	mov    rdi,rax
    5929:	e8 92 b7 ff ff       	call   10c0 <puts@plt>
    592e:	bf 01 00 00 00       	mov    edi,0x1
    5933:	e8 f8 b7 ff ff       	call   1130 <exit@plt>
    5938:	be c9 00 00 00       	mov    esi,0xc9
    593d:	48 8d 05 d5 96 00 00 	lea    rax,[rip+0x96d5]        # f019 <_IO_stdin_used+0x19>
    5944:	48 89 c7             	mov    rdi,rax
    5947:	b8 00 00 00 00       	mov    eax,0x0
    594c:	e8 9f b7 ff ff       	call   10f0 <printf@plt>
    5951:	b8 00 00 00 00       	mov    eax,0x0
    5956:	e8 15 b9 ff ff       	call   1270 <get_input>
    595b:	89 45 fc             	mov    DWORD PTR [rbp-0x4],eax
    595e:	81 7d fc 47 02 00 00 	cmp    DWORD PTR [rbp-0x4],0x247
    5965:	75 05                	jne    596c <main+0x4655>
    5967:	e9 9d 85 00 00       	jmp    df09 <main+0xcbf2>
    596c:	81 7d fc aa 01 00 00 	cmp    DWORD PTR [rbp-0x4],0x1aa
    5973:	75 05                	jne    597a <main+0x4663>
    5975:	e9 c8 4e 00 00       	jmp    a842 <main+0x952b>
    597a:	48 8d 05 a7 96 00 00 	lea    rax,[rip+0x96a7]        # f028 <_IO_stdin_used+0x28>
    5981:	48 89 c7             	mov    rdi,rax
    5984:	e8 37 b7 ff ff       	call   10c0 <puts@plt>
    5989:	bf 01 00 00 00       	mov    edi,0x1
    598e:	e8 9d b7 ff ff       	call   1130 <exit@plt>
    5993:	be ca 00 00 00       	mov    esi,0xca
    5998:	48 8d 05 7a 96 00 00 	lea    rax,[rip+0x967a]        # f019 <_IO_stdin_used+0x19>
    599f:	48 89 c7             	mov    rdi,rax
    59a2:	b8 00 00 00 00       	mov    eax,0x0
    59a7:	e8 44 b7 ff ff       	call   10f0 <printf@plt>
    59ac:	b8 00 00 00 00       	mov    eax,0x0
    59b1:	e8 ba b8 ff ff       	call   1270 <get_input>
    59b6:	89 45 fc             	mov    DWORD PTR [rbp-0x4],eax
    59b9:	81 7d fc 06 02 00 00 	cmp    DWORD PTR [rbp-0x4],0x206
    59c0:	75 05                	jne    59c7 <main+0x46b0>
    59c2:	e9 e3 6d 00 00       	jmp    c7aa <main+0xb493>
    59c7:	83 7d fc 57          	cmp    DWORD PTR [rbp-0x4],0x57
    59cb:	75 05                	jne    59d2 <main+0x46bb>
    59cd:	e9 65 d7 ff ff       	jmp    3137 <main+0x1e20>
    59d2:	83 7d fc 14          	cmp    DWORD PTR [rbp-0x4],0x14
    59d6:	75 05                	jne    59dd <main+0x46c6>
    59d8:	e9 20 c0 ff ff       	jmp    19fd <main+0x6e6>
    59dd:	48 8d 05 44 96 00 00 	lea    rax,[rip+0x9644]        # f028 <_IO_stdin_used+0x28>
    59e4:	48 89 c7             	mov    rdi,rax
    59e7:	e8 d4 b6 ff ff       	call   10c0 <puts@plt>
    59ec:	bf 01 00 00 00       	mov    edi,0x1
    59f1:	e8 3a b7 ff ff       	call   1130 <exit@plt>
    59f6:	90                   	nop
    59f7:	be cb 00 00 00       	mov    esi,0xcb
    59fc:	48 8d 05 16 96 00 00 	lea    rax,[rip+0x9616]        # f019 <_IO_stdin_used+0x19>
    5a03:	48 89 c7             	mov    rdi,rax
    5a06:	b8 00 00 00 00       	mov    eax,0x0
    5a0b:	e8 e0 b6 ff ff       	call   10f0 <printf@plt>
    5a10:	b8 00 00 00 00       	mov    eax,0x0
    5a15:	e8 56 b8 ff ff       	call   1270 <get_input>
    5a1a:	89 45 fc             	mov    DWORD PTR [rbp-0x4],eax
    5a1d:	83 7d fc 59          	cmp    DWORD PTR [rbp-0x4],0x59
    5a21:	75 05                	jne    5a28 <main+0x4711>
    5a23:	e9 b5 d7 ff ff       	jmp    31dd <main+0x1ec6>
    5a28:	48 8d 05 f9 95 00 00 	lea    rax,[rip+0x95f9]        # f028 <_IO_stdin_used+0x28>
    5a2f:	48 89 c7             	mov    rdi,rax
    5a32:	e8 89 b6 ff ff       	call   10c0 <puts@plt>
    5a37:	bf 01 00 00 00       	mov    edi,0x1
    5a3c:	e8 ef b6 ff ff       	call   1130 <exit@plt>
    5a41:	be cc 00 00 00       	mov    esi,0xcc
    5a46:	48 8d 05 cc 95 00 00 	lea    rax,[rip+0x95cc]        # f019 <_IO_stdin_used+0x19>
    5a4d:	48 89 c7             	mov    rdi,rax
    5a50:	b8 00 00 00 00       	mov    eax,0x0
    5a55:	e8 96 b6 ff ff       	call   10f0 <printf@plt>
    5a5a:	b8 00 00 00 00       	mov    eax,0x0
    5a5f:	e8 0c b8 ff ff       	call   1270 <get_input>
    5a64:	89 45 fc             	mov    DWORD PTR [rbp-0x4],eax
    5a67:	81 7d fc b8 01 00 00 	cmp    DWORD PTR [rbp-0x4],0x1b8
    5a6e:	75 05                	jne    5a75 <main+0x475e>
    5a70:	e9 70 52 00 00       	jmp    ace5 <main+0x99ce>
    5a75:	81 7d fc 26 02 00 00 	cmp    DWORD PTR [rbp-0x4],0x226
    5a7c:	75 05                	jne    5a83 <main+0x476c>
    5a7e:	e9 61 78 00 00       	jmp    d2e4 <main+0xbfcd>
    5a83:	48 8d 05 9e 95 00 00 	lea    rax,[rip+0x959e]        # f028 <_IO_stdin_used+0x28>
    5a8a:	48 89 c7             	mov    rdi,rax
    5a8d:	e8 2e b6 ff ff       	call   10c0 <puts@plt>
    5a92:	bf 01 00 00 00       	mov    edi,0x1
    5a97:	e8 94 b6 ff ff       	call   1130 <exit@plt>
    5a9c:	be cd 00 00 00       	mov    esi,0xcd
    5aa1:	48 8d 05 71 95 00 00 	lea    rax,[rip+0x9571]        # f019 <_IO_stdin_used+0x19>
    5aa8:	48 89 c7             	mov    rdi,rax
    5aab:	b8 00 00 00 00       	mov    eax,0x0
    5ab0:	e8 3b b6 ff ff       	call   10f0 <printf@plt>
    5ab5:	b8 00 00 00 00       	mov    eax,0x0
    5aba:	e8 b1 b7 ff ff       	call   1270 <get_input>
    5abf:	89 45 fc             	mov    DWORD PTR [rbp-0x4],eax
    5ac2:	81 7d fc 55 02 00 00 	cmp    DWORD PTR [rbp-0x4],0x255
    5ac9:	75 05                	jne    5ad0 <main+0x47b9>
    5acb:	e9 7b 89 00 00       	jmp    e44b <main+0xd134>
    5ad0:	81 7d fc a0 00 00 00 	cmp    DWORD PTR [rbp-0x4],0xa0
    5ad7:	75 05                	jne    5ade <main+0x47c7>
    5ad9:	e9 21 f0 ff ff       	jmp    4aff <main+0x37e8>
    5ade:	48 8d 05 43 95 00 00 	lea    rax,[rip+0x9543]        # f028 <_IO_stdin_used+0x28>
    5ae5:	48 89 c7             	mov    rdi,rax
    5ae8:	e8 d3 b5 ff ff       	call   10c0 <puts@plt>
    5aed:	bf 01 00 00 00       	mov    edi,0x1
    5af2:	e8 39 b6 ff ff       	call   1130 <exit@plt>
    5af7:	90                   	nop
    5af8:	be ce 00 00 00       	mov    esi,0xce
    5afd:	48 8d 05 15 95 00 00 	lea    rax,[rip+0x9515]        # f019 <_IO_stdin_used+0x19>
    5b04:	48 89 c7             	mov    rdi,rax
    5b07:	b8 00 00 00 00       	mov    eax,0x0
    5b0c:	e8 df b5 ff ff       	call   10f0 <printf@plt>
    5b11:	b8 00 00 00 00       	mov    eax,0x0
    5b16:	e8 55 b7 ff ff       	call   1270 <get_input>
    5b1b:	89 45 fc             	mov    DWORD PTR [rbp-0x4],eax
    5b1e:	81 7d fc dd 01 00 00 	cmp    DWORD PTR [rbp-0x4],0x1dd
    5b25:	75 05                	jne    5b2c <main+0x4815>
    5b27:	e9 b0 5e 00 00       	jmp    b9dc <main+0xa6c5>
    5b2c:	48 8d 05 f5 94 00 00 	lea    rax,[rip+0x94f5]        # f028 <_IO_stdin_used+0x28>
    5b33:	48 89 c7             	mov    rdi,rax
    5b36:	e8 85 b5 ff ff       	call   10c0 <puts@plt>
    5b3b:	bf 01 00 00 00       	mov    edi,0x1
    5b40:	e8 eb b5 ff ff       	call   1130 <exit@plt>
    5b45:	be cf 00 00 00       	mov    esi,0xcf
    5b4a:	48 8d 05 c8 94 00 00 	lea    rax,[rip+0x94c8]        # f019 <_IO_stdin_used+0x19>
    5b51:	48 89 c7             	mov    rdi,rax
    5b54:	b8 00 00 00 00       	mov    eax,0x0
    5b59:	e8 92 b5 ff ff       	call   10f0 <printf@plt>
    5b5e:	b8 00 00 00 00       	mov    eax,0x0
    5b63:	e8 08 b7 ff ff       	call   1270 <get_input>
    5b68:	89 45 fc             	mov    DWORD PTR [rbp-0x4],eax
    5b6b:	81 7d fc 92 01 00 00 	cmp    DWORD PTR [rbp-0x4],0x192
    5b72:	75 05                	jne    5b79 <main+0x4862>
    5b74:	e9 0e 44 00 00       	jmp    9f87 <main+0x8c70>
    5b79:	81 7d fc 13 01 00 00 	cmp    DWORD PTR [rbp-0x4],0x113
    5b80:	0f 84 5f 17 00 00    	je     72e5 <main+0x5fce>
    5b86:	83 7d fc 0e          	cmp    DWORD PTR [rbp-0x4],0xe
    5b8a:	75 05                	jne    5b91 <main+0x487a>
    5b8c:	e9 43 bc ff ff       	jmp    17d4 <main+0x4bd>
    5b91:	48 8d 05 90 94 00 00 	lea    rax,[rip+0x9490]        # f028 <_IO_stdin_used+0x28>
    5b98:	48 89 c7             	mov    rdi,rax
    5b9b:	e8 20 b5 ff ff       	call   10c0 <puts@plt>
    5ba0:	bf 01 00 00 00       	mov    edi,0x1
    5ba5:	e8 86 b5 ff ff       	call   1130 <exit@plt>
    5baa:	90                   	nop
    5bab:	be d0 00 00 00       	mov    esi,0xd0
    5bb0:	48 8d 05 62 94 00 00 	lea    rax,[rip+0x9462]        # f019 <_IO_stdin_used+0x19>
    5bb7:	48 89 c7             	mov    rdi,rax
    5bba:	b8 00 00 00 00       	mov    eax,0x0
    5bbf:	e8 2c b5 ff ff       	call   10f0 <printf@plt>
    5bc4:	b8 00 00 00 00       	mov    eax,0x0
    5bc9:	e8 a2 b6 ff ff       	call   1270 <get_input>
    5bce:	89 45 fc             	mov    DWORD PTR [rbp-0x4],eax
    5bd1:	81 7d fc eb 00 00 00 	cmp    DWORD PTR [rbp-0x4],0xeb
    5bd8:	75 05                	jne    5bdf <main+0x48c8>
    5bda:	e9 0a 09 00 00       	jmp    64e9 <main+0x51d2>
    5bdf:	48 8d 05 42 94 00 00 	lea    rax,[rip+0x9442]        # f028 <_IO_stdin_used+0x28>
    5be6:	48 89 c7             	mov    rdi,rax
    5be9:	e8 d2 b4 ff ff       	call   10c0 <puts@plt>
    5bee:	bf 01 00 00 00       	mov    edi,0x1
    5bf3:	e8 38 b5 ff ff       	call   1130 <exit@plt>
    5bf8:	be d1 00 00 00       	mov    esi,0xd1
    5bfd:	48 8d 05 15 94 00 00 	lea    rax,[rip+0x9415]        # f019 <_IO_stdin_used+0x19>
    5c04:	48 89 c7             	mov    rdi,rax
    5c07:	b8 00 00 00 00       	mov    eax,0x0
    5c0c:	e8 df b4 ff ff       	call   10f0 <printf@plt>
    5c11:	b8 00 00 00 00       	mov    eax,0x0
    5c16:	e8 55 b6 ff ff       	call   1270 <get_input>
    5c1b:	89 45 fc             	mov    DWORD PTR [rbp-0x4],eax
    5c1e:	81 7d fc 46 02 00 00 	cmp    DWORD PTR [rbp-0x4],0x246
    5c25:	75 05                	jne    5c2c <main+0x4915>
    5c27:	e9 74 82 00 00       	jmp    dea0 <main+0xcb89>
    5c2c:	81 7d fc 3c 02 00 00 	cmp    DWORD PTR [rbp-0x4],0x23c
    5c33:	0f 84 cc 7e 00 00    	je     db05 <main+0xc7ee>
    5c39:	48 8d 05 e8 93 00 00 	lea    rax,[rip+0x93e8]        # f028 <_IO_stdin_used+0x28>
    5c40:	48 89 c7             	mov    rdi,rax
    5c43:	e8 78 b4 ff ff       	call   10c0 <puts@plt>
    5c48:	bf 01 00 00 00       	mov    edi,0x1
    5c4d:	e8 de b4 ff ff       	call   1130 <exit@plt>
    5c52:	be d2 00 00 00       	mov    esi,0xd2
    5c57:	48 8d 05 bb 93 00 00 	lea    rax,[rip+0x93bb]        # f019 <_IO_stdin_used+0x19>
    5c5e:	48 89 c7             	mov    rdi,rax
    5c61:	b8 00 00 00 00       	mov    eax,0x0
    5c66:	e8 85 b4 ff ff       	call   10f0 <printf@plt>
    5c6b:	b8 00 00 00 00       	mov    eax,0x0
    5c70:	e8 fb b5 ff ff       	call   1270 <get_input>
    5c75:	89 45 fc             	mov    DWORD PTR [rbp-0x4],eax
    5c78:	81 7d fc 8d 00 00 00 	cmp    DWORD PTR [rbp-0x4],0x8d
    5c7f:	75 05                	jne    5c86 <main+0x496f>
    5c81:	e9 ad e7 ff ff       	jmp    4433 <main+0x311c>
    5c86:	81 7d fc 57 02 00 00 	cmp    DWORD PTR [rbp-0x4],0x257
    5c8d:	75 05                	jne    5c94 <main+0x497d>
    5c8f:	e9 5d 88 00 00       	jmp    e4f1 <main+0xd1da>
    5c94:	48 8d 05 8d 93 00 00 	lea    rax,[rip+0x938d]        # f028 <_IO_stdin_used+0x28>
    5c9b:	48 89 c7             	mov    rdi,rax
    5c9e:	e8 1d b4 ff ff       	call   10c0 <puts@plt>
    5ca3:	bf 01 00 00 00       	mov    edi,0x1
    5ca8:	e8 83 b4 ff ff       	call   1130 <exit@plt>
    5cad:	be d3 00 00 00       	mov    esi,0xd3
    5cb2:	48 8d 05 60 93 00 00 	lea    rax,[rip+0x9360]        # f019 <_IO_stdin_used+0x19>
    5cb9:	48 89 c7             	mov    rdi,rax
    5cbc:	b8 00 00 00 00       	mov    eax,0x0
    5cc1:	e8 2a b4 ff ff       	call   10f0 <printf@plt>
    5cc6:	b8 00 00 00 00       	mov    eax,0x0
    5ccb:	e8 a0 b5 ff ff       	call   1270 <get_input>
    5cd0:	89 45 fc             	mov    DWORD PTR [rbp-0x4],eax
    5cd3:	81 7d fc f3 00 00 00 	cmp    DWORD PTR [rbp-0x4],0xf3
    5cda:	75 05                	jne    5ce1 <main+0x49ca>
    5cdc:	e9 e0 0a 00 00       	jmp    67c1 <main+0x54aa>
    5ce1:	81 7d fc ae 00 00 00 	cmp    DWORD PTR [rbp-0x4],0xae
    5ce8:	75 05                	jne    5cef <main+0x49d8>
    5cea:	e9 e1 f2 ff ff       	jmp    4fd0 <main+0x3cb9>
    5cef:	48 8d 05 32 93 00 00 	lea    rax,[rip+0x9332]        # f028 <_IO_stdin_used+0x28>
    5cf6:	48 89 c7             	mov    rdi,rax
    5cf9:	e8 c2 b3 ff ff       	call   10c0 <puts@plt>
    5cfe:	bf 01 00 00 00       	mov    edi,0x1
    5d03:	e8 28 b4 ff ff       	call   1130 <exit@plt>
    5d08:	90                   	nop
    5d09:	be d4 00 00 00       	mov    esi,0xd4
    5d0e:	48 8d 05 04 93 00 00 	lea    rax,[rip+0x9304]        # f019 <_IO_stdin_used+0x19>
    5d15:	48 89 c7             	mov    rdi,rax
    5d18:	b8 00 00 00 00       	mov    eax,0x0
    5d1d:	e8 ce b3 ff ff       	call   10f0 <printf@plt>
    5d22:	b8 00 00 00 00       	mov    eax,0x0
    5d27:	e8 44 b5 ff ff       	call   1270 <get_input>
    5d2c:	89 45 fc             	mov    DWORD PTR [rbp-0x4],eax
    5d2f:	81 7d fc b7 01 00 00 	cmp    DWORD PTR [rbp-0x4],0x1b7
    5d36:	75 05                	jne    5d3d <main+0x4a26>
    5d38:	e9 43 4f 00 00       	jmp    ac80 <main+0x9969>
    5d3d:	48 8d 05 e4 92 00 00 	lea    rax,[rip+0x92e4]        # f028 <_IO_stdin_used+0x28>
    5d44:	48 89 c7             	mov    rdi,rax
    5d47:	e8 74 b3 ff ff       	call   10c0 <puts@plt>
    5d4c:	bf 01 00 00 00       	mov    edi,0x1
    5d51:	e8 da b3 ff ff       	call   1130 <exit@plt>
    5d56:	90                   	nop
    5d57:	be d5 00 00 00       	mov    esi,0xd5
    5d5c:	48 8d 05 b6 92 00 00 	lea    rax,[rip+0x92b6]        # f019 <_IO_stdin_used+0x19>
    5d63:	48 89 c7             	mov    rdi,rax
    5d66:	b8 00 00 00 00       	mov    eax,0x0
    5d6b:	e8 80 b3 ff ff       	call   10f0 <printf@plt>
    5d70:	b8 00 00 00 00       	mov    eax,0x0
    5d75:	e8 f6 b4 ff ff       	call   1270 <get_input>
    5d7a:	89 45 fc             	mov    DWORD PTR [rbp-0x4],eax
    5d7d:	81 7d fc 22 02 00 00 	cmp    DWORD PTR [rbp-0x4],0x222
    5d84:	75 05                	jne    5d8b <main+0x4a74>
    5d86:	e9 e2 73 00 00       	jmp    d16d <main+0xbe56>
    5d8b:	48 8d 05 96 92 00 00 	lea    rax,[rip+0x9296]        # f028 <_IO_stdin_used+0x28>
    5d92:	48 89 c7             	mov    rdi,rax
    5d95:	e8 26 b3 ff ff       	call   10c0 <puts@plt>
    5d9a:	bf 01 00 00 00       	mov    edi,0x1
    5d9f:	e8 8c b3 ff ff       	call   1130 <exit@plt>
    5da4:	be d6 00 00 00       	mov    esi,0xd6
    5da9:	48 8d 05 69 92 00 00 	lea    rax,[rip+0x9269]        # f019 <_IO_stdin_used+0x19>
    5db0:	48 89 c7             	mov    rdi,rax
    5db3:	b8 00 00 00 00       	mov    eax,0x0
    5db8:	e8 33 b3 ff ff       	call   10f0 <printf@plt>
    5dbd:	b8 00 00 00 00       	mov    eax,0x0
    5dc2:	e8 a9 b4 ff ff       	call   1270 <get_input>
    5dc7:	89 45 fc             	mov    DWORD PTR [rbp-0x4],eax
    5dca:	81 7d fc f8 01 00 00 	cmp    DWORD PTR [rbp-0x4],0x1f8
    5dd1:	0f 84 3e 65 00 00    	je     c315 <main+0xaffe>
    5dd7:	81 7d fc 04 01 00 00 	cmp    DWORD PTR [rbp-0x4],0x104
    5dde:	75 05                	jne    5de5 <main+0x4ace>
    5de0:	e9 d8 0f 00 00       	jmp    6dbd <main+0x5aa6>
    5de5:	48 8d 05 3c 92 00 00 	lea    rax,[rip+0x923c]        # f028 <_IO_stdin_used+0x28>
    5dec:	48 89 c7             	mov    rdi,rax
    5def:	e8 cc b2 ff ff       	call   10c0 <puts@plt>
    5df4:	bf 01 00 00 00       	mov    edi,0x1
    5df9:	e8 32 b3 ff ff       	call   1130 <exit@plt>
    5dfe:	be d7 00 00 00       	mov    esi,0xd7
    5e03:	48 8d 05 0f 92 00 00 	lea    rax,[rip+0x920f]        # f019 <_IO_stdin_used+0x19>
    5e0a:	48 89 c7             	mov    rdi,rax
    5e0d:	b8 00 00 00 00       	mov    eax,0x0
    5e12:	e8 d9 b2 ff ff       	call   10f0 <printf@plt>
    5e17:	b8 00 00 00 00       	mov    eax,0x0
    5e1c:	e8 4f b4 ff ff       	call   1270 <get_input>
    5e21:	89 45 fc             	mov    DWORD PTR [rbp-0x4],eax
    5e24:	81 7d fc 33 02 00 00 	cmp    DWORD PTR [rbp-0x4],0x233
    5e2b:	75 05                	jne    5e32 <main+0x4b1b>
    5e2d:	e9 7f 79 00 00       	jmp    d7b1 <main+0xc49a>
    5e32:	81 7d fc 46 02 00 00 	cmp    DWORD PTR [rbp-0x4],0x246
    5e39:	75 05                	jne    5e40 <main+0x4b29>
    5e3b:	e9 60 80 00 00       	jmp    dea0 <main+0xcb89>
    5e40:	48 8d 05 e1 91 00 00 	lea    rax,[rip+0x91e1]        # f028 <_IO_stdin_used+0x28>
    5e47:	48 89 c7             	mov    rdi,rax
    5e4a:	e8 71 b2 ff ff       	call   10c0 <puts@plt>
    5e4f:	bf 01 00 00 00       	mov    edi,0x1
    5e54:	e8 d7 b2 ff ff       	call   1130 <exit@plt>
    5e59:	be d8 00 00 00       	mov    esi,0xd8
    5e5e:	48 8d 05 b4 91 00 00 	lea    rax,[rip+0x91b4]        # f019 <_IO_stdin_used+0x19>
    5e65:	48 89 c7             	mov    rdi,rax
    5e68:	b8 00 00 00 00       	mov    eax,0x0
    5e6d:	e8 7e b2 ff ff       	call   10f0 <printf@plt>
    5e72:	b8 00 00 00 00       	mov    eax,0x0
    5e77:	e8 f4 b3 ff ff       	call   1270 <get_input>
    5e7c:	89 45 fc             	mov    DWORD PTR [rbp-0x4],eax
    5e7f:	83 7d fc 12          	cmp    DWORD PTR [rbp-0x4],0x12
    5e83:	75 05                	jne    5e8a <main+0x4b73>
    5e85:	e9 be ba ff ff       	jmp    1948 <main+0x631>
    5e8a:	81 7d fc c1 01 00 00 	cmp    DWORD PTR [rbp-0x4],0x1c1
    5e91:	75 05                	jne    5e98 <main+0x4b81>
    5e93:	e9 6a 51 00 00       	jmp    b002 <main+0x9ceb>
    5e98:	48 8d 05 89 91 00 00 	lea    rax,[rip+0x9189]        # f028 <_IO_stdin_used+0x28>
    5e9f:	48 89 c7             	mov    rdi,rax
    5ea2:	e8 19 b2 ff ff       	call   10c0 <puts@plt>
    5ea7:	bf 01 00 00 00       	mov    edi,0x1
    5eac:	e8 7f b2 ff ff       	call   1130 <exit@plt>
    5eb1:	be d9 00 00 00       	mov    esi,0xd9
    5eb6:	48 8d 05 5c 91 00 00 	lea    rax,[rip+0x915c]        # f019 <_IO_stdin_used+0x19>
    5ebd:	48 89 c7             	mov    rdi,rax
    5ec0:	b8 00 00 00 00       	mov    eax,0x0
    5ec5:	e8 26 b2 ff ff       	call   10f0 <printf@plt>
    5eca:	b8 00 00 00 00       	mov    eax,0x0
    5ecf:	e8 9c b3 ff ff       	call   1270 <get_input>
    5ed4:	89 45 fc             	mov    DWORD PTR [rbp-0x4],eax
    5ed7:	81 7d fc 9a 00 00 00 	cmp    DWORD PTR [rbp-0x4],0x9a
    5ede:	75 05                	jne    5ee5 <main+0x4bce>
    5ee0:	e9 0d ea ff ff       	jmp    48f2 <main+0x35db>
    5ee5:	81 7d fc 03 02 00 00 	cmp    DWORD PTR [rbp-0x4],0x203
    5eec:	0f 84 d1 67 00 00    	je     c6c3 <main+0xb3ac>
    5ef2:	81 7d fc 39 01 00 00 	cmp    DWORD PTR [rbp-0x4],0x139
    5ef9:	75 05                	jne    5f00 <main+0x4be9>
    5efb:	e9 2e 21 00 00       	jmp    802e <main+0x6d17>
    5f00:	48 8d 05 21 91 00 00 	lea    rax,[rip+0x9121]        # f028 <_IO_stdin_used+0x28>
    5f07:	48 89 c7             	mov    rdi,rax
    5f0a:	e8 b1 b1 ff ff       	call   10c0 <puts@plt>
    5f0f:	bf 01 00 00 00       	mov    edi,0x1
    5f14:	e8 17 b2 ff ff       	call   1130 <exit@plt>
    5f19:	90                   	nop
    5f1a:	be da 00 00 00       	mov    esi,0xda
    5f1f:	48 8d 05 f3 90 00 00 	lea    rax,[rip+0x90f3]        # f019 <_IO_stdin_used+0x19>
    5f26:	48 89 c7             	mov    rdi,rax
    5f29:	b8 00 00 00 00       	mov    eax,0x0
    5f2e:	e8 bd b1 ff ff       	call   10f0 <printf@plt>
    5f33:	b8 00 00 00 00       	mov    eax,0x0
    5f38:	e8 33 b3 ff ff       	call   1270 <get_input>
    5f3d:	89 45 fc             	mov    DWORD PTR [rbp-0x4],eax
    5f40:	81 7d fc 8e 00 00 00 	cmp    DWORD PTR [rbp-0x4],0x8e
    5f47:	75 05                	jne    5f4e <main+0x4c37>
    5f49:	e9 3c e5 ff ff       	jmp    448a <main+0x3173>
    5f4e:	48 8d 05 d3 90 00 00 	lea    rax,[rip+0x90d3]        # f028 <_IO_stdin_used+0x28>
    5f55:	48 89 c7             	mov    rdi,rax
    5f58:	e8 63 b1 ff ff       	call   10c0 <puts@plt>
    5f5d:	bf 01 00 00 00       	mov    edi,0x1
    5f62:	e8 c9 b1 ff ff       	call   1130 <exit@plt>
    5f67:	be db 00 00 00       	mov    esi,0xdb
    5f6c:	48 8d 05 a6 90 00 00 	lea    rax,[rip+0x90a6]        # f019 <_IO_stdin_used+0x19>
    5f73:	48 89 c7             	mov    rdi,rax
    5f76:	b8 00 00 00 00       	mov    eax,0x0
    5f7b:	e8 70 b1 ff ff       	call   10f0 <printf@plt>
    5f80:	b8 00 00 00 00       	mov    eax,0x0
    5f85:	e8 e6 b2 ff ff       	call   1270 <get_input>
    5f8a:	89 45 fc             	mov    DWORD PTR [rbp-0x4],eax
    5f8d:	81 7d fc b8 00 00 00 	cmp    DWORD PTR [rbp-0x4],0xb8
    5f94:	75 05                	jne    5f9b <main+0x4c84>
    5f96:	e9 ab f3 ff ff       	jmp    5346 <main+0x402f>
    5f9b:	83 7d fc 5b          	cmp    DWORD PTR [rbp-0x4],0x5b
    5f9f:	75 05                	jne    5fa6 <main+0x4c8f>
    5fa1:	e9 ec d2 ff ff       	jmp    3292 <main+0x1f7b>
    5fa6:	81 7d fc 2e 02 00 00 	cmp    DWORD PTR [rbp-0x4],0x22e
    5fad:	75 05                	jne    5fb4 <main+0x4c9d>
    5faf:	e9 14 76 00 00       	jmp    d5c8 <main+0xc2b1>
    5fb4:	48 8d 05 6d 90 00 00 	lea    rax,[rip+0x906d]        # f028 <_IO_stdin_used+0x28>
    5fbb:	48 89 c7             	mov    rdi,rax
    5fbe:	e8 fd b0 ff ff       	call   10c0 <puts@plt>
    5fc3:	bf 01 00 00 00       	mov    edi,0x1
    5fc8:	e8 63 b1 ff ff       	call   1130 <exit@plt>
    5fcd:	be dc 00 00 00       	mov    esi,0xdc
    5fd2:	48 8d 05 40 90 00 00 	lea    rax,[rip+0x9040]        # f019 <_IO_stdin_used+0x19>
    5fd9:	48 89 c7             	mov    rdi,rax
    5fdc:	b8 00 00 00 00       	mov    eax,0x0
    5fe1:	e8 0a b1 ff ff       	call   10f0 <printf@plt>
    5fe6:	b8 00 00 00 00       	mov    eax,0x0
    5feb:	e8 80 b2 ff ff       	call   1270 <get_input>
    5ff0:	89 45 fc             	mov    DWORD PTR [rbp-0x4],eax
    5ff3:	83 7d fc 04          	cmp    DWORD PTR [rbp-0x4],0x4
    5ff7:	75 05                	jne    5ffe <main+0x4ce7>
    5ff9:	e9 66 b4 ff ff       	jmp    1464 <main+0x14d>
    5ffe:	81 7d fc fc 01 00 00 	cmp    DWORD PTR [rbp-0x4],0x1fc
    6005:	75 05                	jne    600c <main+0x4cf5>
    6007:	e9 72 64 00 00       	jmp    c47e <main+0xb167>
    600c:	48 8d 05 15 90 00 00 	lea    rax,[rip+0x9015]        # f028 <_IO_stdin_used+0x28>
    6013:	48 89 c7             	mov    rdi,rax
    6016:	e8 a5 b0 ff ff       	call   10c0 <puts@plt>
    601b:	bf 01 00 00 00       	mov    edi,0x1
    6020:	e8 0b b1 ff ff       	call   1130 <exit@plt>
    6025:	be dd 00 00 00       	mov    esi,0xdd
    602a:	48 8d 05 e8 8f 00 00 	lea    rax,[rip+0x8fe8]        # f019 <_IO_stdin_used+0x19>
    6031:	48 89 c7             	mov    rdi,rax
    6034:	b8 00 00 00 00       	mov    eax,0x0
    6039:	e8 b2 b0 ff ff       	call   10f0 <printf@plt>
    603e:	b8 00 00 00 00       	mov    eax,0x0
    6043:	e8 28 b2 ff ff       	call   1270 <get_input>
    6048:	89 45 fc             	mov    DWORD PTR [rbp-0x4],eax
    604b:	81 7d fc 25 02 00 00 	cmp    DWORD PTR [rbp-0x4],0x225
    6052:	75 05                	jne    6059 <main+0x4d42>
    6054:	e9 30 72 00 00       	jmp    d289 <main+0xbf72>
    6059:	81 7d fc 18 01 00 00 	cmp    DWORD PTR [rbp-0x4],0x118
    6060:	0f 84 4c 14 00 00    	je     74b2 <main+0x619b>
    6066:	81 7d fc 7d 01 00 00 	cmp    DWORD PTR [rbp-0x4],0x17d
    606d:	75 05                	jne    6074 <main+0x4d5d>
    606f:	e9 6d 37 00 00       	jmp    97e1 <main+0x84ca>
    6074:	48 8d 05 ad 8f 00 00 	lea    rax,[rip+0x8fad]        # f028 <_IO_stdin_used+0x28>
    607b:	48 89 c7             	mov    rdi,rax
    607e:	e8 3d b0 ff ff       	call   10c0 <puts@plt>
    6083:	bf 01 00 00 00       	mov    edi,0x1
    6088:	e8 a3 b0 ff ff       	call   1130 <exit@plt>
    608d:	be de 00 00 00       	mov    esi,0xde
    6092:	48 8d 05 80 8f 00 00 	lea    rax,[rip+0x8f80]        # f019 <_IO_stdin_used+0x19>
    6099:	48 89 c7             	mov    rdi,rax
    609c:	b8 00 00 00 00       	mov    eax,0x0
    60a1:	e8 4a b0 ff ff       	call   10f0 <printf@plt>
    60a6:	b8 00 00 00 00       	mov    eax,0x0
    60ab:	e8 c0 b1 ff ff       	call   1270 <get_input>
    60b0:	89 45 fc             	mov    DWORD PTR [rbp-0x4],eax
    60b3:	81 7d fc 5a 02 00 00 	cmp    DWORD PTR [rbp-0x4],0x25a
    60ba:	75 05                	jne    60c1 <main+0x4daa>
    60bc:	e9 31 85 00 00       	jmp    e5f2 <main+0xd2db>
    60c1:	81 7d fc c6 00 00 00 	cmp    DWORD PTR [rbp-0x4],0xc6
    60c8:	0f 84 66 f7 ff ff    	je     5834 <main+0x451d>
    60ce:	48 8d 05 53 8f 00 00 	lea    rax,[rip+0x8f53]        # f028 <_IO_stdin_used+0x28>
    60d5:	48 89 c7             	mov    rdi,rax
    60d8:	e8 e3 af ff ff       	call   10c0 <puts@plt>
    60dd:	bf 01 00 00 00       	mov    edi,0x1
    60e2:	e8 49 b0 ff ff       	call   1130 <exit@plt>
    60e7:	be df 00 00 00       	mov    esi,0xdf
    60ec:	48 8d 05 26 8f 00 00 	lea    rax,[rip+0x8f26]        # f019 <_IO_stdin_used+0x19>
    60f3:	48 89 c7             	mov    rdi,rax
    60f6:	b8 00 00 00 00       	mov    eax,0x0
    60fb:	e8 f0 af ff ff       	call   10f0 <printf@plt>
    6100:	b8 00 00 00 00       	mov    eax,0x0
    6105:	e8 66 b1 ff ff       	call   1270 <get_input>
    610a:	89 45 fc             	mov    DWORD PTR [rbp-0x4],eax
    610d:	81 7d fc d0 01 00 00 	cmp    DWORD PTR [rbp-0x4],0x1d0
    6114:	75 05                	jne    611b <main+0x4e04>
    6116:	e9 1b 54 00 00       	jmp    b536 <main+0xa21f>
    611b:	81 7d fc f7 00 00 00 	cmp    DWORD PTR [rbp-0x4],0xf7
    6122:	0f 84 05 08 00 00    	je     692d <main+0x5616>
    6128:	48 8d 05 f9 8e 00 00 	lea    rax,[rip+0x8ef9]        # f028 <_IO_stdin_used+0x28>
    612f:	48 89 c7             	mov    rdi,rax
    6132:	e8 89 af ff ff       	call   10c0 <puts@plt>
    6137:	bf 01 00 00 00       	mov    edi,0x1
    613c:	e8 ef af ff ff       	call   1130 <exit@plt>
    6141:	be e0 00 00 00       	mov    esi,0xe0
    6146:	48 8d 05 cc 8e 00 00 	lea    rax,[rip+0x8ecc]        # f019 <_IO_stdin_used+0x19>
    614d:	48 89 c7             	mov    rdi,rax
    6150:	b8 00 00 00 00       	mov    eax,0x0
    6155:	e8 96 af ff ff       	call   10f0 <printf@plt>
    615a:	b8 00 00 00 00       	mov    eax,0x0
    615f:	e8 0c b1 ff ff       	call   1270 <get_input>
    6164:	89 45 fc             	mov    DWORD PTR [rbp-0x4],eax
    6167:	81 7d fc 4a 01 00 00 	cmp    DWORD PTR [rbp-0x4],0x14a
    616e:	75 05                	jne    6175 <main+0x4e5e>
    6170:	e9 ad 24 00 00       	jmp    8622 <main+0x730b>
    6175:	81 7d fc ef 00 00 00 	cmp    DWORD PTR [rbp-0x4],0xef
    617c:	75 05                	jne    6183 <main+0x4e6c>
    617e:	e9 df 04 00 00       	jmp    6662 <main+0x534b>
    6183:	48 8d 05 9e 8e 00 00 	lea    rax,[rip+0x8e9e]        # f028 <_IO_stdin_used+0x28>
    618a:	48 89 c7             	mov    rdi,rax
    618d:	e8 2e af ff ff       	call   10c0 <puts@plt>
    6192:	bf 01 00 00 00       	mov    edi,0x1
    6197:	e8 94 af ff ff       	call   1130 <exit@plt>
    619c:	be e1 00 00 00       	mov    esi,0xe1
    61a1:	48 8d 05 71 8e 00 00 	lea    rax,[rip+0x8e71]        # f019 <_IO_stdin_used+0x19>
    61a8:	48 89 c7             	mov    rdi,rax
    61ab:	b8 00 00 00 00       	mov    eax,0x0
    61b0:	e8 3b af ff ff       	call   10f0 <printf@plt>
    61b5:	b8 00 00 00 00       	mov    eax,0x0
    61ba:	e8 b1 b0 ff ff       	call   1270 <get_input>
    61bf:	89 45 fc             	mov    DWORD PTR [rbp-0x4],eax
    61c2:	83 7d fc 3a          	cmp    DWORD PTR [rbp-0x4],0x3a
    61c6:	75 05                	jne    61cd <main+0x4eb6>
    61c8:	e9 f5 c4 ff ff       	jmp    26c2 <main+0x13ab>
    61cd:	81 7d fc 38 02 00 00 	cmp    DWORD PTR [rbp-0x4],0x238
    61d4:	75 05                	jne    61db <main+0x4ec4>
    61d6:	e9 b7 77 00 00       	jmp    d992 <main+0xc67b>
    61db:	48 8d 05 46 8e 00 00 	lea    rax,[rip+0x8e46]        # f028 <_IO_stdin_used+0x28>
    61e2:	48 89 c7             	mov    rdi,rax
    61e5:	e8 d6 ae ff ff       	call   10c0 <puts@plt>
    61ea:	bf 01 00 00 00       	mov    edi,0x1
    61ef:	e8 3c af ff ff       	call   1130 <exit@plt>
    61f4:	90                   	nop
    61f5:	be e2 00 00 00       	mov    esi,0xe2
    61fa:	48 8d 05 18 8e 00 00 	lea    rax,[rip+0x8e18]        # f019 <_IO_stdin_used+0x19>
    6201:	48 89 c7             	mov    rdi,rax
    6204:	b8 00 00 00 00       	mov    eax,0x0
    6209:	e8 e2 ae ff ff       	call   10f0 <printf@plt>
    620e:	b8 00 00 00 00       	mov    eax,0x0
    6213:	e8 58 b0 ff ff       	call   1270 <get_input>
    6218:	89 45 fc             	mov    DWORD PTR [rbp-0x4],eax
    621b:	81 7d fc b4 00 00 00 	cmp    DWORD PTR [rbp-0x4],0xb4
    6222:	75 05                	jne    6229 <main+0x4f12>
    6224:	e9 b5 ef ff ff       	jmp    51de <main+0x3ec7>
    6229:	48 8d 05 f8 8d 00 00 	lea    rax,[rip+0x8df8]        # f028 <_IO_stdin_used+0x28>
    6230:	48 89 c7             	mov    rdi,rax
    6233:	e8 88 ae ff ff       	call   10c0 <puts@plt>
    6238:	bf 01 00 00 00       	mov    edi,0x1
    623d:	e8 ee ae ff ff       	call   1130 <exit@plt>
    6242:	90                   	nop
    6243:	be e3 00 00 00       	mov    esi,0xe3
    6248:	48 8d 05 ca 8d 00 00 	lea    rax,[rip+0x8dca]        # f019 <_IO_stdin_used+0x19>
    624f:	48 89 c7             	mov    rdi,rax
    6252:	b8 00 00 00 00       	mov    eax,0x0
    6257:	e8 94 ae ff ff       	call   10f0 <printf@plt>
    625c:	b8 00 00 00 00       	mov    eax,0x0
    6261:	e8 0a b0 ff ff       	call   1270 <get_input>
    6266:	89 45 fc             	mov    DWORD PTR [rbp-0x4],eax
    6269:	81 7d fc 26 01 00 00 	cmp    DWORD PTR [rbp-0x4],0x126
    6270:	75 05                	jne    6277 <main+0x4f60>
    6272:	e9 fe 16 00 00       	jmp    7975 <main+0x665e>
    6277:	48 8d 05 aa 8d 00 00 	lea    rax,[rip+0x8daa]        # f028 <_IO_stdin_used+0x28>
    627e:	48 89 c7             	mov    rdi,rax
    6281:	e8 3a ae ff ff       	call   10c0 <puts@plt>
    6286:	bf 01 00 00 00       	mov    edi,0x1
    628b:	e8 a0 ae ff ff       	call   1130 <exit@plt>
    6290:	be e4 00 00 00       	mov    esi,0xe4
    6295:	48 8d 05 7d 8d 00 00 	lea    rax,[rip+0x8d7d]        # f019 <_IO_stdin_used+0x19>
    629c:	48 89 c7             	mov    rdi,rax
    629f:	b8 00 00 00 00       	mov    eax,0x0
    62a4:	e8 47 ae ff ff       	call   10f0 <printf@plt>
    62a9:	b8 00 00 00 00       	mov    eax,0x0
    62ae:	e8 bd af ff ff       	call   1270 <get_input>
    62b3:	89 45 fc             	mov    DWORD PTR [rbp-0x4],eax
    62b6:	81 7d fc 3d 01 00 00 	cmp    DWORD PTR [rbp-0x4],0x13d
    62bd:	75 05                	jne    62c4 <main+0x4fad>
    62bf:	e9 d4 1e 00 00       	jmp    8198 <main+0x6e81>
    62c4:	81 7d fc f6 00 00 00 	cmp    DWORD PTR [rbp-0x4],0xf6
    62cb:	75 05                	jne    62d2 <main+0x4fbb>
    62cd:	e9 f2 05 00 00       	jmp    68c4 <main+0x55ad>
    62d2:	48 8d 05 4f 8d 00 00 	lea    rax,[rip+0x8d4f]        # f028 <_IO_stdin_used+0x28>
    62d9:	48 89 c7             	mov    rdi,rax
    62dc:	e8 df ad ff ff       	call   10c0 <puts@plt>
    62e1:	bf 01 00 00 00       	mov    edi,0x1
    62e6:	e8 45 ae ff ff       	call   1130 <exit@plt>
    62eb:	90                   	nop
    62ec:	be e5 00 00 00       	mov    esi,0xe5
    62f1:	48 8d 05 21 8d 00 00 	lea    rax,[rip+0x8d21]        # f019 <_IO_stdin_used+0x19>
    62f8:	48 89 c7             	mov    rdi,rax
    62fb:	b8 00 00 00 00       	mov    eax,0x0
    6300:	e8 eb ad ff ff       	call   10f0 <printf@plt>
    6305:	b8 00 00 00 00       	mov    eax,0x0
    630a:	e8 61 af ff ff       	call   1270 <get_input>
    630f:	89 45 fc             	mov    DWORD PTR [rbp-0x4],eax
    6312:	81 7d fc e7 01 00 00 	cmp    DWORD PTR [rbp-0x4],0x1e7
    6319:	75 05                	jne    6320 <main+0x5009>
    631b:	e9 14 5a 00 00       	jmp    bd34 <main+0xaa1d>
    6320:	48 8d 05 01 8d 00 00 	lea    rax,[rip+0x8d01]        # f028 <_IO_stdin_used+0x28>
    6327:	48 89 c7             	mov    rdi,rax
    632a:	e8 91 ad ff ff       	call   10c0 <puts@plt>
    632f:	bf 01 00 00 00       	mov    edi,0x1
    6334:	e8 f7 ad ff ff       	call   1130 <exit@plt>
    6339:	be e6 00 00 00       	mov    esi,0xe6
    633e:	48 8d 05 d4 8c 00 00 	lea    rax,[rip+0x8cd4]        # f019 <_IO_stdin_used+0x19>
    6345:	48 89 c7             	mov    rdi,rax
    6348:	b8 00 00 00 00       	mov    eax,0x0
    634d:	e8 9e ad ff ff       	call   10f0 <printf@plt>
    6352:	b8 00 00 00 00       	mov    eax,0x0
    6357:	e8 14 af ff ff       	call   1270 <get_input>
    635c:	89 45 fc             	mov    DWORD PTR [rbp-0x4],eax
    635f:	81 7d fc 47 01 00 00 	cmp    DWORD PTR [rbp-0x4],0x147
    6366:	75 05                	jne    636d <main+0x5056>
    6368:	e9 a5 21 00 00       	jmp    8512 <main+0x71fb>
    636d:	81 7d fc f3 00 00 00 	cmp    DWORD PTR [rbp-0x4],0xf3
    6374:	75 05                	jne    637b <main+0x5064>
    6376:	e9 46 04 00 00       	jmp    67c1 <main+0x54aa>
    637b:	83 7d fc 56          	cmp    DWORD PTR [rbp-0x4],0x56
    637f:	75 05                	jne    6386 <main+0x506f>
    6381:	e9 48 cd ff ff       	jmp    30ce <main+0x1db7>
    6386:	48 8d 05 9b 8c 00 00 	lea    rax,[rip+0x8c9b]        # f028 <_IO_stdin_used+0x28>
    638d:	48 89 c7             	mov    rdi,rax
    6390:	e8 2b ad ff ff       	call   10c0 <puts@plt>
    6395:	bf 01 00 00 00       	mov    edi,0x1
    639a:	e8 91 ad ff ff       	call   1130 <exit@plt>
    639f:	90                   	nop
    63a0:	be e7 00 00 00       	mov    esi,0xe7
    63a5:	48 8d 05 6d 8c 00 00 	lea    rax,[rip+0x8c6d]        # f019 <_IO_stdin_used+0x19>
    63ac:	48 89 c7             	mov    rdi,rax
    63af:	b8 00 00 00 00       	mov    eax,0x0
    63b4:	e8 37 ad ff ff       	call   10f0 <printf@plt>
    63b9:	b8 00 00 00 00       	mov    eax,0x0
    63be:	e8 ad ae ff ff       	call   1270 <get_input>
    63c3:	89 45 fc             	mov    DWORD PTR [rbp-0x4],eax
    63c6:	81 7d fc b9 00 00 00 	cmp    DWORD PTR [rbp-0x4],0xb9
    63cd:	75 05                	jne    63d4 <main+0x50bd>
    63cf:	e9 c9 ef ff ff       	jmp    539d <main+0x4086>
    63d4:	48 8d 05 4d 8c 00 00 	lea    rax,[rip+0x8c4d]        # f028 <_IO_stdin_used+0x28>
    63db:	48 89 c7             	mov    rdi,rax
    63de:	e8 dd ac ff ff       	call   10c0 <puts@plt>
    63e3:	bf 01 00 00 00       	mov    edi,0x1
    63e8:	e8 43 ad ff ff       	call   1130 <exit@plt>
    63ed:	be e8 00 00 00       	mov    esi,0xe8
    63f2:	48 8d 05 20 8c 00 00 	lea    rax,[rip+0x8c20]        # f019 <_IO_stdin_used+0x19>
    63f9:	48 89 c7             	mov    rdi,rax
    63fc:	b8 00 00 00 00       	mov    eax,0x0
    6401:	e8 ea ac ff ff       	call   10f0 <printf@plt>
    6406:	b8 00 00 00 00       	mov    eax,0x0
    640b:	e8 60 ae ff ff       	call   1270 <get_input>
    6410:	89 45 fc             	mov    DWORD PTR [rbp-0x4],eax
    6413:	81 7d fc ae 00 00 00 	cmp    DWORD PTR [rbp-0x4],0xae
    641a:	75 05                	jne    6421 <main+0x510a>
    641c:	e9 af eb ff ff       	jmp    4fd0 <main+0x3cb9>
    6421:	83 7d fc 1b          	cmp    DWORD PTR [rbp-0x4],0x1b
    6425:	0f 84 4a b8 ff ff    	je     1c75 <main+0x95e>
    642b:	48 8d 05 f6 8b 00 00 	lea    rax,[rip+0x8bf6]        # f028 <_IO_stdin_used+0x28>
    6432:	48 89 c7             	mov    rdi,rax
    6435:	e8 86 ac ff ff       	call   10c0 <puts@plt>
    643a:	bf 01 00 00 00       	mov    edi,0x1
    643f:	e8 ec ac ff ff       	call   1130 <exit@plt>
    6444:	90                   	nop
    6445:	be e9 00 00 00       	mov    esi,0xe9
    644a:	48 8d 05 c8 8b 00 00 	lea    rax,[rip+0x8bc8]        # f019 <_IO_stdin_used+0x19>
    6451:	48 89 c7             	mov    rdi,rax
    6454:	b8 00 00 00 00       	mov    eax,0x0
    6459:	e8 92 ac ff ff       	call   10f0 <printf@plt>
    645e:	b8 00 00 00 00       	mov    eax,0x0
    6463:	e8 08 ae ff ff       	call   1270 <get_input>
    6468:	89 45 fc             	mov    DWORD PTR [rbp-0x4],eax
    646b:	81 7d fc 80 01 00 00 	cmp    DWORD PTR [rbp-0x4],0x180
    6472:	75 05                	jne    6479 <main+0x5162>
    6474:	e9 9c 34 00 00       	jmp    9915 <main+0x85fe>
    6479:	48 8d 05 a8 8b 00 00 	lea    rax,[rip+0x8ba8]        # f028 <_IO_stdin_used+0x28>
    6480:	48 89 c7             	mov    rdi,rax
    6483:	e8 38 ac ff ff       	call   10c0 <puts@plt>
    6488:	bf 01 00 00 00       	mov    edi,0x1
    648d:	e8 9e ac ff ff       	call   1130 <exit@plt>
    6492:	be ea 00 00 00       	mov    esi,0xea
    6497:	48 8d 05 7b 8b 00 00 	lea    rax,[rip+0x8b7b]        # f019 <_IO_stdin_used+0x19>
    649e:	48 89 c7             	mov    rdi,rax
    64a1:	b8 00 00 00 00       	mov    eax,0x0
    64a6:	e8 45 ac ff ff       	call   10f0 <printf@plt>
    64ab:	b8 00 00 00 00       	mov    eax,0x0
    64b0:	e8 bb ad ff ff       	call   1270 <get_input>
    64b5:	89 45 fc             	mov    DWORD PTR [rbp-0x4],eax
    64b8:	81 7d fc 5e 01 00 00 	cmp    DWORD PTR [rbp-0x4],0x15e
    64bf:	0f 84 81 28 00 00    	je     8d46 <main+0x7a2f>
    64c5:	83 7d fc 49          	cmp    DWORD PTR [rbp-0x4],0x49
    64c9:	75 05                	jne    64d0 <main+0x51b9>
    64cb:	e9 30 c7 ff ff       	jmp    2c00 <main+0x18e9>
    64d0:	48 8d 05 51 8b 00 00 	lea    rax,[rip+0x8b51]        # f028 <_IO_stdin_used+0x28>
    64d7:	48 89 c7             	mov    rdi,rax
    64da:	e8 e1 ab ff ff       	call   10c0 <puts@plt>
    64df:	bf 01 00 00 00       	mov    edi,0x1
    64e4:	e8 47 ac ff ff       	call   1130 <exit@plt>
    64e9:	be eb 00 00 00       	mov    esi,0xeb
    64ee:	48 8d 05 24 8b 00 00 	lea    rax,[rip+0x8b24]        # f019 <_IO_stdin_used+0x19>
    64f5:	48 89 c7             	mov    rdi,rax
    64f8:	b8 00 00 00 00       	mov    eax,0x0
    64fd:	e8 ee ab ff ff       	call   10f0 <printf@plt>
    6502:	b8 00 00 00 00       	mov    eax,0x0
    6507:	e8 64 ad ff ff       	call   1270 <get_input>
    650c:	89 45 fc             	mov    DWORD PTR [rbp-0x4],eax
    650f:	81 7d fc 5d 01 00 00 	cmp    DWORD PTR [rbp-0x4],0x15d
    6516:	75 05                	jne    651d <main+0x5206>
    6518:	e9 c4 27 00 00       	jmp    8ce1 <main+0x79ca>
    651d:	81 7d fc d0 00 00 00 	cmp    DWORD PTR [rbp-0x4],0xd0
    6524:	0f 84 80 f6 ff ff    	je     5baa <main+0x4893>
    652a:	81 7d fc eb 01 00 00 	cmp    DWORD PTR [rbp-0x4],0x1eb
    6531:	75 05                	jne    6538 <main+0x5221>
    6533:	e9 6e 59 00 00       	jmp    bea6 <main+0xab8f>
    6538:	48 8d 05 e9 8a 00 00 	lea    rax,[rip+0x8ae9]        # f028 <_IO_stdin_used+0x28>
    653f:	48 89 c7             	mov    rdi,rax
    6542:	e8 79 ab ff ff       	call   10c0 <puts@plt>
    6547:	bf 01 00 00 00       	mov    edi,0x1
    654c:	e8 df ab ff ff       	call   1130 <exit@plt>
    6551:	be ec 00 00 00       	mov    esi,0xec
    6556:	48 8d 05 bc 8a 00 00 	lea    rax,[rip+0x8abc]        # f019 <_IO_stdin_used+0x19>
    655d:	48 89 c7             	mov    rdi,rax
    6560:	b8 00 00 00 00       	mov    eax,0x0
    6565:	e8 86 ab ff ff       	call   10f0 <printf@plt>
    656a:	b8 00 00 00 00       	mov    eax,0x0
    656f:	e8 fc ac ff ff       	call   1270 <get_input>
    6574:	89 45 fc             	mov    DWORD PTR [rbp-0x4],eax
    6577:	81 7d fc 3d 02 00 00 	cmp    DWORD PTR [rbp-0x4],0x23d
    657e:	75 05                	jne    6585 <main+0x526e>
    6580:	e9 ce 75 00 00       	jmp    db53 <main+0xc83c>
    6585:	81 7d fc 11 01 00 00 	cmp    DWORD PTR [rbp-0x4],0x111
    658c:	75 05                	jne    6593 <main+0x527c>
    658e:	e9 98 0c 00 00       	jmp    722b <main+0x5f14>
    6593:	48 8d 05 8e 8a 00 00 	lea    rax,[rip+0x8a8e]        # f028 <_IO_stdin_used+0x28>
    659a:	48 89 c7             	mov    rdi,rax
    659d:	e8 1e ab ff ff       	call   10c0 <puts@plt>
    65a2:	bf 01 00 00 00       	mov    edi,0x1
    65a7:	e8 84 ab ff ff       	call   1130 <exit@plt>
    65ac:	be ed 00 00 00       	mov    esi,0xed
    65b1:	48 8d 05 61 8a 00 00 	lea    rax,[rip+0x8a61]        # f019 <_IO_stdin_used+0x19>
    65b8:	48 89 c7             	mov    rdi,rax
    65bb:	b8 00 00 00 00       	mov    eax,0x0
    65c0:	e8 2b ab ff ff       	call   10f0 <printf@plt>
    65c5:	b8 00 00 00 00       	mov    eax,0x0
    65ca:	e8 a1 ac ff ff       	call   1270 <get_input>
    65cf:	89 45 fc             	mov    DWORD PTR [rbp-0x4],eax
    65d2:	81 7d fc 89 00 00 00 	cmp    DWORD PTR [rbp-0x4],0x89
    65d9:	75 05                	jne    65e0 <main+0x52c9>
    65db:	e9 ef dc ff ff       	jmp    42cf <main+0x2fb8>
    65e0:	81 7d fc 34 02 00 00 	cmp    DWORD PTR [rbp-0x4],0x234
    65e7:	75 05                	jne    65ee <main+0x52d7>
    65e9:	e9 1e 72 00 00       	jmp    d80c <main+0xc4f5>
    65ee:	48 8d 05 33 8a 00 00 	lea    rax,[rip+0x8a33]        # f028 <_IO_stdin_used+0x28>
    65f5:	48 89 c7             	mov    rdi,rax
    65f8:	e8 c3 aa ff ff       	call   10c0 <puts@plt>
    65fd:	bf 01 00 00 00       	mov    edi,0x1
    6602:	e8 29 ab ff ff       	call   1130 <exit@plt>
    6607:	be ee 00 00 00       	mov    esi,0xee
    660c:	48 8d 05 06 8a 00 00 	lea    rax,[rip+0x8a06]        # f019 <_IO_stdin_used+0x19>
    6613:	48 89 c7             	mov    rdi,rax
    6616:	b8 00 00 00 00       	mov    eax,0x0
    661b:	e8 d0 aa ff ff       	call   10f0 <printf@plt>
    6620:	b8 00 00 00 00       	mov    eax,0x0
    6625:	e8 46 ac ff ff       	call   1270 <get_input>
    662a:	89 45 fc             	mov    DWORD PTR [rbp-0x4],eax
    662d:	81 7d fc 96 00 00 00 	cmp    DWORD PTR [rbp-0x4],0x96
    6634:	75 05                	jne    663b <main+0x5324>
    6636:	e9 25 e1 ff ff       	jmp    4760 <main+0x3449>
    663b:	81 7d fc f4 01 00 00 	cmp    DWORD PTR [rbp-0x4],0x1f4
    6642:	75 05                	jne    6649 <main+0x5332>
    6644:	e9 69 5b 00 00       	jmp    c1b2 <main+0xae9b>
    6649:	48 8d 05 d8 89 00 00 	lea    rax,[rip+0x89d8]        # f028 <_IO_stdin_used+0x28>
    6650:	48 89 c7             	mov    rdi,rax
    6653:	e8 68 aa ff ff       	call   10c0 <puts@plt>
    6658:	bf 01 00 00 00       	mov    edi,0x1
    665d:	e8 ce aa ff ff       	call   1130 <exit@plt>
    6662:	be ef 00 00 00       	mov    esi,0xef
    6667:	48 8d 05 ab 89 00 00 	lea    rax,[rip+0x89ab]        # f019 <_IO_stdin_used+0x19>
    666e:	48 89 c7             	mov    rdi,rax
    6671:	b8 00 00 00 00       	mov    eax,0x0
    6676:	e8 75 aa ff ff       	call   10f0 <printf@plt>
    667b:	b8 00 00 00 00       	mov    eax,0x0
    6680:	e8 eb ab ff ff       	call   1270 <get_input>
    6685:	89 45 fc             	mov    DWORD PTR [rbp-0x4],eax
    6688:	81 7d fc af 00 00 00 	cmp    DWORD PTR [rbp-0x4],0xaf
    668f:	75 05                	jne    6696 <main+0x537f>
    6691:	e9 95 e9 ff ff       	jmp    502b <main+0x3d14>
    6696:	81 7d fc e0 00 00 00 	cmp    DWORD PTR [rbp-0x4],0xe0
    669d:	75 05                	jne    66a4 <main+0x538d>
    669f:	e9 9d fa ff ff       	jmp    6141 <main+0x4e2a>
    66a4:	48 8d 05 7d 89 00 00 	lea    rax,[rip+0x897d]        # f028 <_IO_stdin_used+0x28>
    66ab:	48 89 c7             	mov    rdi,rax
    66ae:	e8 0d aa ff ff       	call   10c0 <puts@plt>
    66b3:	bf 01 00 00 00       	mov    edi,0x1
    66b8:	e8 73 aa ff ff       	call   1130 <exit@plt>
    66bd:	90                   	nop
    66be:	be f0 00 00 00       	mov    esi,0xf0
    66c3:	48 8d 05 4f 89 00 00 	lea    rax,[rip+0x894f]        # f019 <_IO_stdin_used+0x19>
    66ca:	48 89 c7             	mov    rdi,rax
    66cd:	b8 00 00 00 00       	mov    eax,0x0
    66d2:	e8 19 aa ff ff       	call   10f0 <printf@plt>
    66d7:	b8 00 00 00 00       	mov    eax,0x0
    66dc:	e8 8f ab ff ff       	call   1270 <get_input>
    66e1:	89 45 fc             	mov    DWORD PTR [rbp-0x4],eax
    66e4:	81 7d fc 61 01 00 00 	cmp    DWORD PTR [rbp-0x4],0x161
    66eb:	75 05                	jne    66f2 <main+0x53db>
    66ed:	e9 47 27 00 00       	jmp    8e39 <main+0x7b22>
    66f2:	48 8d 05 2f 89 00 00 	lea    rax,[rip+0x892f]        # f028 <_IO_stdin_used+0x28>
    66f9:	48 89 c7             	mov    rdi,rax
    66fc:	e8 bf a9 ff ff       	call   10c0 <puts@plt>
    6701:	bf 01 00 00 00       	mov    edi,0x1
    6706:	e8 25 aa ff ff       	call   1130 <exit@plt>
    670b:	90                   	nop
    670c:	be f1 00 00 00       	mov    esi,0xf1
    6711:	48 8d 05 01 89 00 00 	lea    rax,[rip+0x8901]        # f019 <_IO_stdin_used+0x19>
    6718:	48 89 c7             	mov    rdi,rax
    671b:	b8 00 00 00 00       	mov    eax,0x0
    6720:	e8 cb a9 ff ff       	call   10f0 <printf@plt>
    6725:	b8 00 00 00 00       	mov    eax,0x0
    672a:	e8 41 ab ff ff       	call   1270 <get_input>
    672f:	89 45 fc             	mov    DWORD PTR [rbp-0x4],eax
    6732:	81 7d fc 44 01 00 00 	cmp    DWORD PTR [rbp-0x4],0x144
    6739:	75 05                	jne    6740 <main+0x5429>
    673b:	e9 d2 1c 00 00       	jmp    8412 <main+0x70fb>
    6740:	48 8d 05 e1 88 00 00 	lea    rax,[rip+0x88e1]        # f028 <_IO_stdin_used+0x28>
    6747:	48 89 c7             	mov    rdi,rax
    674a:	e8 71 a9 ff ff       	call   10c0 <puts@plt>
    674f:	bf 01 00 00 00       	mov    edi,0x1
    6754:	e8 d7 a9 ff ff       	call   1130 <exit@plt>
    6759:	be f2 00 00 00       	mov    esi,0xf2
    675e:	48 8d 05 b4 88 00 00 	lea    rax,[rip+0x88b4]        # f019 <_IO_stdin_used+0x19>
    6765:	48 89 c7             	mov    rdi,rax
    6768:	b8 00 00 00 00       	mov    eax,0x0
    676d:	e8 7e a9 ff ff       	call   10f0 <printf@plt>
    6772:	b8 00 00 00 00       	mov    eax,0x0
    6777:	e8 f4 aa ff ff       	call   1270 <get_input>
    677c:	89 45 fc             	mov    DWORD PTR [rbp-0x4],eax
    677f:	81 7d fc b5 00 00 00 	cmp    DWORD PTR [rbp-0x4],0xb5
    6786:	75 05                	jne    678d <main+0x5476>
    6788:	e9 ab ea ff ff       	jmp    5238 <main+0x3f21>
    678d:	81 7d fc 9c 01 00 00 	cmp    DWORD PTR [rbp-0x4],0x19c
    6794:	75 05                	jne    679b <main+0x5484>
    6796:	e9 8a 3b 00 00       	jmp    a325 <main+0x900e>
    679b:	81 7d fc 0e 02 00 00 	cmp    DWORD PTR [rbp-0x4],0x20e
    67a2:	0f 84 bc 62 00 00    	je     ca64 <main+0xb74d>
    67a8:	48 8d 05 79 88 00 00 	lea    rax,[rip+0x8879]        # f028 <_IO_stdin_used+0x28>
    67af:	48 89 c7             	mov    rdi,rax
    67b2:	e8 09 a9 ff ff       	call   10c0 <puts@plt>
    67b7:	bf 01 00 00 00       	mov    edi,0x1
    67bc:	e8 6f a9 ff ff       	call   1130 <exit@plt>
    67c1:	be f3 00 00 00       	mov    esi,0xf3
    67c6:	48 8d 05 4c 88 00 00 	lea    rax,[rip+0x884c]        # f019 <_IO_stdin_used+0x19>
    67cd:	48 89 c7             	mov    rdi,rax
    67d0:	b8 00 00 00 00       	mov    eax,0x0
    67d5:	e8 16 a9 ff ff       	call   10f0 <printf@plt>
    67da:	b8 00 00 00 00       	mov    eax,0x0
    67df:	e8 8c aa ff ff       	call   1270 <get_input>
    67e4:	89 45 fc             	mov    DWORD PTR [rbp-0x4],eax
    67e7:	81 7d fc e6 00 00 00 	cmp    DWORD PTR [rbp-0x4],0xe6
    67ee:	75 05                	jne    67f5 <main+0x54de>
    67f0:	e9 44 fb ff ff       	jmp    6339 <main+0x5022>
    67f5:	81 7d fc d3 00 00 00 	cmp    DWORD PTR [rbp-0x4],0xd3
    67fc:	75 05                	jne    6803 <main+0x54ec>
    67fe:	e9 aa f4 ff ff       	jmp    5cad <main+0x4996>
    6803:	48 8d 05 1e 88 00 00 	lea    rax,[rip+0x881e]        # f028 <_IO_stdin_used+0x28>
    680a:	48 89 c7             	mov    rdi,rax
    680d:	e8 ae a8 ff ff       	call   10c0 <puts@plt>
    6812:	bf 01 00 00 00       	mov    edi,0x1
    6817:	e8 14 a9 ff ff       	call   1130 <exit@plt>
    681c:	be f4 00 00 00       	mov    esi,0xf4
    6821:	48 8d 05 f1 87 00 00 	lea    rax,[rip+0x87f1]        # f019 <_IO_stdin_used+0x19>
    6828:	48 89 c7             	mov    rdi,rax
    682b:	b8 00 00 00 00       	mov    eax,0x0
    6830:	e8 bb a8 ff ff       	call   10f0 <printf@plt>
    6835:	b8 00 00 00 00       	mov    eax,0x0
    683a:	e8 31 aa ff ff       	call   1270 <get_input>
    683f:	89 45 fc             	mov    DWORD PTR [rbp-0x4],eax
    6842:	81 7d fc fe 00 00 00 	cmp    DWORD PTR [rbp-0x4],0xfe
    6849:	75 05                	jne    6850 <main+0x5539>
    684b:	e9 65 03 00 00       	jmp    6bb5 <main+0x589e>
    6850:	81 7d fc ad 01 00 00 	cmp    DWORD PTR [rbp-0x4],0x1ad
    6857:	0f 84 f3 40 00 00    	je     a950 <main+0x9639>
    685d:	48 8d 05 c4 87 00 00 	lea    rax,[rip+0x87c4]        # f028 <_IO_stdin_used+0x28>
    6864:	48 89 c7             	mov    rdi,rax
    6867:	e8 54 a8 ff ff       	call   10c0 <puts@plt>
    686c:	bf 01 00 00 00       	mov    edi,0x1
    6871:	e8 ba a8 ff ff       	call   1130 <exit@plt>
    6876:	90                   	nop
    6877:	be f5 00 00 00       	mov    esi,0xf5
    687c:	48 8d 05 96 87 00 00 	lea    rax,[rip+0x8796]        # f019 <_IO_stdin_used+0x19>
    6883:	48 89 c7             	mov    rdi,rax
    6886:	b8 00 00 00 00       	mov    eax,0x0
    688b:	e8 60 a8 ff ff       	call   10f0 <printf@plt>
    6890:	b8 00 00 00 00       	mov    eax,0x0
    6895:	e8 d6 a9 ff ff       	call   1270 <get_input>
    689a:	89 45 fc             	mov    DWORD PTR [rbp-0x4],eax
    689d:	81 7d fc b5 00 00 00 	cmp    DWORD PTR [rbp-0x4],0xb5
    68a4:	75 05                	jne    68ab <main+0x5594>
    68a6:	e9 8d e9 ff ff       	jmp    5238 <main+0x3f21>
    68ab:	48 8d 05 76 87 00 00 	lea    rax,[rip+0x8776]        # f028 <_IO_stdin_used+0x28>
    68b2:	48 89 c7             	mov    rdi,rax
    68b5:	e8 06 a8 ff ff       	call   10c0 <puts@plt>
    68ba:	bf 01 00 00 00       	mov    edi,0x1
    68bf:	e8 6c a8 ff ff       	call   1130 <exit@plt>
    68c4:	be f6 00 00 00       	mov    esi,0xf6
    68c9:	48 8d 05 49 87 00 00 	lea    rax,[rip+0x8749]        # f019 <_IO_stdin_used+0x19>
    68d0:	48 89 c7             	mov    rdi,rax
    68d3:	b8 00 00 00 00       	mov    eax,0x0
    68d8:	e8 13 a8 ff ff       	call   10f0 <printf@plt>
    68dd:	b8 00 00 00 00       	mov    eax,0x0
    68e2:	e8 89 a9 ff ff       	call   1270 <get_input>
    68e7:	89 45 fc             	mov    DWORD PTR [rbp-0x4],eax
    68ea:	81 7d fc e4 00 00 00 	cmp    DWORD PTR [rbp-0x4],0xe4
    68f1:	75 05                	jne    68f8 <main+0x55e1>
    68f3:	e9 98 f9 ff ff       	jmp    6290 <main+0x4f79>
    68f8:	81 7d fc 86 01 00 00 	cmp    DWORD PTR [rbp-0x4],0x186
    68ff:	75 05                	jne    6906 <main+0x55ef>
    6901:	e9 28 32 00 00       	jmp    9b2e <main+0x8817>
    6906:	81 7d fc 5c 02 00 00 	cmp    DWORD PTR [rbp-0x4],0x25c
    690d:	75 05                	jne    6914 <main+0x55fd>
    690f:	e9 94 7d 00 00       	jmp    e6a8 <main+0xd391>
    6914:	48 8d 05 0d 87 00 00 	lea    rax,[rip+0x870d]        # f028 <_IO_stdin_used+0x28>
    691b:	48 89 c7             	mov    rdi,rax
    691e:	e8 9d a7 ff ff       	call   10c0 <puts@plt>
    6923:	bf 01 00 00 00       	mov    edi,0x1
    6928:	e8 03 a8 ff ff       	call   1130 <exit@plt>
    692d:	90                   	nop
    692e:	be f7 00 00 00       	mov    esi,0xf7
    6933:	48 8d 05 df 86 00 00 	lea    rax,[rip+0x86df]        # f019 <_IO_stdin_used+0x19>
    693a:	48 89 c7             	mov    rdi,rax
    693d:	b8 00 00 00 00       	mov    eax,0x0
    6942:	e8 a9 a7 ff ff       	call   10f0 <printf@plt>
    6947:	b8 00 00 00 00       	mov    eax,0x0
    694c:	e8 1f a9 ff ff       	call   1270 <get_input>
    6951:	89 45 fc             	mov    DWORD PTR [rbp-0x4],eax
    6954:	81 7d fc df 00 00 00 	cmp    DWORD PTR [rbp-0x4],0xdf
    695b:	75 05                	jne    6962 <main+0x564b>
    695d:	e9 85 f7 ff ff       	jmp    60e7 <main+0x4dd0>
    6962:	48 8d 05 bf 86 00 00 	lea    rax,[rip+0x86bf]        # f028 <_IO_stdin_used+0x28>
    6969:	48 89 c7             	mov    rdi,rax
    696c:	e8 4f a7 ff ff       	call   10c0 <puts@plt>
    6971:	bf 01 00 00 00       	mov    edi,0x1
    6976:	e8 b5 a7 ff ff       	call   1130 <exit@plt>
    697b:	be f8 00 00 00       	mov    esi,0xf8
    6980:	48 8d 05 92 86 00 00 	lea    rax,[rip+0x8692]        # f019 <_IO_stdin_used+0x19>
    6987:	48 89 c7             	mov    rdi,rax
    698a:	b8 00 00 00 00       	mov    eax,0x0
    698f:	e8 5c a7 ff ff       	call   10f0 <printf@plt>
    6994:	b8 00 00 00 00       	mov    eax,0x0
    6999:	e8 d2 a8 ff ff       	call   1270 <get_input>
    699e:	89 45 fc             	mov    DWORD PTR [rbp-0x4],eax
    69a1:	81 7d fc aa 00 00 00 	cmp    DWORD PTR [rbp-0x4],0xaa
    69a8:	75 05                	jne    69af <main+0x5698>
    69aa:	e9 ac e4 ff ff       	jmp    4e5b <main+0x3b44>
    69af:	81 7d fc 41 02 00 00 	cmp    DWORD PTR [rbp-0x4],0x241
    69b6:	0f 84 11 73 00 00    	je     dccd <main+0xc9b6>
    69bc:	48 8d 05 65 86 00 00 	lea    rax,[rip+0x8665]        # f028 <_IO_stdin_used+0x28>
    69c3:	48 89 c7             	mov    rdi,rax
    69c6:	e8 f5 a6 ff ff       	call   10c0 <puts@plt>
    69cb:	bf 01 00 00 00       	mov    edi,0x1
    69d0:	e8 5b a7 ff ff       	call   1130 <exit@plt>
    69d5:	be f9 00 00 00       	mov    esi,0xf9
    69da:	48 8d 05 38 86 00 00 	lea    rax,[rip+0x8638]        # f019 <_IO_stdin_used+0x19>
    69e1:	48 89 c7             	mov    rdi,rax
    69e4:	b8 00 00 00 00       	mov    eax,0x0
    69e9:	e8 02 a7 ff ff       	call   10f0 <printf@plt>
    69ee:	b8 00 00 00 00       	mov    eax,0x0
    69f3:	e8 78 a8 ff ff       	call   1270 <get_input>
    69f8:	89 45 fc             	mov    DWORD PTR [rbp-0x4],eax
    69fb:	81 7d fc 64 02 00 00 	cmp    DWORD PTR [rbp-0x4],0x264
    6a02:	75 05                	jne    6a09 <main+0x56f2>
    6a04:	e9 7c 7f 00 00       	jmp    e985 <main+0xd66e>
    6a09:	81 7d fc 28 02 00 00 	cmp    DWORD PTR [rbp-0x4],0x228
    6a10:	0f 84 73 69 00 00    	je     d389 <main+0xc072>
    6a16:	83 7d fc 40          	cmp    DWORD PTR [rbp-0x4],0x40
    6a1a:	75 05                	jne    6a21 <main+0x570a>
    6a1c:	e9 b3 be ff ff       	jmp    28d4 <main+0x15bd>
    6a21:	81 7d fc 4a 01 00 00 	cmp    DWORD PTR [rbp-0x4],0x14a
    6a28:	75 05                	jne    6a2f <main+0x5718>
    6a2a:	e9 f3 1b 00 00       	jmp    8622 <main+0x730b>
    6a2f:	48 8d 05 f2 85 00 00 	lea    rax,[rip+0x85f2]        # f028 <_IO_stdin_used+0x28>
    6a36:	48 89 c7             	mov    rdi,rax
    6a39:	e8 82 a6 ff ff       	call   10c0 <puts@plt>
    6a3e:	bf 01 00 00 00       	mov    edi,0x1
    6a43:	e8 e8 a6 ff ff       	call   1130 <exit@plt>
    6a48:	be fa 00 00 00       	mov    esi,0xfa
    6a4d:	48 8d 05 c5 85 00 00 	lea    rax,[rip+0x85c5]        # f019 <_IO_stdin_used+0x19>
    6a54:	48 89 c7             	mov    rdi,rax
    6a57:	b8 00 00 00 00       	mov    eax,0x0
    6a5c:	e8 8f a6 ff ff       	call   10f0 <printf@plt>
    6a61:	b8 00 00 00 00       	mov    eax,0x0
    6a66:	e8 05 a8 ff ff       	call   1270 <get_input>
    6a6b:	89 45 fc             	mov    DWORD PTR [rbp-0x4],eax
    6a6e:	81 7d fc 54 01 00 00 	cmp    DWORD PTR [rbp-0x4],0x154
    6a75:	75 05                	jne    6a7c <main+0x5765>
    6a77:	e9 57 1f 00 00       	jmp    89d3 <main+0x76bc>
    6a7c:	83 7d fc 27          	cmp    DWORD PTR [rbp-0x4],0x27
    6a80:	75 05                	jne    6a87 <main+0x5770>
    6a82:	e9 0f b6 ff ff       	jmp    2096 <main+0xd7f>
    6a87:	81 7d fc 87 01 00 00 	cmp    DWORD PTR [rbp-0x4],0x187
    6a8e:	75 05                	jne    6a95 <main+0x577e>
    6a90:	e9 f4 30 00 00       	jmp    9b89 <main+0x8872>
    6a95:	83 7d fc 67          	cmp    DWORD PTR [rbp-0x4],0x67
    6a99:	0f 84 30 cc ff ff    	je     36cf <main+0x23b8>
    6a9f:	48 8d 05 82 85 00 00 	lea    rax,[rip+0x8582]        # f028 <_IO_stdin_used+0x28>
    6aa6:	48 89 c7             	mov    rdi,rax
    6aa9:	e8 12 a6 ff ff       	call   10c0 <puts@plt>
    6aae:	bf 01 00 00 00       	mov    edi,0x1
    6ab3:	e8 78 a6 ff ff       	call   1130 <exit@plt>
    6ab8:	90                   	nop
    6ab9:	be fb 00 00 00       	mov    esi,0xfb
    6abe:	48 8d 05 54 85 00 00 	lea    rax,[rip+0x8554]        # f019 <_IO_stdin_used+0x19>
    6ac5:	48 89 c7             	mov    rdi,rax
    6ac8:	b8 00 00 00 00       	mov    eax,0x0
    6acd:	e8 1e a6 ff ff       	call   10f0 <printf@plt>
    6ad2:	b8 00 00 00 00       	mov    eax,0x0
    6ad7:	e8 94 a7 ff ff       	call   1270 <get_input>
    6adc:	89 45 fc             	mov    DWORD PTR [rbp-0x4],eax
    6adf:	83 7d fc 79          	cmp    DWORD PTR [rbp-0x4],0x79
    6ae3:	75 05                	jne    6aea <main+0x57d3>
    6ae5:	e9 61 d2 ff ff       	jmp    3d4b <main+0x2a34>
    6aea:	48 8d 05 37 85 00 00 	lea    rax,[rip+0x8537]        # f028 <_IO_stdin_used+0x28>
    6af1:	48 89 c7             	mov    rdi,rax
    6af4:	e8 c7 a5 ff ff       	call   10c0 <puts@plt>
    6af9:	bf 01 00 00 00       	mov    edi,0x1
    6afe:	e8 2d a6 ff ff       	call   1130 <exit@plt>
    6b03:	be fc 00 00 00       	mov    esi,0xfc
    6b08:	48 8d 05 0a 85 00 00 	lea    rax,[rip+0x850a]        # f019 <_IO_stdin_used+0x19>
    6b0f:	48 89 c7             	mov    rdi,rax
    6b12:	b8 00 00 00 00       	mov    eax,0x0
    6b17:	e8 d4 a5 ff ff       	call   10f0 <printf@plt>
    6b1c:	b8 00 00 00 00       	mov    eax,0x0
    6b21:	e8 4a a7 ff ff       	call   1270 <get_input>
    6b26:	89 45 fc             	mov    DWORD PTR [rbp-0x4],eax
    6b29:	81 7d fc 74 01 00 00 	cmp    DWORD PTR [rbp-0x4],0x174
    6b30:	75 05                	jne    6b37 <main+0x5820>
    6b32:	e9 a0 29 00 00       	jmp    94d7 <main+0x81c0>
    6b37:	81 7d fc ba 01 00 00 	cmp    DWORD PTR [rbp-0x4],0x1ba
    6b3e:	0f 84 65 42 00 00    	je     ada9 <main+0x9a92>
    6b44:	48 8d 05 dd 84 00 00 	lea    rax,[rip+0x84dd]        # f028 <_IO_stdin_used+0x28>
    6b4b:	48 89 c7             	mov    rdi,rax
    6b4e:	e8 6d a5 ff ff       	call   10c0 <puts@plt>
    6b53:	bf 01 00 00 00       	mov    edi,0x1
    6b58:	e8 d3 a5 ff ff       	call   1130 <exit@plt>
    6b5d:	be fd 00 00 00       	mov    esi,0xfd
    6b62:	48 8d 05 b0 84 00 00 	lea    rax,[rip+0x84b0]        # f019 <_IO_stdin_used+0x19>
    6b69:	48 89 c7             	mov    rdi,rax
    6b6c:	b8 00 00 00 00       	mov    eax,0x0
    6b71:	e8 7a a5 ff ff       	call   10f0 <printf@plt>
    6b76:	b8 00 00 00 00       	mov    eax,0x0
    6b7b:	e8 f0 a6 ff ff       	call   1270 <get_input>
    6b80:	89 45 fc             	mov    DWORD PTR [rbp-0x4],eax
    6b83:	83 7d fc 4a          	cmp    DWORD PTR [rbp-0x4],0x4a
    6b87:	75 05                	jne    6b8e <main+0x5877>
    6b89:	e9 db c0 ff ff       	jmp    2c69 <main+0x1952>
    6b8e:	81 7d fc 60 02 00 00 	cmp    DWORD PTR [rbp-0x4],0x260
    6b95:	75 05                	jne    6b9c <main+0x5885>
    6b97:	e9 7f 7c 00 00       	jmp    e81b <main+0xd504>
    6b9c:	48 8d 05 85 84 00 00 	lea    rax,[rip+0x8485]        # f028 <_IO_stdin_used+0x28>
    6ba3:	48 89 c7             	mov    rdi,rax
    6ba6:	e8 15 a5 ff ff       	call   10c0 <puts@plt>
    6bab:	bf 01 00 00 00       	mov    edi,0x1
    6bb0:	e8 7b a5 ff ff       	call   1130 <exit@plt>
    6bb5:	be fe 00 00 00       	mov    esi,0xfe
    6bba:	48 8d 05 58 84 00 00 	lea    rax,[rip+0x8458]        # f019 <_IO_stdin_used+0x19>
    6bc1:	48 89 c7             	mov    rdi,rax
    6bc4:	b8 00 00 00 00       	mov    eax,0x0
    6bc9:	e8 22 a5 ff ff       	call   10f0 <printf@plt>
    6bce:	b8 00 00 00 00       	mov    eax,0x0
    6bd3:	e8 98 a6 ff ff       	call   1270 <get_input>
    6bd8:	89 45 fc             	mov    DWORD PTR [rbp-0x4],eax
    6bdb:	81 7d fc 68 01 00 00 	cmp    DWORD PTR [rbp-0x4],0x168
    6be2:	75 05                	jne    6be9 <main+0x58d2>
    6be4:	e9 bd 24 00 00       	jmp    90a6 <main+0x7d8f>
    6be9:	83 7d fc 5c          	cmp    DWORD PTR [rbp-0x4],0x5c
    6bed:	0f 84 fa c6 ff ff    	je     32ed <main+0x1fd6>
    6bf3:	81 7d fc f4 00 00 00 	cmp    DWORD PTR [rbp-0x4],0xf4
    6bfa:	75 05                	jne    6c01 <main+0x58ea>
    6bfc:	e9 1b fc ff ff       	jmp    681c <main+0x5505>
    6c01:	48 8d 05 20 84 00 00 	lea    rax,[rip+0x8420]        # f028 <_IO_stdin_used+0x28>
    6c08:	48 89 c7             	mov    rdi,rax
    6c0b:	e8 b0 a4 ff ff       	call   10c0 <puts@plt>
    6c10:	bf 01 00 00 00       	mov    edi,0x1
    6c15:	e8 16 a5 ff ff       	call   1130 <exit@plt>
    6c1a:	90                   	nop
    6c1b:	be ff 00 00 00       	mov    esi,0xff
    6c20:	48 8d 05 f2 83 00 00 	lea    rax,[rip+0x83f2]        # f019 <_IO_stdin_used+0x19>
    6c27:	48 89 c7             	mov    rdi,rax
    6c2a:	b8 00 00 00 00       	mov    eax,0x0
    6c2f:	e8 bc a4 ff ff       	call   10f0 <printf@plt>
    6c34:	b8 00 00 00 00       	mov    eax,0x0
    6c39:	e8 32 a6 ff ff       	call   1270 <get_input>
    6c3e:	89 45 fc             	mov    DWORD PTR [rbp-0x4],eax
    6c41:	81 7d fc a4 01 00 00 	cmp    DWORD PTR [rbp-0x4],0x1a4
    6c48:	75 05                	jne    6c4f <main+0x5938>
    6c4a:	e9 bb 39 00 00       	jmp    a60a <main+0x92f3>
    6c4f:	48 8d 05 d2 83 00 00 	lea    rax,[rip+0x83d2]        # f028 <_IO_stdin_used+0x28>
    6c56:	48 89 c7             	mov    rdi,rax
    6c59:	e8 62 a4 ff ff       	call   10c0 <puts@plt>
    6c5e:	bf 01 00 00 00       	mov    edi,0x1
    6c63:	e8 c8 a4 ff ff       	call   1130 <exit@plt>
    6c68:	be 00 01 00 00       	mov    esi,0x100
    6c6d:	48 8d 05 a5 83 00 00 	lea    rax,[rip+0x83a5]        # f019 <_IO_stdin_used+0x19>
    6c74:	48 89 c7             	mov    rdi,rax
    6c77:	b8 00 00 00 00       	mov    eax,0x0
    6c7c:	e8 6f a4 ff ff       	call   10f0 <printf@plt>
    6c81:	b8 00 00 00 00       	mov    eax,0x0
    6c86:	e8 e5 a5 ff ff       	call   1270 <get_input>
    6c8b:	89 45 fc             	mov    DWORD PTR [rbp-0x4],eax
    6c8e:	81 7d fc a7 01 00 00 	cmp    DWORD PTR [rbp-0x4],0x1a7
    6c95:	75 05                	jne    6c9c <main+0x5985>
    6c97:	e9 8c 3a 00 00       	jmp    a728 <main+0x9411>
    6c9c:	83 7d fc 00          	cmp    DWORD PTR [rbp-0x4],0x0
    6ca0:	75 05                	jne    6ca7 <main+0x5990>
    6ca2:	e9 7c a6 ff ff       	jmp    1323 <main+0xc>
    6ca7:	48 8d 05 7a 83 00 00 	lea    rax,[rip+0x837a]        # f028 <_IO_stdin_used+0x28>
    6cae:	48 89 c7             	mov    rdi,rax
    6cb1:	e8 0a a4 ff ff       	call   10c0 <puts@plt>
    6cb6:	bf 01 00 00 00       	mov    edi,0x1
    6cbb:	e8 70 a4 ff ff       	call   1130 <exit@plt>
    6cc0:	be 01 01 00 00       	mov    esi,0x101
    6cc5:	48 8d 05 4d 83 00 00 	lea    rax,[rip+0x834d]        # f019 <_IO_stdin_used+0x19>
    6ccc:	48 89 c7             	mov    rdi,rax
    6ccf:	b8 00 00 00 00       	mov    eax,0x0
    6cd4:	e8 17 a4 ff ff       	call   10f0 <printf@plt>
    6cd9:	b8 00 00 00 00       	mov    eax,0x0
    6cde:	e8 8d a5 ff ff       	call   1270 <get_input>
    6ce3:	89 45 fc             	mov    DWORD PTR [rbp-0x4],eax
    6ce6:	81 7d fc 18 02 00 00 	cmp    DWORD PTR [rbp-0x4],0x218
    6ced:	75 05                	jne    6cf4 <main+0x59dd>
    6cef:	e9 0d 61 00 00       	jmp    ce01 <main+0xbaea>
    6cf4:	81 7d fc 60 02 00 00 	cmp    DWORD PTR [rbp-0x4],0x260
    6cfb:	75 05                	jne    6d02 <main+0x59eb>
    6cfd:	e9 19 7b 00 00       	jmp    e81b <main+0xd504>
    6d02:	48 8d 05 1f 83 00 00 	lea    rax,[rip+0x831f]        # f028 <_IO_stdin_used+0x28>
    6d09:	48 89 c7             	mov    rdi,rax
    6d0c:	e8 af a3 ff ff       	call   10c0 <puts@plt>
    6d11:	bf 01 00 00 00       	mov    edi,0x1
    6d16:	e8 15 a4 ff ff       	call   1130 <exit@plt>
    6d1b:	90                   	nop
    6d1c:	be 02 01 00 00       	mov    esi,0x102
    6d21:	48 8d 05 f1 82 00 00 	lea    rax,[rip+0x82f1]        # f019 <_IO_stdin_used+0x19>
    6d28:	48 89 c7             	mov    rdi,rax
    6d2b:	b8 00 00 00 00       	mov    eax,0x0
    6d30:	e8 bb a3 ff ff       	call   10f0 <printf@plt>
    6d35:	b8 00 00 00 00       	mov    eax,0x0
    6d3a:	e8 31 a5 ff ff       	call   1270 <get_input>
    6d3f:	89 45 fc             	mov    DWORD PTR [rbp-0x4],eax
    6d42:	83 7d fc 20          	cmp    DWORD PTR [rbp-0x4],0x20
    6d46:	75 05                	jne    6d4d <main+0x5a36>
    6d48:	e9 e2 b0 ff ff       	jmp    1e2f <main+0xb18>
    6d4d:	48 8d 05 d4 82 00 00 	lea    rax,[rip+0x82d4]        # f028 <_IO_stdin_used+0x28>
    6d54:	48 89 c7             	mov    rdi,rax
    6d57:	e8 64 a3 ff ff       	call   10c0 <puts@plt>
    6d5c:	bf 01 00 00 00       	mov    edi,0x1
    6d61:	e8 ca a3 ff ff       	call   1130 <exit@plt>
    6d66:	be 03 01 00 00       	mov    esi,0x103
    6d6b:	48 8d 05 a7 82 00 00 	lea    rax,[rip+0x82a7]        # f019 <_IO_stdin_used+0x19>
    6d72:	48 89 c7             	mov    rdi,rax
    6d75:	b8 00 00 00 00       	mov    eax,0x0
    6d7a:	e8 71 a3 ff ff       	call   10f0 <printf@plt>
    6d7f:	b8 00 00 00 00       	mov    eax,0x0
    6d84:	e8 e7 a4 ff ff       	call   1270 <get_input>
    6d89:	89 45 fc             	mov    DWORD PTR [rbp-0x4],eax
    6d8c:	81 7d fc 87 00 00 00 	cmp    DWORD PTR [rbp-0x4],0x87
    6d93:	0f 84 9d d4 ff ff    	je     4236 <main+0x2f1f>
    6d99:	83 7d fc 7e          	cmp    DWORD PTR [rbp-0x4],0x7e
    6d9d:	75 05                	jne    6da4 <main+0x5a8d>
    6d9f:	e9 79 d1 ff ff       	jmp    3f1d <main+0x2c06>
    6da4:	48 8d 05 7d 82 00 00 	lea    rax,[rip+0x827d]        # f028 <_IO_stdin_used+0x28>
    6dab:	48 89 c7             	mov    rdi,rax
    6dae:	e8 0d a3 ff ff       	call   10c0 <puts@plt>
    6db3:	bf 01 00 00 00       	mov    edi,0x1
    6db8:	e8 73 a3 ff ff       	call   1130 <exit@plt>
    6dbd:	be 04 01 00 00       	mov    esi,0x104
    6dc2:	48 8d 05 50 82 00 00 	lea    rax,[rip+0x8250]        # f019 <_IO_stdin_used+0x19>
    6dc9:	48 89 c7             	mov    rdi,rax
    6dcc:	b8 00 00 00 00       	mov    eax,0x0
    6dd1:	e8 1a a3 ff ff       	call   10f0 <printf@plt>
    6dd6:	b8 00 00 00 00       	mov    eax,0x0
    6ddb:	e8 90 a4 ff ff       	call   1270 <get_input>
    6de0:	89 45 fc             	mov    DWORD PTR [rbp-0x4],eax
    6de3:	81 7d fc d6 00 00 00 	cmp    DWORD PTR [rbp-0x4],0xd6
    6dea:	75 05                	jne    6df1 <main+0x5ada>
    6dec:	e9 b3 ef ff ff       	jmp    5da4 <main+0x4a8d>
    6df1:	83 7d fc 1e          	cmp    DWORD PTR [rbp-0x4],0x1e
    6df5:	75 05                	jne    6dfc <main+0x5ae5>
    6df7:	e9 8a af ff ff       	jmp    1d86 <main+0xa6f>
    6dfc:	48 8d 05 25 82 00 00 	lea    rax,[rip+0x8225]        # f028 <_IO_stdin_used+0x28>
    6e03:	48 89 c7             	mov    rdi,rax
    6e06:	e8 b5 a2 ff ff       	call   10c0 <puts@plt>
    6e0b:	bf 01 00 00 00       	mov    edi,0x1
    6e10:	e8 1b a3 ff ff       	call   1130 <exit@plt>
    6e15:	90                   	nop
    6e16:	be 05 01 00 00       	mov    esi,0x105
    6e1b:	48 8d 05 f7 81 00 00 	lea    rax,[rip+0x81f7]        # f019 <_IO_stdin_used+0x19>
    6e22:	48 89 c7             	mov    rdi,rax
    6e25:	b8 00 00 00 00       	mov    eax,0x0
    6e2a:	e8 c1 a2 ff ff       	call   10f0 <printf@plt>
    6e2f:	b8 00 00 00 00       	mov    eax,0x0
    6e34:	e8 37 a4 ff ff       	call   1270 <get_input>
    6e39:	89 45 fc             	mov    DWORD PTR [rbp-0x4],eax
    6e3c:	81 7d fc 4a 01 00 00 	cmp    DWORD PTR [rbp-0x4],0x14a
    6e43:	75 05                	jne    6e4a <main+0x5b33>
    6e45:	e9 d8 17 00 00       	jmp    8622 <main+0x730b>
    6e4a:	48 8d 05 d7 81 00 00 	lea    rax,[rip+0x81d7]        # f028 <_IO_stdin_used+0x28>
    6e51:	48 89 c7             	mov    rdi,rax
    6e54:	e8 67 a2 ff ff       	call   10c0 <puts@plt>
    6e59:	bf 01 00 00 00       	mov    edi,0x1
    6e5e:	e8 cd a2 ff ff       	call   1130 <exit@plt>
    6e63:	90                   	nop
    6e64:	be 06 01 00 00       	mov    esi,0x106
    6e69:	48 8d 05 a9 81 00 00 	lea    rax,[rip+0x81a9]        # f019 <_IO_stdin_used+0x19>
    6e70:	48 89 c7             	mov    rdi,rax
    6e73:	b8 00 00 00 00       	mov    eax,0x0
    6e78:	e8 73 a2 ff ff       	call   10f0 <printf@plt>
    6e7d:	b8 00 00 00 00       	mov    eax,0x0
    6e82:	e8 e9 a3 ff ff       	call   1270 <get_input>
    6e87:	89 45 fc             	mov    DWORD PTR [rbp-0x4],eax
    6e8a:	81 7d fc 25 01 00 00 	cmp    DWORD PTR [rbp-0x4],0x125
    6e91:	75 05                	jne    6e98 <main+0x5b81>
    6e93:	e9 76 0a 00 00       	jmp    790e <main+0x65f7>
    6e98:	48 8d 05 89 81 00 00 	lea    rax,[rip+0x8189]        # f028 <_IO_stdin_used+0x28>
    6e9f:	48 89 c7             	mov    rdi,rax
    6ea2:	e8 19 a2 ff ff       	call   10c0 <puts@plt>
    6ea7:	bf 01 00 00 00       	mov    edi,0x1
    6eac:	e8 7f a2 ff ff       	call   1130 <exit@plt>
    6eb1:	be 07 01 00 00       	mov    esi,0x107
    6eb6:	48 8d 05 5c 81 00 00 	lea    rax,[rip+0x815c]        # f019 <_IO_stdin_used+0x19>
    6ebd:	48 89 c7             	mov    rdi,rax
    6ec0:	b8 00 00 00 00       	mov    eax,0x0
    6ec5:	e8 26 a2 ff ff       	call   10f0 <printf@plt>
    6eca:	b8 00 00 00 00       	mov    eax,0x0
    6ecf:	e8 9c a3 ff ff       	call   1270 <get_input>
    6ed4:	89 45 fc             	mov    DWORD PTR [rbp-0x4],eax
    6ed7:	81 7d fc 2a 02 00 00 	cmp    DWORD PTR [rbp-0x4],0x22a
    6ede:	75 05                	jne    6ee5 <main+0x5bce>
    6ee0:	e9 4d 65 00 00       	jmp    d432 <main+0xc11b>
    6ee5:	81 7d fc 2f 01 00 00 	cmp    DWORD PTR [rbp-0x4],0x12f
    6eec:	75 05                	jne    6ef3 <main+0x5bdc>
    6eee:	e9 a2 0d 00 00       	jmp    7c95 <main+0x697e>
    6ef3:	48 8d 05 2e 81 00 00 	lea    rax,[rip+0x812e]        # f028 <_IO_stdin_used+0x28>
    6efa:	48 89 c7             	mov    rdi,rax
    6efd:	e8 be a1 ff ff       	call   10c0 <puts@plt>
    6f02:	bf 01 00 00 00       	mov    edi,0x1
    6f07:	e8 24 a2 ff ff       	call   1130 <exit@plt>
    6f0c:	be 08 01 00 00       	mov    esi,0x108
    6f11:	48 8d 05 01 81 00 00 	lea    rax,[rip+0x8101]        # f019 <_IO_stdin_used+0x19>
    6f18:	48 89 c7             	mov    rdi,rax
    6f1b:	b8 00 00 00 00       	mov    eax,0x0
    6f20:	e8 cb a1 ff ff       	call   10f0 <printf@plt>
    6f25:	b8 00 00 00 00       	mov    eax,0x0
    6f2a:	e8 41 a3 ff ff       	call   1270 <get_input>
    6f2f:	89 45 fc             	mov    DWORD PTR [rbp-0x4],eax
    6f32:	81 7d fc c2 01 00 00 	cmp    DWORD PTR [rbp-0x4],0x1c2
    6f39:	75 05                	jne    6f40 <main+0x5c29>
    6f3b:	e9 2b 41 00 00       	jmp    b06b <main+0x9d54>
    6f40:	81 7d fc 80 01 00 00 	cmp    DWORD PTR [rbp-0x4],0x180
    6f47:	75 05                	jne    6f4e <main+0x5c37>
    6f49:	e9 c7 29 00 00       	jmp    9915 <main+0x85fe>
    6f4e:	48 8d 05 d3 80 00 00 	lea    rax,[rip+0x80d3]        # f028 <_IO_stdin_used+0x28>
    6f55:	48 89 c7             	mov    rdi,rax
    6f58:	e8 63 a1 ff ff       	call   10c0 <puts@plt>
    6f5d:	bf 01 00 00 00       	mov    edi,0x1
    6f62:	e8 c9 a1 ff ff       	call   1130 <exit@plt>
    6f67:	be 09 01 00 00       	mov    esi,0x109
    6f6c:	48 8d 05 a6 80 00 00 	lea    rax,[rip+0x80a6]        # f019 <_IO_stdin_used+0x19>
    6f73:	48 89 c7             	mov    rdi,rax
    6f76:	b8 00 00 00 00       	mov    eax,0x0
    6f7b:	e8 70 a1 ff ff       	call   10f0 <printf@plt>
    6f80:	b8 00 00 00 00       	mov    eax,0x0
    6f85:	e8 e6 a2 ff ff       	call   1270 <get_input>
    6f8a:	89 45 fc             	mov    DWORD PTR [rbp-0x4],eax
    6f8d:	81 7d fc 4b 02 00 00 	cmp    DWORD PTR [rbp-0x4],0x24b
    6f94:	75 05                	jne    6f9b <main+0x5c84>
    6f96:	e9 d2 70 00 00       	jmp    e06d <main+0xcd56>
    6f9b:	81 7d fc bb 00 00 00 	cmp    DWORD PTR [rbp-0x4],0xbb
    6fa2:	75 05                	jne    6fa9 <main+0x5c92>
    6fa4:	e9 a5 e4 ff ff       	jmp    544e <main+0x4137>
    6fa9:	48 8d 05 78 80 00 00 	lea    rax,[rip+0x8078]        # f028 <_IO_stdin_used+0x28>
    6fb0:	48 89 c7             	mov    rdi,rax
    6fb3:	e8 08 a1 ff ff       	call   10c0 <puts@plt>
    6fb8:	bf 01 00 00 00       	mov    edi,0x1
    6fbd:	e8 6e a1 ff ff       	call   1130 <exit@plt>
    6fc2:	be 0a 01 00 00       	mov    esi,0x10a
    6fc7:	48 8d 05 4b 80 00 00 	lea    rax,[rip+0x804b]        # f019 <_IO_stdin_used+0x19>
    6fce:	48 89 c7             	mov    rdi,rax
    6fd1:	b8 00 00 00 00       	mov    eax,0x0
    6fd6:	e8 15 a1 ff ff       	call   10f0 <printf@plt>
    6fdb:	b8 00 00 00 00       	mov    eax,0x0
    6fe0:	e8 8b a2 ff ff       	call   1270 <get_input>
    6fe5:	89 45 fc             	mov    DWORD PTR [rbp-0x4],eax
    6fe8:	81 7d fc 9e 00 00 00 	cmp    DWORD PTR [rbp-0x4],0x9e
    6fef:	75 05                	jne    6ff6 <main+0x5cdf>
    6ff1:	e9 56 da ff ff       	jmp    4a4c <main+0x3735>
    6ff6:	81 7d fc 84 01 00 00 	cmp    DWORD PTR [rbp-0x4],0x184
    6ffd:	75 05                	jne    7004 <main+0x5ced>
    6fff:	e9 77 2a 00 00       	jmp    9a7b <main+0x8764>
    7004:	81 7d fc 8c 01 00 00 	cmp    DWORD PTR [rbp-0x4],0x18c
    700b:	0f 84 51 2d 00 00    	je     9d62 <main+0x8a4b>
    7011:	48 8d 05 10 80 00 00 	lea    rax,[rip+0x8010]        # f028 <_IO_stdin_used+0x28>
    7018:	48 89 c7             	mov    rdi,rax
    701b:	e8 a0 a0 ff ff       	call   10c0 <puts@plt>
    7020:	bf 01 00 00 00       	mov    edi,0x1
    7025:	e8 06 a1 ff ff       	call   1130 <exit@plt>
    702a:	90                   	nop
    702b:	be 0b 01 00 00       	mov    esi,0x10b
    7030:	48 8d 05 e2 7f 00 00 	lea    rax,[rip+0x7fe2]        # f019 <_IO_stdin_used+0x19>
    7037:	48 89 c7             	mov    rdi,rax
    703a:	b8 00 00 00 00       	mov    eax,0x0
    703f:	e8 ac a0 ff ff       	call   10f0 <printf@plt>
    7044:	b8 00 00 00 00       	mov    eax,0x0
    7049:	e8 22 a2 ff ff       	call   1270 <get_input>
    704e:	89 45 fc             	mov    DWORD PTR [rbp-0x4],eax
    7051:	81 7d fc 9b 01 00 00 	cmp    DWORD PTR [rbp-0x4],0x19b
    7058:	75 05                	jne    705f <main+0x5d48>
    705a:	e9 5e 32 00 00       	jmp    a2bd <main+0x8fa6>
    705f:	48 8d 05 c2 7f 00 00 	lea    rax,[rip+0x7fc2]        # f028 <_IO_stdin_used+0x28>
    7066:	48 89 c7             	mov    rdi,rax
    7069:	e8 52 a0 ff ff       	call   10c0 <puts@plt>
    706e:	bf 01 00 00 00       	mov    edi,0x1
    7073:	e8 b8 a0 ff ff       	call   1130 <exit@plt>
    7078:	90                   	nop
    7079:	be 0c 01 00 00       	mov    esi,0x10c
    707e:	48 8d 05 94 7f 00 00 	lea    rax,[rip+0x7f94]        # f019 <_IO_stdin_used+0x19>
    7085:	48 89 c7             	mov    rdi,rax
    7088:	b8 00 00 00 00       	mov    eax,0x0
    708d:	e8 5e a0 ff ff       	call   10f0 <printf@plt>
    7092:	b8 00 00 00 00       	mov    eax,0x0
    7097:	e8 d4 a1 ff ff       	call   1270 <get_input>
    709c:	89 45 fc             	mov    DWORD PTR [rbp-0x4],eax
    709f:	81 7d fc 17 01 00 00 	cmp    DWORD PTR [rbp-0x4],0x117
    70a6:	75 05                	jne    70ad <main+0x5d96>
    70a8:	e9 9d 03 00 00       	jmp    744a <main+0x6133>
    70ad:	48 8d 05 74 7f 00 00 	lea    rax,[rip+0x7f74]        # f028 <_IO_stdin_used+0x28>
    70b4:	48 89 c7             	mov    rdi,rax
    70b7:	e8 04 a0 ff ff       	call   10c0 <puts@plt>
    70bc:	bf 01 00 00 00       	mov    edi,0x1
    70c1:	e8 6a a0 ff ff       	call   1130 <exit@plt>
    70c6:	be 0d 01 00 00       	mov    esi,0x10d
    70cb:	48 8d 05 47 7f 00 00 	lea    rax,[rip+0x7f47]        # f019 <_IO_stdin_used+0x19>
    70d2:	48 89 c7             	mov    rdi,rax
    70d5:	b8 00 00 00 00       	mov    eax,0x0
    70da:	e8 11 a0 ff ff       	call   10f0 <printf@plt>
    70df:	b8 00 00 00 00       	mov    eax,0x0
    70e4:	e8 87 a1 ff ff       	call   1270 <get_input>
    70e9:	89 45 fc             	mov    DWORD PTR [rbp-0x4],eax
    70ec:	81 7d fc 5f 01 00 00 	cmp    DWORD PTR [rbp-0x4],0x15f
    70f3:	75 05                	jne    70fa <main+0x5de3>
    70f5:	e9 9a 1c 00 00       	jmp    8d94 <main+0x7a7d>
    70fa:	81 7d fc 36 02 00 00 	cmp    DWORD PTR [rbp-0x4],0x236
    7101:	75 05                	jne    7108 <main+0x5df1>
    7103:	e9 bb 67 00 00       	jmp    d8c3 <main+0xc5ac>
    7108:	81 7d fc 59 02 00 00 	cmp    DWORD PTR [rbp-0x4],0x259
    710f:	0f 84 8f 74 00 00    	je     e5a4 <main+0xd28d>
    7115:	48 8d 05 0c 7f 00 00 	lea    rax,[rip+0x7f0c]        # f028 <_IO_stdin_used+0x28>
    711c:	48 89 c7             	mov    rdi,rax
    711f:	e8 9c 9f ff ff       	call   10c0 <puts@plt>
    7124:	bf 01 00 00 00       	mov    edi,0x1
    7129:	e8 02 a0 ff ff       	call   1130 <exit@plt>
    712e:	be 0e 01 00 00       	mov    esi,0x10e
    7133:	48 8d 05 df 7e 00 00 	lea    rax,[rip+0x7edf]        # f019 <_IO_stdin_used+0x19>
    713a:	48 89 c7             	mov    rdi,rax
    713d:	b8 00 00 00 00       	mov    eax,0x0
    7142:	e8 a9 9f ff ff       	call   10f0 <printf@plt>
    7147:	b8 00 00 00 00       	mov    eax,0x0
    714c:	e8 1f a1 ff ff       	call   1270 <get_input>
    7151:	89 45 fc             	mov    DWORD PTR [rbp-0x4],eax
    7154:	81 7d fc 62 02 00 00 	cmp    DWORD PTR [rbp-0x4],0x262
    715b:	75 05                	jne    7162 <main+0x5e4b>
    715d:	e9 7a 77 00 00       	jmp    e8dc <main+0xd5c5>
    7162:	81 7d fc a1 01 00 00 	cmp    DWORD PTR [rbp-0x4],0x1a1
    7169:	0f 84 82 33 00 00    	je     a4f1 <main+0x91da>
    716f:	48 8d 05 b2 7e 00 00 	lea    rax,[rip+0x7eb2]        # f028 <_IO_stdin_used+0x28>
    7176:	48 89 c7             	mov    rdi,rax
    7179:	e8 42 9f ff ff       	call   10c0 <puts@plt>
    717e:	bf 01 00 00 00       	mov    edi,0x1
    7183:	e8 a8 9f ff ff       	call   1130 <exit@plt>
    7188:	90                   	nop
    7189:	be 0f 01 00 00       	mov    esi,0x10f
    718e:	48 8d 05 84 7e 00 00 	lea    rax,[rip+0x7e84]        # f019 <_IO_stdin_used+0x19>
    7195:	48 89 c7             	mov    rdi,rax
    7198:	b8 00 00 00 00       	mov    eax,0x0
    719d:	e8 4e 9f ff ff       	call   10f0 <printf@plt>
    71a2:	b8 00 00 00 00       	mov    eax,0x0
    71a7:	e8 c4 a0 ff ff       	call   1270 <get_input>
    71ac:	89 45 fc             	mov    DWORD PTR [rbp-0x4],eax
    71af:	81 7d fc 6a 02 00 00 	cmp    DWORD PTR [rbp-0x4],0x26a
    71b6:	75 05                	jne    71bd <main+0x5ea6>
    71b8:	e9 15 7a 00 00       	jmp    ebd2 <main+0xd8bb>
    71bd:	48 8d 05 64 7e 00 00 	lea    rax,[rip+0x7e64]        # f028 <_IO_stdin_used+0x28>
    71c4:	48 89 c7             	mov    rdi,rax
    71c7:	e8 f4 9e ff ff       	call   10c0 <puts@plt>
    71cc:	bf 01 00 00 00       	mov    edi,0x1
    71d1:	e8 5a 9f ff ff       	call   1130 <exit@plt>
    71d6:	be 10 01 00 00       	mov    esi,0x110
    71db:	48 8d 05 37 7e 00 00 	lea    rax,[rip+0x7e37]        # f019 <_IO_stdin_used+0x19>
    71e2:	48 89 c7             	mov    rdi,rax
    71e5:	b8 00 00 00 00       	mov    eax,0x0
    71ea:	e8 01 9f ff ff       	call   10f0 <printf@plt>
    71ef:	b8 00 00 00 00       	mov    eax,0x0
    71f4:	e8 77 a0 ff ff       	call   1270 <get_input>
    71f9:	89 45 fc             	mov    DWORD PTR [rbp-0x4],eax
    71fc:	83 7d fc 3a          	cmp    DWORD PTR [rbp-0x4],0x3a
    7200:	75 05                	jne    7207 <main+0x5ef0>
    7202:	e9 bb b4 ff ff       	jmp    26c2 <main+0x13ab>
    7207:	83 7d fc 7a          	cmp    DWORD PTR [rbp-0x4],0x7a
    720b:	75 05                	jne    7212 <main+0x5efb>
    720d:	e9 9b cb ff ff       	jmp    3dad <main+0x2a96>
    7212:	48 8d 05 0f 7e 00 00 	lea    rax,[rip+0x7e0f]        # f028 <_IO_stdin_used+0x28>
    7219:	48 89 c7             	mov    rdi,rax
    721c:	e8 9f 9e ff ff       	call   10c0 <puts@plt>
    7221:	bf 01 00 00 00       	mov    edi,0x1
    7226:	e8 05 9f ff ff       	call   1130 <exit@plt>
    722b:	be 11 01 00 00       	mov    esi,0x111
    7230:	48 8d 05 e2 7d 00 00 	lea    rax,[rip+0x7de2]        # f019 <_IO_stdin_used+0x19>
    7237:	48 89 c7             	mov    rdi,rax
    723a:	b8 00 00 00 00       	mov    eax,0x0
    723f:	e8 ac 9e ff ff       	call   10f0 <printf@plt>
    7244:	b8 00 00 00 00       	mov    eax,0x0
    7249:	e8 22 a0 ff ff       	call   1270 <get_input>
    724e:	89 45 fc             	mov    DWORD PTR [rbp-0x4],eax
    7251:	83 7d fc 4d          	cmp    DWORD PTR [rbp-0x4],0x4d
    7255:	75 05                	jne    725c <main+0x5f45>
    7257:	e9 23 bb ff ff       	jmp    2d7f <main+0x1a68>
    725c:	81 7d fc ec 00 00 00 	cmp    DWORD PTR [rbp-0x4],0xec
    7263:	75 05                	jne    726a <main+0x5f53>
    7265:	e9 e7 f2 ff ff       	jmp    6551 <main+0x523a>
    726a:	48 8d 05 b7 7d 00 00 	lea    rax,[rip+0x7db7]        # f028 <_IO_stdin_used+0x28>
    7271:	48 89 c7             	mov    rdi,rax
    7274:	e8 47 9e ff ff       	call   10c0 <puts@plt>
    7279:	bf 01 00 00 00       	mov    edi,0x1
    727e:	e8 ad 9e ff ff       	call   1130 <exit@plt>
    7283:	be 12 01 00 00       	mov    esi,0x112
    7288:	48 8d 05 8a 7d 00 00 	lea    rax,[rip+0x7d8a]        # f019 <_IO_stdin_used+0x19>
    728f:	48 89 c7             	mov    rdi,rax
    7292:	b8 00 00 00 00       	mov    eax,0x0
    7297:	e8 54 9e ff ff       	call   10f0 <printf@plt>
    729c:	b8 00 00 00 00       	mov    eax,0x0
    72a1:	e8 ca 9f ff ff       	call   1270 <get_input>
    72a6:	89 45 fc             	mov    DWORD PTR [rbp-0x4],eax
    72a9:	81 7d fc 61 01 00 00 	cmp    DWORD PTR [rbp-0x4],0x161
    72b0:	75 05                	jne    72b7 <main+0x5fa0>
    72b2:	e9 82 1b 00 00       	jmp    8e39 <main+0x7b22>
    72b7:	83 7d fc 2e          	cmp    DWORD PTR [rbp-0x4],0x2e
    72bb:	75 05                	jne    72c2 <main+0x5fab>
    72bd:	e9 21 b0 ff ff       	jmp    22e3 <main+0xfcc>
    72c2:	83 7d fc 54          	cmp    DWORD PTR [rbp-0x4],0x54
    72c6:	0f 84 4c bd ff ff    	je     3018 <main+0x1d01>
    72cc:	48 8d 05 55 7d 00 00 	lea    rax,[rip+0x7d55]        # f028 <_IO_stdin_used+0x28>
    72d3:	48 89 c7             	mov    rdi,rax
    72d6:	e8 e5 9d ff ff       	call   10c0 <puts@plt>
    72db:	bf 01 00 00 00       	mov    edi,0x1
    72e0:	e8 4b 9e ff ff       	call   1130 <exit@plt>
    72e5:	90                   	nop
    72e6:	be 13 01 00 00       	mov    esi,0x113
    72eb:	48 8d 05 27 7d 00 00 	lea    rax,[rip+0x7d27]        # f019 <_IO_stdin_used+0x19>
    72f2:	48 89 c7             	mov    rdi,rax
    72f5:	b8 00 00 00 00       	mov    eax,0x0
    72fa:	e8 f1 9d ff ff       	call   10f0 <printf@plt>
    72ff:	b8 00 00 00 00       	mov    eax,0x0
    7304:	e8 67 9f ff ff       	call   1270 <get_input>
    7309:	89 45 fc             	mov    DWORD PTR [rbp-0x4],eax
    730c:	81 7d fc cf 00 00 00 	cmp    DWORD PTR [rbp-0x4],0xcf
    7313:	75 05                	jne    731a <main+0x6003>
    7315:	e9 2b e8 ff ff       	jmp    5b45 <main+0x482e>
    731a:	48 8d 05 07 7d 00 00 	lea    rax,[rip+0x7d07]        # f028 <_IO_stdin_used+0x28>
    7321:	48 89 c7             	mov    rdi,rax
    7324:	e8 97 9d ff ff       	call   10c0 <puts@plt>
    7329:	bf 01 00 00 00       	mov    edi,0x1
    732e:	e8 fd 9d ff ff       	call   1130 <exit@plt>
    7333:	be 14 01 00 00       	mov    esi,0x114
    7338:	48 8d 05 da 7c 00 00 	lea    rax,[rip+0x7cda]        # f019 <_IO_stdin_used+0x19>
    733f:	48 89 c7             	mov    rdi,rax
    7342:	b8 00 00 00 00       	mov    eax,0x0
    7347:	e8 a4 9d ff ff       	call   10f0 <printf@plt>
    734c:	b8 00 00 00 00       	mov    eax,0x0
    7351:	e8 1a 9f ff ff       	call   1270 <get_input>
    7356:	89 45 fc             	mov    DWORD PTR [rbp-0x4],eax
    7359:	83 7d fc 12          	cmp    DWORD PTR [rbp-0x4],0x12
    735d:	75 05                	jne    7364 <main+0x604d>
    735f:	e9 e4 a5 ff ff       	jmp    1948 <main+0x631>
    7364:	83 7d fc 72          	cmp    DWORD PTR [rbp-0x4],0x72
    7368:	75 05                	jne    736f <main+0x6058>
    736a:	e9 3d c7 ff ff       	jmp    3aac <main+0x2795>
    736f:	83 7d fc 43          	cmp    DWORD PTR [rbp-0x4],0x43
    7373:	75 05                	jne    737a <main+0x6063>
    7375:	e9 69 b6 ff ff       	jmp    29e3 <main+0x16cc>
    737a:	48 8d 05 a7 7c 00 00 	lea    rax,[rip+0x7ca7]        # f028 <_IO_stdin_used+0x28>
    7381:	48 89 c7             	mov    rdi,rax
    7384:	e8 37 9d ff ff       	call   10c0 <puts@plt>
    7389:	bf 01 00 00 00       	mov    edi,0x1
    738e:	e8 9d 9d ff ff       	call   1130 <exit@plt>
    7393:	be 15 01 00 00       	mov    esi,0x115
    7398:	48 8d 05 7a 7c 00 00 	lea    rax,[rip+0x7c7a]        # f019 <_IO_stdin_used+0x19>
    739f:	48 89 c7             	mov    rdi,rax
    73a2:	b8 00 00 00 00       	mov    eax,0x0
    73a7:	e8 44 9d ff ff       	call   10f0 <printf@plt>
    73ac:	b8 00 00 00 00       	mov    eax,0x0
    73b1:	e8 ba 9e ff ff       	call   1270 <get_input>
    73b6:	89 45 fc             	mov    DWORD PTR [rbp-0x4],eax
    73b9:	81 7d fc 6d 01 00 00 	cmp    DWORD PTR [rbp-0x4],0x16d
    73c0:	75 05                	jne    73c7 <main+0x60b0>
    73c2:	e9 7b 1e 00 00       	jmp    9242 <main+0x7f2b>
    73c7:	81 7d fc 51 02 00 00 	cmp    DWORD PTR [rbp-0x4],0x251
    73ce:	75 05                	jne    73d5 <main+0x60be>
    73d0:	e9 d6 6e 00 00       	jmp    e2ab <main+0xcf94>
    73d5:	81 7d fc c7 00 00 00 	cmp    DWORD PTR [rbp-0x4],0xc7
    73dc:	75 05                	jne    73e3 <main+0x60cc>
    73de:	e9 9f e4 ff ff       	jmp    5882 <main+0x456b>
    73e3:	48 8d 05 3e 7c 00 00 	lea    rax,[rip+0x7c3e]        # f028 <_IO_stdin_used+0x28>
    73ea:	48 89 c7             	mov    rdi,rax
    73ed:	e8 ce 9c ff ff       	call   10c0 <puts@plt>
    73f2:	bf 01 00 00 00       	mov    edi,0x1
    73f7:	e8 34 9d ff ff       	call   1130 <exit@plt>
    73fc:	90                   	nop
    73fd:	be 16 01 00 00       	mov    esi,0x116
    7402:	48 8d 05 10 7c 00 00 	lea    rax,[rip+0x7c10]        # f019 <_IO_stdin_used+0x19>
    7409:	48 89 c7             	mov    rdi,rax
    740c:	b8 00 00 00 00       	mov    eax,0x0
    7411:	e8 da 9c ff ff       	call   10f0 <printf@plt>
    7416:	b8 00 00 00 00       	mov    eax,0x0
    741b:	e8 50 9e ff ff       	call   1270 <get_input>
    7420:	89 45 fc             	mov    DWORD PTR [rbp-0x4],eax
    7423:	81 7d fc f0 01 00 00 	cmp    DWORD PTR [rbp-0x4],0x1f0
    742a:	75 05                	jne    7431 <main+0x611a>
    742c:	e9 29 4c 00 00       	jmp    c05a <main+0xad43>
    7431:	48 8d 05 f0 7b 00 00 	lea    rax,[rip+0x7bf0]        # f028 <_IO_stdin_used+0x28>
    7438:	48 89 c7             	mov    rdi,rax
    743b:	e8 80 9c ff ff       	call   10c0 <puts@plt>
    7440:	bf 01 00 00 00       	mov    edi,0x1
    7445:	e8 e6 9c ff ff       	call   1130 <exit@plt>
    744a:	be 17 01 00 00       	mov    esi,0x117
    744f:	48 8d 05 c3 7b 00 00 	lea    rax,[rip+0x7bc3]        # f019 <_IO_stdin_used+0x19>
    7456:	48 89 c7             	mov    rdi,rax
    7459:	b8 00 00 00 00       	mov    eax,0x0
    745e:	e8 8d 9c ff ff       	call   10f0 <printf@plt>
    7463:	b8 00 00 00 00       	mov    eax,0x0
    7468:	e8 03 9e ff ff       	call   1270 <get_input>
    746d:	89 45 fc             	mov    DWORD PTR [rbp-0x4],eax
    7470:	81 7d fc 8e 01 00 00 	cmp    DWORD PTR [rbp-0x4],0x18e
    7477:	75 05                	jne    747e <main+0x6167>
    7479:	e9 9b 29 00 00       	jmp    9e19 <main+0x8b02>
    747e:	81 7d fc 0c 01 00 00 	cmp    DWORD PTR [rbp-0x4],0x10c
    7485:	0f 84 ed fb ff ff    	je     7078 <main+0x5d61>
    748b:	81 7d fc 4c 01 00 00 	cmp    DWORD PTR [rbp-0x4],0x14c
    7492:	75 05                	jne    7499 <main+0x6182>
    7494:	e9 61 12 00 00       	jmp    86fa <main+0x73e3>
    7499:	48 8d 05 88 7b 00 00 	lea    rax,[rip+0x7b88]        # f028 <_IO_stdin_used+0x28>
    74a0:	48 89 c7             	mov    rdi,rax
    74a3:	e8 18 9c ff ff       	call   10c0 <puts@plt>
    74a8:	bf 01 00 00 00       	mov    edi,0x1
    74ad:	e8 7e 9c ff ff       	call   1130 <exit@plt>
    74b2:	90                   	nop
    74b3:	be 18 01 00 00       	mov    esi,0x118
    74b8:	48 8d 05 5a 7b 00 00 	lea    rax,[rip+0x7b5a]        # f019 <_IO_stdin_used+0x19>
    74bf:	48 89 c7             	mov    rdi,rax
    74c2:	b8 00 00 00 00       	mov    eax,0x0
    74c7:	e8 24 9c ff ff       	call   10f0 <printf@plt>
    74cc:	b8 00 00 00 00       	mov    eax,0x0
    74d1:	e8 9a 9d ff ff       	call   1270 <get_input>
    74d6:	89 45 fc             	mov    DWORD PTR [rbp-0x4],eax
    74d9:	81 7d fc dd 00 00 00 	cmp    DWORD PTR [rbp-0x4],0xdd
    74e0:	75 05                	jne    74e7 <main+0x61d0>
    74e2:	e9 3e eb ff ff       	jmp    6025 <main+0x4d0e>
    74e7:	48 8d 05 3a 7b 00 00 	lea    rax,[rip+0x7b3a]        # f028 <_IO_stdin_used+0x28>
    74ee:	48 89 c7             	mov    rdi,rax
    74f1:	e8 ca 9b ff ff       	call   10c0 <puts@plt>
    74f6:	bf 01 00 00 00       	mov    edi,0x1
    74fb:	e8 30 9c ff ff       	call   1130 <exit@plt>
    7500:	be 19 01 00 00       	mov    esi,0x119
    7505:	48 8d 05 0d 7b 00 00 	lea    rax,[rip+0x7b0d]        # f019 <_IO_stdin_used+0x19>
    750c:	48 89 c7             	mov    rdi,rax
    750f:	b8 00 00 00 00       	mov    eax,0x0
    7514:	e8 d7 9b ff ff       	call   10f0 <printf@plt>
    7519:	b8 00 00 00 00       	mov    eax,0x0
    751e:	e8 4d 9d ff ff       	call   1270 <get_input>
    7523:	89 45 fc             	mov    DWORD PTR [rbp-0x4],eax
    7526:	81 7d fc 30 01 00 00 	cmp    DWORD PTR [rbp-0x4],0x130
    752d:	75 05                	jne    7534 <main+0x621d>
    752f:	e9 bc 07 00 00       	jmp    7cf0 <main+0x69d9>
    7534:	83 7d fc 74          	cmp    DWORD PTR [rbp-0x4],0x74
    7538:	75 05                	jne    753f <main+0x6228>
    753a:	e9 3b c6 ff ff       	jmp    3b7a <main+0x2863>
    753f:	83 7d fc 10          	cmp    DWORD PTR [rbp-0x4],0x10
    7543:	75 05                	jne    754a <main+0x6233>
    7545:	e9 3d a3 ff ff       	jmp    1887 <main+0x570>
    754a:	48 8d 05 d7 7a 00 00 	lea    rax,[rip+0x7ad7]        # f028 <_IO_stdin_used+0x28>
    7551:	48 89 c7             	mov    rdi,rax
    7554:	e8 67 9b ff ff       	call   10c0 <puts@plt>
    7559:	bf 01 00 00 00       	mov    edi,0x1
    755e:	e8 cd 9b ff ff       	call   1130 <exit@plt>
    7563:	be 1a 01 00 00       	mov    esi,0x11a
    7568:	48 8d 05 aa 7a 00 00 	lea    rax,[rip+0x7aaa]        # f019 <_IO_stdin_used+0x19>
    756f:	48 89 c7             	mov    rdi,rax
    7572:	b8 00 00 00 00       	mov    eax,0x0
    7577:	e8 74 9b ff ff       	call   10f0 <printf@plt>
    757c:	b8 00 00 00 00       	mov    eax,0x0
    7581:	e8 ea 9c ff ff       	call   1270 <get_input>
    7586:	89 45 fc             	mov    DWORD PTR [rbp-0x4],eax
    7589:	81 7d fc 43 01 00 00 	cmp    DWORD PTR [rbp-0x4],0x143
    7590:	75 05                	jne    7597 <main+0x6280>
    7592:	e9 21 0e 00 00       	jmp    83b8 <main+0x70a1>
    7597:	81 7d fc 44 02 00 00 	cmp    DWORD PTR [rbp-0x4],0x244
    759e:	75 05                	jne    75a5 <main+0x628e>
    75a0:	e9 1f 68 00 00       	jmp    ddc4 <main+0xcaad>
    75a5:	48 8d 05 7c 7a 00 00 	lea    rax,[rip+0x7a7c]        # f028 <_IO_stdin_used+0x28>
    75ac:	48 89 c7             	mov    rdi,rax
    75af:	e8 0c 9b ff ff       	call   10c0 <puts@plt>
    75b4:	bf 01 00 00 00       	mov    edi,0x1
    75b9:	e8 72 9b ff ff       	call   1130 <exit@plt>
    75be:	90                   	nop
    75bf:	be 1b 01 00 00       	mov    esi,0x11b
    75c4:	48 8d 05 4e 7a 00 00 	lea    rax,[rip+0x7a4e]        # f019 <_IO_stdin_used+0x19>
    75cb:	48 89 c7             	mov    rdi,rax
    75ce:	b8 00 00 00 00       	mov    eax,0x0
    75d3:	e8 18 9b ff ff       	call   10f0 <printf@plt>
    75d8:	b8 00 00 00 00       	mov    eax,0x0
    75dd:	e8 8e 9c ff ff       	call   1270 <get_input>
    75e2:	89 45 fc             	mov    DWORD PTR [rbp-0x4],eax
    75e5:	81 7d fc 30 02 00 00 	cmp    DWORD PTR [rbp-0x4],0x230
    75ec:	75 05                	jne    75f3 <main+0x62dc>
    75ee:	e9 93 60 00 00       	jmp    d686 <main+0xc36f>
    75f3:	48 8d 05 2e 7a 00 00 	lea    rax,[rip+0x7a2e]        # f028 <_IO_stdin_used+0x28>
    75fa:	48 89 c7             	mov    rdi,rax
    75fd:	e8 be 9a ff ff       	call   10c0 <puts@plt>
    7602:	bf 01 00 00 00       	mov    edi,0x1
    7607:	e8 24 9b ff ff       	call   1130 <exit@plt>
    760c:	be 1c 01 00 00       	mov    esi,0x11c
    7611:	48 8d 05 01 7a 00 00 	lea    rax,[rip+0x7a01]        # f019 <_IO_stdin_used+0x19>
    7618:	48 89 c7             	mov    rdi,rax
    761b:	b8 00 00 00 00       	mov    eax,0x0
    7620:	e8 cb 9a ff ff       	call   10f0 <printf@plt>
    7625:	b8 00 00 00 00       	mov    eax,0x0
    762a:	e8 41 9c ff ff       	call   1270 <get_input>
    762f:	89 45 fc             	mov    DWORD PTR [rbp-0x4],eax
    7632:	81 7d fc 3f 01 00 00 	cmp    DWORD PTR [rbp-0x4],0x13f
    7639:	75 05                	jne    7640 <main+0x6329>
    763b:	e9 08 0c 00 00       	jmp    8248 <main+0x6f31>
    7640:	83 7d fc 4c          	cmp    DWORD PTR [rbp-0x4],0x4c
    7644:	75 05                	jne    764b <main+0x6334>
    7646:	e9 ce b6 ff ff       	jmp    2d19 <main+0x1a02>
    764b:	81 7d fc 27 02 00 00 	cmp    DWORD PTR [rbp-0x4],0x227
    7652:	0f 84 e3 5c 00 00    	je     d33b <main+0xc024>
    7658:	48 8d 05 c9 79 00 00 	lea    rax,[rip+0x79c9]        # f028 <_IO_stdin_used+0x28>
    765f:	48 89 c7             	mov    rdi,rax
    7662:	e8 59 9a ff ff       	call   10c0 <puts@plt>
    7667:	bf 01 00 00 00       	mov    edi,0x1
    766c:	e8 bf 9a ff ff       	call   1130 <exit@plt>
    7671:	be 1d 01 00 00       	mov    esi,0x11d
    7676:	48 8d 05 9c 79 00 00 	lea    rax,[rip+0x799c]        # f019 <_IO_stdin_used+0x19>
    767d:	48 89 c7             	mov    rdi,rax
    7680:	b8 00 00 00 00       	mov    eax,0x0
    7685:	e8 66 9a ff ff       	call   10f0 <printf@plt>
    768a:	b8 00 00 00 00       	mov    eax,0x0
    768f:	e8 dc 9b ff ff       	call   1270 <get_input>
    7694:	89 45 fc             	mov    DWORD PTR [rbp-0x4],eax
    7697:	81 7d fc e1 01 00 00 	cmp    DWORD PTR [rbp-0x4],0x1e1
    769e:	75 05                	jne    76a5 <main+0x638e>
    76a0:	e9 81 44 00 00       	jmp    bb26 <main+0xa80f>
    76a5:	83 7d fc 4e          	cmp    DWORD PTR [rbp-0x4],0x4e
    76a9:	75 05                	jne    76b0 <main+0x6399>
    76ab:	e9 42 b7 ff ff       	jmp    2df2 <main+0x1adb>
    76b0:	48 8d 05 71 79 00 00 	lea    rax,[rip+0x7971]        # f028 <_IO_stdin_used+0x28>
    76b7:	48 89 c7             	mov    rdi,rax
    76ba:	e8 01 9a ff ff       	call   10c0 <puts@plt>
    76bf:	bf 01 00 00 00       	mov    edi,0x1
    76c4:	e8 67 9a ff ff       	call   1130 <exit@plt>
    76c9:	be 1e 01 00 00       	mov    esi,0x11e
    76ce:	48 8d 05 44 79 00 00 	lea    rax,[rip+0x7944]        # f019 <_IO_stdin_used+0x19>
    76d5:	48 89 c7             	mov    rdi,rax
    76d8:	b8 00 00 00 00       	mov    eax,0x0
    76dd:	e8 0e 9a ff ff       	call   10f0 <printf@plt>
    76e2:	b8 00 00 00 00       	mov    eax,0x0
    76e7:	e8 84 9b ff ff       	call   1270 <get_input>
    76ec:	89 45 fc             	mov    DWORD PTR [rbp-0x4],eax
    76ef:	81 7d fc b5 01 00 00 	cmp    DWORD PTR [rbp-0x4],0x1b5
    76f6:	75 05                	jne    76fd <main+0x63e6>
    76f8:	e9 de 34 00 00       	jmp    abdb <main+0x98c4>
    76fd:	81 7d fc ad 00 00 00 	cmp    DWORD PTR [rbp-0x4],0xad
    7704:	75 05                	jne    770b <main+0x63f4>
    7706:	e9 6a d8 ff ff       	jmp    4f75 <main+0x3c5e>
    770b:	48 8d 05 16 79 00 00 	lea    rax,[rip+0x7916]        # f028 <_IO_stdin_used+0x28>
    7712:	48 89 c7             	mov    rdi,rax
    7715:	e8 a6 99 ff ff       	call   10c0 <puts@plt>
    771a:	bf 01 00 00 00       	mov    edi,0x1
    771f:	e8 0c 9a ff ff       	call   1130 <exit@plt>
    7724:	be 1f 01 00 00       	mov    esi,0x11f
    7729:	48 8d 05 e9 78 00 00 	lea    rax,[rip+0x78e9]        # f019 <_IO_stdin_used+0x19>
    7730:	48 89 c7             	mov    rdi,rax
    7733:	b8 00 00 00 00       	mov    eax,0x0
    7738:	e8 b3 99 ff ff       	call   10f0 <printf@plt>
    773d:	b8 00 00 00 00       	mov    eax,0x0
    7742:	e8 29 9b ff ff       	call   1270 <get_input>
    7747:	89 45 fc             	mov    DWORD PTR [rbp-0x4],eax
    774a:	81 7d fc 77 01 00 00 	cmp    DWORD PTR [rbp-0x4],0x177
    7751:	75 05                	jne    7758 <main+0x6441>
    7753:	e9 98 1e 00 00       	jmp    95f0 <main+0x82d9>
    7758:	83 7d fc 66          	cmp    DWORD PTR [rbp-0x4],0x66
    775c:	75 05                	jne    7763 <main+0x644c>
    775e:	e9 12 bf ff ff       	jmp    3675 <main+0x235e>
    7763:	48 8d 05 be 78 00 00 	lea    rax,[rip+0x78be]        # f028 <_IO_stdin_used+0x28>
    776a:	48 89 c7             	mov    rdi,rax
    776d:	e8 4e 99 ff ff       	call   10c0 <puts@plt>
    7772:	bf 01 00 00 00       	mov    edi,0x1
    7777:	e8 b4 99 ff ff       	call   1130 <exit@plt>
    777c:	be 20 01 00 00       	mov    esi,0x120
    7781:	48 8d 05 91 78 00 00 	lea    rax,[rip+0x7891]        # f019 <_IO_stdin_used+0x19>
    7788:	48 89 c7             	mov    rdi,rax
    778b:	b8 00 00 00 00       	mov    eax,0x0
    7790:	e8 5b 99 ff ff       	call   10f0 <printf@plt>
    7795:	b8 00 00 00 00       	mov    eax,0x0
    779a:	e8 d1 9a ff ff       	call   1270 <get_input>
    779f:	89 45 fc             	mov    DWORD PTR [rbp-0x4],eax
    77a2:	83 7d fc 11          	cmp    DWORD PTR [rbp-0x4],0x11
    77a6:	75 05                	jne    77ad <main+0x6496>
    77a8:	e9 35 a1 ff ff       	jmp    18e2 <main+0x5cb>
    77ad:	83 7d fc 0d          	cmp    DWORD PTR [rbp-0x4],0xd
    77b1:	0f 84 cf 9f ff ff    	je     1786 <main+0x46f>
    77b7:	48 8d 05 6a 78 00 00 	lea    rax,[rip+0x786a]        # f028 <_IO_stdin_used+0x28>
    77be:	48 89 c7             	mov    rdi,rax
    77c1:	e8 fa 98 ff ff       	call   10c0 <puts@plt>
    77c6:	bf 01 00 00 00       	mov    edi,0x1
    77cb:	e8 60 99 ff ff       	call   1130 <exit@plt>
    77d0:	90                   	nop
    77d1:	be 21 01 00 00       	mov    esi,0x121
    77d6:	48 8d 05 3c 78 00 00 	lea    rax,[rip+0x783c]        # f019 <_IO_stdin_used+0x19>
    77dd:	48 89 c7             	mov    rdi,rax
    77e0:	b8 00 00 00 00       	mov    eax,0x0
    77e5:	e8 06 99 ff ff       	call   10f0 <printf@plt>
    77ea:	b8 00 00 00 00       	mov    eax,0x0
    77ef:	e8 7c 9a ff ff       	call   1270 <get_input>
    77f4:	89 45 fc             	mov    DWORD PTR [rbp-0x4],eax
    77f7:	81 7d fc 10 02 00 00 	cmp    DWORD PTR [rbp-0x4],0x210
    77fe:	75 05                	jne    7805 <main+0x64ee>
    7800:	e9 16 53 00 00       	jmp    cb1b <main+0xb804>
    7805:	48 8d 05 1c 78 00 00 	lea    rax,[rip+0x781c]        # f028 <_IO_stdin_used+0x28>
    780c:	48 89 c7             	mov    rdi,rax
    780f:	e8 ac 98 ff ff       	call   10c0 <puts@plt>
    7814:	bf 01 00 00 00       	mov    edi,0x1
    7819:	e8 12 99 ff ff       	call   1130 <exit@plt>
    781e:	be 22 01 00 00       	mov    esi,0x122
    7823:	48 8d 05 ef 77 00 00 	lea    rax,[rip+0x77ef]        # f019 <_IO_stdin_used+0x19>
    782a:	48 89 c7             	mov    rdi,rax
    782d:	b8 00 00 00 00       	mov    eax,0x0
    7832:	e8 b9 98 ff ff       	call   10f0 <printf@plt>
    7837:	b8 00 00 00 00       	mov    eax,0x0
    783c:	e8 2f 9a ff ff       	call   1270 <get_input>
    7841:	89 45 fc             	mov    DWORD PTR [rbp-0x4],eax
    7844:	81 7d fc 07 02 00 00 	cmp    DWORD PTR [rbp-0x4],0x207
    784b:	0f 84 bf 4f 00 00    	je     c810 <main+0xb4f9>
    7851:	81 7d fc 90 00 00 00 	cmp    DWORD PTR [rbp-0x4],0x90
    7858:	75 05                	jne    785f <main+0x6548>
    785a:	e9 16 cd ff ff       	jmp    4575 <main+0x325e>
    785f:	48 8d 05 c2 77 00 00 	lea    rax,[rip+0x77c2]        # f028 <_IO_stdin_used+0x28>
    7866:	48 89 c7             	mov    rdi,rax
    7869:	e8 52 98 ff ff       	call   10c0 <puts@plt>
    786e:	bf 01 00 00 00       	mov    edi,0x1
    7873:	e8 b8 98 ff ff       	call   1130 <exit@plt>
    7878:	90                   	nop
    7879:	be 23 01 00 00       	mov    esi,0x123
    787e:	48 8d 05 94 77 00 00 	lea    rax,[rip+0x7794]        # f019 <_IO_stdin_used+0x19>
    7885:	48 89 c7             	mov    rdi,rax
    7888:	b8 00 00 00 00       	mov    eax,0x0
    788d:	e8 5e 98 ff ff       	call   10f0 <printf@plt>
    7892:	b8 00 00 00 00       	mov    eax,0x0
    7897:	e8 d4 99 ff ff       	call   1270 <get_input>
    789c:	89 45 fc             	mov    DWORD PTR [rbp-0x4],eax
    789f:	83 7d fc 14          	cmp    DWORD PTR [rbp-0x4],0x14
    78a3:	75 05                	jne    78aa <main+0x6593>
    78a5:	e9 53 a1 ff ff       	jmp    19fd <main+0x6e6>
    78aa:	48 8d 05 77 77 00 00 	lea    rax,[rip+0x7777]        # f028 <_IO_stdin_used+0x28>
    78b1:	48 89 c7             	mov    rdi,rax
    78b4:	e8 07 98 ff ff       	call   10c0 <puts@plt>
    78b9:	bf 01 00 00 00       	mov    edi,0x1
    78be:	e8 6d 98 ff ff       	call   1130 <exit@plt>
    78c3:	90                   	nop
    78c4:	be 24 01 00 00       	mov    esi,0x124
    78c9:	48 8d 05 49 77 00 00 	lea    rax,[rip+0x7749]        # f019 <_IO_stdin_used+0x19>
    78d0:	48 89 c7             	mov    rdi,rax
    78d3:	b8 00 00 00 00       	mov    eax,0x0
    78d8:	e8 13 98 ff ff       	call   10f0 <printf@plt>
    78dd:	b8 00 00 00 00       	mov    eax,0x0
    78e2:	e8 89 99 ff ff       	call   1270 <get_input>
    78e7:	89 45 fc             	mov    DWORD PTR [rbp-0x4],eax
    78ea:	83 7d fc 73          	cmp    DWORD PTR [rbp-0x4],0x73
    78ee:	75 05                	jne    78f5 <main+0x65de>
    78f0:	e9 20 c2 ff ff       	jmp    3b15 <main+0x27fe>
    78f5:	48 8d 05 2c 77 00 00 	lea    rax,[rip+0x772c]        # f028 <_IO_stdin_used+0x28>
    78fc:	48 89 c7             	mov    rdi,rax
    78ff:	e8 bc 97 ff ff       	call   10c0 <puts@plt>
    7904:	bf 01 00 00 00       	mov    edi,0x1
    7909:	e8 22 98 ff ff       	call   1130 <exit@plt>
    790e:	be 25 01 00 00       	mov    esi,0x125
    7913:	48 8d 05 ff 76 00 00 	lea    rax,[rip+0x76ff]        # f019 <_IO_stdin_used+0x19>
    791a:	48 89 c7             	mov    rdi,rax
    791d:	b8 00 00 00 00       	mov    eax,0x0
    7922:	e8 c9 97 ff ff       	call   10f0 <printf@plt>
    7927:	b8 00 00 00 00       	mov    eax,0x0
    792c:	e8 3f 99 ff ff       	call   1270 <get_input>
    7931:	89 45 fc             	mov    DWORD PTR [rbp-0x4],eax
    7934:	81 7d fc 85 00 00 00 	cmp    DWORD PTR [rbp-0x4],0x85
    793b:	75 05                	jne    7942 <main+0x662b>
    793d:	e9 51 c8 ff ff       	jmp    4193 <main+0x2e7c>
    7942:	81 7d fc 06 01 00 00 	cmp    DWORD PTR [rbp-0x4],0x106
    7949:	0f 84 14 f5 ff ff    	je     6e63 <main+0x5b4c>
    794f:	81 7d fc 3b 01 00 00 	cmp    DWORD PTR [rbp-0x4],0x13b
    7956:	0f 84 93 07 00 00    	je     80ef <main+0x6dd8>
    795c:	48 8d 05 c5 76 00 00 	lea    rax,[rip+0x76c5]        # f028 <_IO_stdin_used+0x28>
    7963:	48 89 c7             	mov    rdi,rax
    7966:	e8 55 97 ff ff       	call   10c0 <puts@plt>
    796b:	bf 01 00 00 00       	mov    edi,0x1
    7970:	e8 bb 97 ff ff       	call   1130 <exit@plt>
    7975:	be 26 01 00 00       	mov    esi,0x126
    797a:	48 8d 05 98 76 00 00 	lea    rax,[rip+0x7698]        # f019 <_IO_stdin_used+0x19>
    7981:	48 89 c7             	mov    rdi,rax
    7984:	b8 00 00 00 00       	mov    eax,0x0
    7989:	e8 62 97 ff ff       	call   10f0 <printf@plt>
    798e:	b8 00 00 00 00       	mov    eax,0x0
    7993:	e8 d8 98 ff ff       	call   1270 <get_input>
    7998:	89 45 fc             	mov    DWORD PTR [rbp-0x4],eax
    799b:	81 7d fc 6e 02 00 00 	cmp    DWORD PTR [rbp-0x4],0x26e
    79a2:	75 05                	jne    79a9 <main+0x6692>
    79a4:	e9 8f 73 00 00       	jmp    ed38 <main+0xda21>
    79a9:	81 7d fc e3 00 00 00 	cmp    DWORD PTR [rbp-0x4],0xe3
    79b0:	0f 84 8c e8 ff ff    	je     6242 <main+0x4f2b>
    79b6:	81 7d fc 98 00 00 00 	cmp    DWORD PTR [rbp-0x4],0x98
    79bd:	75 05                	jne    79c4 <main+0x66ad>
    79bf:	e9 5d ce ff ff       	jmp    4821 <main+0x350a>
    79c4:	48 8d 05 5d 76 00 00 	lea    rax,[rip+0x765d]        # f028 <_IO_stdin_used+0x28>
    79cb:	48 89 c7             	mov    rdi,rax
    79ce:	e8 ed 96 ff ff       	call   10c0 <puts@plt>
    79d3:	bf 01 00 00 00       	mov    edi,0x1
    79d8:	e8 53 97 ff ff       	call   1130 <exit@plt>
    79dd:	90                   	nop
    79de:	be 27 01 00 00       	mov    esi,0x127
    79e3:	48 8d 05 2f 76 00 00 	lea    rax,[rip+0x762f]        # f019 <_IO_stdin_used+0x19>
    79ea:	48 89 c7             	mov    rdi,rax
    79ed:	b8 00 00 00 00       	mov    eax,0x0
    79f2:	e8 f9 96 ff ff       	call   10f0 <printf@plt>
    79f7:	b8 00 00 00 00       	mov    eax,0x0
    79fc:	e8 6f 98 ff ff       	call   1270 <get_input>
    7a01:	89 45 fc             	mov    DWORD PTR [rbp-0x4],eax
    7a04:	81 7d fc 7e 01 00 00 	cmp    DWORD PTR [rbp-0x4],0x17e
    7a0b:	75 05                	jne    7a12 <main+0x66fb>
    7a0d:	e9 35 1e 00 00       	jmp    9847 <main+0x8530>
    7a12:	48 8d 05 0f 76 00 00 	lea    rax,[rip+0x760f]        # f028 <_IO_stdin_used+0x28>
    7a19:	48 89 c7             	mov    rdi,rax
    7a1c:	e8 9f 96 ff ff       	call   10c0 <puts@plt>
    7a21:	bf 01 00 00 00       	mov    edi,0x1
    7a26:	e8 05 97 ff ff       	call   1130 <exit@plt>
    7a2b:	90                   	nop
    7a2c:	be 28 01 00 00       	mov    esi,0x128
    7a31:	48 8d 05 e1 75 00 00 	lea    rax,[rip+0x75e1]        # f019 <_IO_stdin_used+0x19>
    7a38:	48 89 c7             	mov    rdi,rax
    7a3b:	b8 00 00 00 00       	mov    eax,0x0
    7a40:	e8 ab 96 ff ff       	call   10f0 <printf@plt>
    7a45:	b8 00 00 00 00       	mov    eax,0x0
    7a4a:	e8 21 98 ff ff       	call   1270 <get_input>
    7a4f:	89 45 fc             	mov    DWORD PTR [rbp-0x4],eax
    7a52:	81 7d fc 66 02 00 00 	cmp    DWORD PTR [rbp-0x4],0x266
    7a59:	75 05                	jne    7a60 <main+0x6749>
    7a5b:	e9 f2 6f 00 00       	jmp    ea52 <main+0xd73b>
    7a60:	48 8d 05 c1 75 00 00 	lea    rax,[rip+0x75c1]        # f028 <_IO_stdin_used+0x28>
    7a67:	48 89 c7             	mov    rdi,rax
    7a6a:	e8 51 96 ff ff       	call   10c0 <puts@plt>
    7a6f:	bf 01 00 00 00       	mov    edi,0x1
    7a74:	e8 b7 96 ff ff       	call   1130 <exit@plt>
    7a79:	be 29 01 00 00       	mov    esi,0x129
    7a7e:	48 8d 05 94 75 00 00 	lea    rax,[rip+0x7594]        # f019 <_IO_stdin_used+0x19>
    7a85:	48 89 c7             	mov    rdi,rax
    7a88:	b8 00 00 00 00       	mov    eax,0x0
    7a8d:	e8 5e 96 ff ff       	call   10f0 <printf@plt>
    7a92:	b8 00 00 00 00       	mov    eax,0x0
    7a97:	e8 d4 97 ff ff       	call   1270 <get_input>
    7a9c:	89 45 fc             	mov    DWORD PTR [rbp-0x4],eax
    7a9f:	83 7d fc 68          	cmp    DWORD PTR [rbp-0x4],0x68
    7aa3:	75 05                	jne    7aaa <main+0x6793>
    7aa5:	e9 73 bc ff ff       	jmp    371d <main+0x2406>
    7aaa:	81 7d fc 48 01 00 00 	cmp    DWORD PTR [rbp-0x4],0x148
    7ab1:	75 05                	jne    7ab8 <main+0x67a1>
    7ab3:	e9 b5 0a 00 00       	jmp    856d <main+0x7256>
    7ab8:	48 8d 05 69 75 00 00 	lea    rax,[rip+0x7569]        # f028 <_IO_stdin_used+0x28>
    7abf:	48 89 c7             	mov    rdi,rax
    7ac2:	e8 f9 95 ff ff       	call   10c0 <puts@plt>
    7ac7:	bf 01 00 00 00       	mov    edi,0x1
    7acc:	e8 5f 96 ff ff       	call   1130 <exit@plt>
    7ad1:	be 2a 01 00 00       	mov    esi,0x12a
    7ad6:	48 8d 05 3c 75 00 00 	lea    rax,[rip+0x753c]        # f019 <_IO_stdin_used+0x19>
    7add:	48 89 c7             	mov    rdi,rax
    7ae0:	b8 00 00 00 00       	mov    eax,0x0
    7ae5:	e8 06 96 ff ff       	call   10f0 <printf@plt>
    7aea:	b8 00 00 00 00       	mov    eax,0x0
    7aef:	e8 7c 97 ff ff       	call   1270 <get_input>
    7af4:	89 45 fc             	mov    DWORD PTR [rbp-0x4],eax
    7af7:	81 7d fc e9 01 00 00 	cmp    DWORD PTR [rbp-0x4],0x1e9
    7afe:	75 05                	jne    7b05 <main+0x67ee>
    7b00:	e9 e1 42 00 00       	jmp    bde6 <main+0xaacf>
    7b05:	81 7d fc 68 02 00 00 	cmp    DWORD PTR [rbp-0x4],0x268
    7b0c:	75 05                	jne    7b13 <main+0x67fc>
    7b0e:	e9 09 70 00 00       	jmp    eb1c <main+0xd805>
    7b13:	48 8d 05 0e 75 00 00 	lea    rax,[rip+0x750e]        # f028 <_IO_stdin_used+0x28>
    7b1a:	48 89 c7             	mov    rdi,rax
    7b1d:	e8 9e 95 ff ff       	call   10c0 <puts@plt>
    7b22:	bf 01 00 00 00       	mov    edi,0x1
    7b27:	e8 04 96 ff ff       	call   1130 <exit@plt>
    7b2c:	90                   	nop
    7b2d:	be 2b 01 00 00       	mov    esi,0x12b
    7b32:	48 8d 05 e0 74 00 00 	lea    rax,[rip+0x74e0]        # f019 <_IO_stdin_used+0x19>
    7b39:	48 89 c7             	mov    rdi,rax
    7b3c:	b8 00 00 00 00       	mov    eax,0x0
    7b41:	e8 aa 95 ff ff       	call   10f0 <printf@plt>
    7b46:	b8 00 00 00 00       	mov    eax,0x0
    7b4b:	e8 20 97 ff ff       	call   1270 <get_input>
    7b50:	89 45 fc             	mov    DWORD PTR [rbp-0x4],eax
    7b53:	81 7d fc 54 01 00 00 	cmp    DWORD PTR [rbp-0x4],0x154
    7b5a:	75 05                	jne    7b61 <main+0x684a>
    7b5c:	e9 72 0e 00 00       	jmp    89d3 <main+0x76bc>
    7b61:	48 8d 05 c0 74 00 00 	lea    rax,[rip+0x74c0]        # f028 <_IO_stdin_used+0x28>
    7b68:	48 89 c7             	mov    rdi,rax
    7b6b:	e8 50 95 ff ff       	call   10c0 <puts@plt>
    7b70:	bf 01 00 00 00       	mov    edi,0x1
    7b75:	e8 b6 95 ff ff       	call   1130 <exit@plt>
    7b7a:	be 2c 01 00 00       	mov    esi,0x12c
    7b7f:	48 8d 05 93 74 00 00 	lea    rax,[rip+0x7493]        # f019 <_IO_stdin_used+0x19>
    7b86:	48 89 c7             	mov    rdi,rax
    7b89:	b8 00 00 00 00       	mov    eax,0x0
    7b8e:	e8 5d 95 ff ff       	call   10f0 <printf@plt>
    7b93:	b8 00 00 00 00       	mov    eax,0x0
    7b98:	e8 d3 96 ff ff       	call   1270 <get_input>
    7b9d:	89 45 fc             	mov    DWORD PTR [rbp-0x4],eax
    7ba0:	81 7d fc 3b 02 00 00 	cmp    DWORD PTR [rbp-0x4],0x23b
    7ba7:	75 05                	jne    7bae <main+0x6897>
    7ba9:	e9 ef 5e 00 00       	jmp    da9d <main+0xc786>
    7bae:	81 7d fc 1f 02 00 00 	cmp    DWORD PTR [rbp-0x4],0x21f
    7bb5:	75 05                	jne    7bbc <main+0x68a5>
    7bb7:	e9 b0 54 00 00       	jmp    d06c <main+0xbd55>
    7bbc:	48 8d 05 65 74 00 00 	lea    rax,[rip+0x7465]        # f028 <_IO_stdin_used+0x28>
    7bc3:	48 89 c7             	mov    rdi,rax
    7bc6:	e8 f5 94 ff ff       	call   10c0 <puts@plt>
    7bcb:	bf 01 00 00 00       	mov    edi,0x1
    7bd0:	e8 5b 95 ff ff       	call   1130 <exit@plt>
    7bd5:	90                   	nop
    7bd6:	be 2d 01 00 00       	mov    esi,0x12d
    7bdb:	48 8d 05 37 74 00 00 	lea    rax,[rip+0x7437]        # f019 <_IO_stdin_used+0x19>
    7be2:	48 89 c7             	mov    rdi,rax
    7be5:	b8 00 00 00 00       	mov    eax,0x0
    7bea:	e8 01 95 ff ff       	call   10f0 <printf@plt>
    7bef:	b8 00 00 00 00       	mov    eax,0x0
    7bf4:	e8 77 96 ff ff       	call   1270 <get_input>
    7bf9:	89 45 fc             	mov    DWORD PTR [rbp-0x4],eax
    7bfc:	81 7d fc cb 01 00 00 	cmp    DWORD PTR [rbp-0x4],0x1cb
    7c03:	75 05                	jne    7c0a <main+0x68f3>
    7c05:	e9 78 37 00 00       	jmp    b382 <main+0xa06b>
    7c0a:	48 8d 05 17 74 00 00 	lea    rax,[rip+0x7417]        # f028 <_IO_stdin_used+0x28>
    7c11:	48 89 c7             	mov    rdi,rax
    7c14:	e8 a7 94 ff ff       	call   10c0 <puts@plt>
    7c19:	bf 01 00 00 00       	mov    edi,0x1
    7c1e:	e8 0d 95 ff ff       	call   1130 <exit@plt>
    7c23:	be 2e 01 00 00       	mov    esi,0x12e
    7c28:	48 8d 05 ea 73 00 00 	lea    rax,[rip+0x73ea]        # f019 <_IO_stdin_used+0x19>
    7c2f:	48 89 c7             	mov    rdi,rax
    7c32:	b8 00 00 00 00       	mov    eax,0x0
    7c37:	e8 b4 94 ff ff       	call   10f0 <printf@plt>
    7c3c:	b8 00 00 00 00       	mov    eax,0x0
    7c41:	e8 2a 96 ff ff       	call   1270 <get_input>
    7c46:	89 45 fc             	mov    DWORD PTR [rbp-0x4],eax
    7c49:	81 7d fc 57 02 00 00 	cmp    DWORD PTR [rbp-0x4],0x257
    7c50:	75 05                	jne    7c57 <main+0x6940>
    7c52:	e9 9a 68 00 00       	jmp    e4f1 <main+0xd1da>
    7c57:	81 7d fc 8b 01 00 00 	cmp    DWORD PTR [rbp-0x4],0x18b
    7c5e:	75 05                	jne    7c65 <main+0x694e>
    7c60:	e9 8b 20 00 00       	jmp    9cf0 <main+0x89d9>
    7c65:	81 7d fc a0 01 00 00 	cmp    DWORD PTR [rbp-0x4],0x1a0
    7c6c:	0f 84 31 28 00 00    	je     a4a3 <main+0x918c>
    7c72:	83 7d fc 61          	cmp    DWORD PTR [rbp-0x4],0x61
    7c76:	0f 84 3a b8 ff ff    	je     34b6 <main+0x219f>
    7c7c:	48 8d 05 a5 73 00 00 	lea    rax,[rip+0x73a5]        # f028 <_IO_stdin_used+0x28>
    7c83:	48 89 c7             	mov    rdi,rax
    7c86:	e8 35 94 ff ff       	call   10c0 <puts@plt>
    7c8b:	bf 01 00 00 00       	mov    edi,0x1
    7c90:	e8 9b 94 ff ff       	call   1130 <exit@plt>
    7c95:	be 2f 01 00 00       	mov    esi,0x12f
    7c9a:	48 8d 05 78 73 00 00 	lea    rax,[rip+0x7378]        # f019 <_IO_stdin_used+0x19>
    7ca1:	48 89 c7             	mov    rdi,rax
    7ca4:	b8 00 00 00 00       	mov    eax,0x0
    7ca9:	e8 42 94 ff ff       	call   10f0 <printf@plt>
    7cae:	b8 00 00 00 00       	mov    eax,0x0
    7cb3:	e8 b8 95 ff ff       	call   1270 <get_input>
    7cb8:	89 45 fc             	mov    DWORD PTR [rbp-0x4],eax
    7cbb:	81 7d fc 07 01 00 00 	cmp    DWORD PTR [rbp-0x4],0x107
    7cc2:	75 05                	jne    7cc9 <main+0x69b2>
    7cc4:	e9 e8 f1 ff ff       	jmp    6eb1 <main+0x5b9a>
    7cc9:	81 7d fc d5 01 00 00 	cmp    DWORD PTR [rbp-0x4],0x1d5
    7cd0:	75 05                	jne    7cd7 <main+0x69c0>
    7cd2:	e9 34 3a 00 00       	jmp    b70b <main+0xa3f4>
    7cd7:	48 8d 05 4a 73 00 00 	lea    rax,[rip+0x734a]        # f028 <_IO_stdin_used+0x28>
    7cde:	48 89 c7             	mov    rdi,rax
    7ce1:	e8 da 93 ff ff       	call   10c0 <puts@plt>
    7ce6:	bf 01 00 00 00       	mov    edi,0x1
    7ceb:	e8 40 94 ff ff       	call   1130 <exit@plt>
    7cf0:	be 30 01 00 00       	mov    esi,0x130
    7cf5:	48 8d 05 1d 73 00 00 	lea    rax,[rip+0x731d]        # f019 <_IO_stdin_used+0x19>
    7cfc:	48 89 c7             	mov    rdi,rax
    7cff:	b8 00 00 00 00       	mov    eax,0x0
    7d04:	e8 e7 93 ff ff       	call   10f0 <printf@plt>
    7d09:	b8 00 00 00 00       	mov    eax,0x0
    7d0e:	e8 5d 95 ff ff       	call   1270 <get_input>
    7d13:	89 45 fc             	mov    DWORD PTR [rbp-0x4],eax
    7d16:	81 7d fc 34 01 00 00 	cmp    DWORD PTR [rbp-0x4],0x134
    7d1d:	75 05                	jne    7d24 <main+0x6a0d>
    7d1f:	e9 3f 01 00 00       	jmp    7e63 <main+0x6b4c>
    7d24:	81 7d fc 19 01 00 00 	cmp    DWORD PTR [rbp-0x4],0x119
    7d2b:	75 05                	jne    7d32 <main+0x6a1b>
    7d2d:	e9 ce f7 ff ff       	jmp    7500 <main+0x61e9>
    7d32:	48 8d 05 ef 72 00 00 	lea    rax,[rip+0x72ef]        # f028 <_IO_stdin_used+0x28>
    7d39:	48 89 c7             	mov    rdi,rax
    7d3c:	e8 7f 93 ff ff       	call   10c0 <puts@plt>
    7d41:	bf 01 00 00 00       	mov    edi,0x1
    7d46:	e8 e5 93 ff ff       	call   1130 <exit@plt>
    7d4b:	be 31 01 00 00       	mov    esi,0x131
    7d50:	48 8d 05 c2 72 00 00 	lea    rax,[rip+0x72c2]        # f019 <_IO_stdin_used+0x19>
    7d57:	48 89 c7             	mov    rdi,rax
    7d5a:	b8 00 00 00 00       	mov    eax,0x0
    7d5f:	e8 8c 93 ff ff       	call   10f0 <printf@plt>
    7d64:	b8 00 00 00 00       	mov    eax,0x0
    7d69:	e8 02 95 ff ff       	call   1270 <get_input>
    7d6e:	89 45 fc             	mov    DWORD PTR [rbp-0x4],eax
    7d71:	81 7d fc b7 00 00 00 	cmp    DWORD PTR [rbp-0x4],0xb7
    7d78:	75 05                	jne    7d7f <main+0x6a68>
    7d7a:	e9 6c d5 ff ff       	jmp    52eb <main+0x3fd4>
    7d7f:	83 7d fc 29          	cmp    DWORD PTR [rbp-0x4],0x29
    7d83:	75 05                	jne    7d8a <main+0x6a73>
    7d85:	e9 bf a3 ff ff       	jmp    2149 <main+0xe32>
    7d8a:	81 7d fc b2 01 00 00 	cmp    DWORD PTR [rbp-0x4],0x1b2
    7d91:	0f 84 5a 2d 00 00    	je     aaf1 <main+0x97da>
    7d97:	48 8d 05 8a 72 00 00 	lea    rax,[rip+0x728a]        # f028 <_IO_stdin_used+0x28>
    7d9e:	48 89 c7             	mov    rdi,rax
    7da1:	e8 1a 93 ff ff       	call   10c0 <puts@plt>
    7da6:	bf 01 00 00 00       	mov    edi,0x1
    7dab:	e8 80 93 ff ff       	call   1130 <exit@plt>
    7db0:	be 32 01 00 00       	mov    esi,0x132
    7db5:	48 8d 05 5d 72 00 00 	lea    rax,[rip+0x725d]        # f019 <_IO_stdin_used+0x19>
    7dbc:	48 89 c7             	mov    rdi,rax
    7dbf:	b8 00 00 00 00       	mov    eax,0x0
    7dc4:	e8 27 93 ff ff       	call   10f0 <printf@plt>
    7dc9:	b8 00 00 00 00       	mov    eax,0x0
    7dce:	e8 9d 94 ff ff       	call   1270 <get_input>
    7dd3:	89 45 fc             	mov    DWORD PTR [rbp-0x4],eax
    7dd6:	81 7d fc 67 02 00 00 	cmp    DWORD PTR [rbp-0x4],0x267
    7ddd:	75 05                	jne    7de4 <main+0x6acd>
    7ddf:	e9 dd 6c 00 00       	jmp    eac1 <main+0xd7aa>
    7de4:	81 7d fc 4d 01 00 00 	cmp    DWORD PTR [rbp-0x4],0x14d
    7deb:	75 05                	jne    7df2 <main+0x6adb>
    7ded:	e9 63 09 00 00       	jmp    8755 <main+0x743e>
    7df2:	48 8d 05 2f 72 00 00 	lea    rax,[rip+0x722f]        # f028 <_IO_stdin_used+0x28>
    7df9:	48 89 c7             	mov    rdi,rax
    7dfc:	e8 bf 92 ff ff       	call   10c0 <puts@plt>
    7e01:	bf 01 00 00 00       	mov    edi,0x1
    7e06:	e8 25 93 ff ff       	call   1130 <exit@plt>
    7e0b:	be 33 01 00 00       	mov    esi,0x133
    7e10:	48 8d 05 02 72 00 00 	lea    rax,[rip+0x7202]        # f019 <_IO_stdin_used+0x19>
    7e17:	48 89 c7             	mov    rdi,rax
    7e1a:	b8 00 00 00 00       	mov    eax,0x0
    7e1f:	e8 cc 92 ff ff       	call   10f0 <printf@plt>
    7e24:	b8 00 00 00 00       	mov    eax,0x0
    7e29:	e8 42 94 ff ff       	call   1270 <get_input>
    7e2e:	89 45 fc             	mov    DWORD PTR [rbp-0x4],eax
    7e31:	83 7d fc 27          	cmp    DWORD PTR [rbp-0x4],0x27
    7e35:	75 05                	jne    7e3c <main+0x6b25>
    7e37:	e9 5a a2 ff ff       	jmp    2096 <main+0xd7f>
    7e3c:	81 7d fc ef 01 00 00 	cmp    DWORD PTR [rbp-0x4],0x1ef
    7e43:	75 05                	jne    7e4a <main+0x6b33>
    7e45:	e9 aa 41 00 00       	jmp    bff4 <main+0xacdd>
    7e4a:	48 8d 05 d7 71 00 00 	lea    rax,[rip+0x71d7]        # f028 <_IO_stdin_used+0x28>
    7e51:	48 89 c7             	mov    rdi,rax
    7e54:	e8 67 92 ff ff       	call   10c0 <puts@plt>
    7e59:	bf 01 00 00 00       	mov    edi,0x1
    7e5e:	e8 cd 92 ff ff       	call   1130 <exit@plt>
    7e63:	be 34 01 00 00       	mov    esi,0x134
    7e68:	48 8d 05 aa 71 00 00 	lea    rax,[rip+0x71aa]        # f019 <_IO_stdin_used+0x19>
    7e6f:	48 89 c7             	mov    rdi,rax
    7e72:	b8 00 00 00 00       	mov    eax,0x0
    7e77:	e8 74 92 ff ff       	call   10f0 <printf@plt>
    7e7c:	b8 00 00 00 00       	mov    eax,0x0
    7e81:	e8 ea 93 ff ff       	call   1270 <get_input>
    7e86:	89 45 fc             	mov    DWORD PTR [rbp-0x4],eax
    7e89:	83 7d fc 6b          	cmp    DWORD PTR [rbp-0x4],0x6b
    7e8d:	75 05                	jne    7e94 <main+0x6b7d>
    7e8f:	e9 9f b9 ff ff       	jmp    3833 <main+0x251c>
    7e94:	81 7d fc 30 01 00 00 	cmp    DWORD PTR [rbp-0x4],0x130
    7e9b:	75 05                	jne    7ea2 <main+0x6b8b>
    7e9d:	e9 4e fe ff ff       	jmp    7cf0 <main+0x69d9>
    7ea2:	81 7d fc 3d 01 00 00 	cmp    DWORD PTR [rbp-0x4],0x13d
    7ea9:	75 05                	jne    7eb0 <main+0x6b99>
    7eab:	e9 e8 02 00 00       	jmp    8198 <main+0x6e81>
    7eb0:	83 7d fc 71          	cmp    DWORD PTR [rbp-0x4],0x71
    7eb4:	75 05                	jne    7ebb <main+0x6ba4>
    7eb6:	e9 99 bb ff ff       	jmp    3a54 <main+0x273d>
    7ebb:	48 8d 05 66 71 00 00 	lea    rax,[rip+0x7166]        # f028 <_IO_stdin_used+0x28>
    7ec2:	48 89 c7             	mov    rdi,rax
    7ec5:	e8 f6 91 ff ff       	call   10c0 <puts@plt>
    7eca:	bf 01 00 00 00       	mov    edi,0x1
    7ecf:	e8 5c 92 ff ff       	call   1130 <exit@plt>
    7ed4:	90                   	nop
    7ed5:	be 35 01 00 00       	mov    esi,0x135
    7eda:	48 8d 05 38 71 00 00 	lea    rax,[rip+0x7138]        # f019 <_IO_stdin_used+0x19>
    7ee1:	48 89 c7             	mov    rdi,rax
    7ee4:	b8 00 00 00 00       	mov    eax,0x0
    7ee9:	e8 02 92 ff ff       	call   10f0 <printf@plt>
    7eee:	b8 00 00 00 00       	mov    eax,0x0
    7ef3:	e8 78 93 ff ff       	call   1270 <get_input>
    7ef8:	89 45 fc             	mov    DWORD PTR [rbp-0x4],eax
    7efb:	83 7d fc 2e          	cmp    DWORD PTR [rbp-0x4],0x2e
    7eff:	75 05                	jne    7f06 <main+0x6bef>
    7f01:	e9 dd a3 ff ff       	jmp    22e3 <main+0xfcc>
    7f06:	48 8d 05 1b 71 00 00 	lea    rax,[rip+0x711b]        # f028 <_IO_stdin_used+0x28>
    7f0d:	48 89 c7             	mov    rdi,rax
    7f10:	e8 ab 91 ff ff       	call   10c0 <puts@plt>
    7f15:	bf 01 00 00 00       	mov    edi,0x1
    7f1a:	e8 11 92 ff ff       	call   1130 <exit@plt>
    7f1f:	90                   	nop
    7f20:	be 36 01 00 00       	mov    esi,0x136
    7f25:	48 8d 05 ed 70 00 00 	lea    rax,[rip+0x70ed]        # f019 <_IO_stdin_used+0x19>
    7f2c:	48 89 c7             	mov    rdi,rax
    7f2f:	b8 00 00 00 00       	mov    eax,0x0
    7f34:	e8 b7 91 ff ff       	call   10f0 <printf@plt>
    7f39:	b8 00 00 00 00       	mov    eax,0x0
    7f3e:	e8 2d 93 ff ff       	call   1270 <get_input>
    7f43:	89 45 fc             	mov    DWORD PTR [rbp-0x4],eax
    7f46:	81 7d fc 98 01 00 00 	cmp    DWORD PTR [rbp-0x4],0x198
    7f4d:	75 05                	jne    7f54 <main+0x6c3d>
    7f4f:	e9 65 22 00 00       	jmp    a1b9 <main+0x8ea2>
    7f54:	48 8d 05 cd 70 00 00 	lea    rax,[rip+0x70cd]        # f028 <_IO_stdin_used+0x28>
    7f5b:	48 89 c7             	mov    rdi,rax
    7f5e:	e8 5d 91 ff ff       	call   10c0 <puts@plt>
    7f63:	bf 01 00 00 00       	mov    edi,0x1
    7f68:	e8 c3 91 ff ff       	call   1130 <exit@plt>
    7f6d:	be 37 01 00 00       	mov    esi,0x137
    7f72:	48 8d 05 a0 70 00 00 	lea    rax,[rip+0x70a0]        # f019 <_IO_stdin_used+0x19>
    7f79:	48 89 c7             	mov    rdi,rax
    7f7c:	b8 00 00 00 00       	mov    eax,0x0
    7f81:	e8 6a 91 ff ff       	call   10f0 <printf@plt>
    7f86:	b8 00 00 00 00       	mov    eax,0x0
    7f8b:	e8 e0 92 ff ff       	call   1270 <get_input>
    7f90:	89 45 fc             	mov    DWORD PTR [rbp-0x4],eax
    7f93:	81 7d fc 2a 02 00 00 	cmp    DWORD PTR [rbp-0x4],0x22a
    7f9a:	75 05                	jne    7fa1 <main+0x6c8a>
    7f9c:	e9 91 54 00 00       	jmp    d432 <main+0xc11b>
    7fa1:	81 7d fc 81 00 00 00 	cmp    DWORD PTR [rbp-0x4],0x81
    7fa8:	75 05                	jne    7faf <main+0x6c98>
    7faa:	e9 72 c0 ff ff       	jmp    4021 <main+0x2d0a>
    7faf:	81 7d fc 4c 02 00 00 	cmp    DWORD PTR [rbp-0x4],0x24c
    7fb6:	75 05                	jne    7fbd <main+0x6ca6>
    7fb8:	e9 22 61 00 00       	jmp    e0df <main+0xcdc8>
    7fbd:	48 8d 05 64 70 00 00 	lea    rax,[rip+0x7064]        # f028 <_IO_stdin_used+0x28>
    7fc4:	48 89 c7             	mov    rdi,rax
    7fc7:	e8 f4 90 ff ff       	call   10c0 <puts@plt>
    7fcc:	bf 01 00 00 00       	mov    edi,0x1
    7fd1:	e8 5a 91 ff ff       	call   1130 <exit@plt>
    7fd6:	be 38 01 00 00       	mov    esi,0x138
    7fdb:	48 8d 05 37 70 00 00 	lea    rax,[rip+0x7037]        # f019 <_IO_stdin_used+0x19>
    7fe2:	48 89 c7             	mov    rdi,rax
    7fe5:	b8 00 00 00 00       	mov    eax,0x0
    7fea:	e8 01 91 ff ff       	call   10f0 <printf@plt>
    7fef:	b8 00 00 00 00       	mov    eax,0x0
    7ff4:	e8 77 92 ff ff       	call   1270 <get_input>
    7ff9:	89 45 fc             	mov    DWORD PTR [rbp-0x4],eax
    7ffc:	81 7d fc 8b 01 00 00 	cmp    DWORD PTR [rbp-0x4],0x18b
    8003:	75 05                	jne    800a <main+0x6cf3>
    8005:	e9 e6 1c 00 00       	jmp    9cf0 <main+0x89d9>
    800a:	83 7d fc 48          	cmp    DWORD PTR [rbp-0x4],0x48
    800e:	75 05                	jne    8015 <main+0x6cfe>
    8010:	e9 90 ab ff ff       	jmp    2ba5 <main+0x188e>
    8015:	48 8d 05 0c 70 00 00 	lea    rax,[rip+0x700c]        # f028 <_IO_stdin_used+0x28>
    801c:	48 89 c7             	mov    rdi,rax
    801f:	e8 9c 90 ff ff       	call   10c0 <puts@plt>
    8024:	bf 01 00 00 00       	mov    edi,0x1
    8029:	e8 02 91 ff ff       	call   1130 <exit@plt>
    802e:	be 39 01 00 00       	mov    esi,0x139
    8033:	48 8d 05 df 6f 00 00 	lea    rax,[rip+0x6fdf]        # f019 <_IO_stdin_used+0x19>
    803a:	48 89 c7             	mov    rdi,rax
    803d:	b8 00 00 00 00       	mov    eax,0x0
    8042:	e8 a9 90 ff ff       	call   10f0 <printf@plt>
    8047:	b8 00 00 00 00       	mov    eax,0x0
    804c:	e8 1f 92 ff ff       	call   1270 <get_input>
    8051:	89 45 fc             	mov    DWORD PTR [rbp-0x4],eax
    8054:	81 7d fc b1 01 00 00 	cmp    DWORD PTR [rbp-0x4],0x1b1
    805b:	75 05                	jne    8062 <main+0x6d4b>
    805d:	e9 26 2a 00 00       	jmp    aa88 <main+0x9771>
    8062:	81 7d fc d9 00 00 00 	cmp    DWORD PTR [rbp-0x4],0xd9
    8069:	75 05                	jne    8070 <main+0x6d59>
    806b:	e9 41 de ff ff       	jmp    5eb1 <main+0x4b9a>
    8070:	48 8d 05 b1 6f 00 00 	lea    rax,[rip+0x6fb1]        # f028 <_IO_stdin_used+0x28>
    8077:	48 89 c7             	mov    rdi,rax
    807a:	e8 41 90 ff ff       	call   10c0 <puts@plt>
    807f:	bf 01 00 00 00       	mov    edi,0x1
    8084:	e8 a7 90 ff ff       	call   1130 <exit@plt>
    8089:	be 3a 01 00 00       	mov    esi,0x13a
    808e:	48 8d 05 84 6f 00 00 	lea    rax,[rip+0x6f84]        # f019 <_IO_stdin_used+0x19>
    8095:	48 89 c7             	mov    rdi,rax
    8098:	b8 00 00 00 00       	mov    eax,0x0
    809d:	e8 4e 90 ff ff       	call   10f0 <printf@plt>
    80a2:	b8 00 00 00 00       	mov    eax,0x0
    80a7:	e8 c4 91 ff ff       	call   1270 <get_input>
    80ac:	89 45 fc             	mov    DWORD PTR [rbp-0x4],eax
    80af:	83 7d fc 77          	cmp    DWORD PTR [rbp-0x4],0x77
    80b3:	75 05                	jne    80ba <main+0x6da3>
    80b5:	e9 c2 bb ff ff       	jmp    3c7c <main+0x2965>
    80ba:	81 7d fc 5d 02 00 00 	cmp    DWORD PTR [rbp-0x4],0x25d
    80c1:	75 05                	jne    80c8 <main+0x6db1>
    80c3:	e9 48 66 00 00       	jmp    e710 <main+0xd3f9>
    80c8:	81 7d fc e5 01 00 00 	cmp    DWORD PTR [rbp-0x4],0x1e5
    80cf:	75 05                	jne    80d6 <main+0x6dbf>
    80d1:	e9 b5 3b 00 00       	jmp    bc8b <main+0xa974>
    80d6:	48 8d 05 4b 6f 00 00 	lea    rax,[rip+0x6f4b]        # f028 <_IO_stdin_used+0x28>
    80dd:	48 89 c7             	mov    rdi,rax
    80e0:	e8 db 8f ff ff       	call   10c0 <puts@plt>
    80e5:	bf 01 00 00 00       	mov    edi,0x1
    80ea:	e8 41 90 ff ff       	call   1130 <exit@plt>
    80ef:	90                   	nop
    80f0:	be 3b 01 00 00       	mov    esi,0x13b
    80f5:	48 8d 05 1d 6f 00 00 	lea    rax,[rip+0x6f1d]        # f019 <_IO_stdin_used+0x19>
    80fc:	48 89 c7             	mov    rdi,rax
    80ff:	b8 00 00 00 00       	mov    eax,0x0
    8104:	e8 e7 8f ff ff       	call   10f0 <printf@plt>
    8109:	b8 00 00 00 00       	mov    eax,0x0
    810e:	e8 5d 91 ff ff       	call   1270 <get_input>
    8113:	89 45 fc             	mov    DWORD PTR [rbp-0x4],eax
    8116:	81 7d fc 25 01 00 00 	cmp    DWORD PTR [rbp-0x4],0x125
    811d:	75 05                	jne    8124 <main+0x6e0d>
    811f:	e9 ea f7 ff ff       	jmp    790e <main+0x65f7>
    8124:	48 8d 05 fd 6e 00 00 	lea    rax,[rip+0x6efd]        # f028 <_IO_stdin_used+0x28>
    812b:	48 89 c7             	mov    rdi,rax
    812e:	e8 8d 8f ff ff       	call   10c0 <puts@plt>
    8133:	bf 01 00 00 00       	mov    edi,0x1
    8138:	e8 f3 8f ff ff       	call   1130 <exit@plt>
    813d:	be 3c 01 00 00       	mov    esi,0x13c
    8142:	48 8d 05 d0 6e 00 00 	lea    rax,[rip+0x6ed0]        # f019 <_IO_stdin_used+0x19>
    8149:	48 89 c7             	mov    rdi,rax
    814c:	b8 00 00 00 00       	mov    eax,0x0
    8151:	e8 9a 8f ff ff       	call   10f0 <printf@plt>
    8156:	b8 00 00 00 00       	mov    eax,0x0
    815b:	e8 10 91 ff ff       	call   1270 <get_input>
    8160:	89 45 fc             	mov    DWORD PTR [rbp-0x4],eax
    8163:	81 7d fc b7 01 00 00 	cmp    DWORD PTR [rbp-0x4],0x1b7
    816a:	75 05                	jne    8171 <main+0x6e5a>
    816c:	e9 0f 2b 00 00       	jmp    ac80 <main+0x9969>
    8171:	81 7d fc 25 02 00 00 	cmp    DWORD PTR [rbp-0x4],0x225
    8178:	75 05                	jne    817f <main+0x6e68>
    817a:	e9 0a 51 00 00       	jmp    d289 <main+0xbf72>
    817f:	48 8d 05 a2 6e 00 00 	lea    rax,[rip+0x6ea2]        # f028 <_IO_stdin_used+0x28>
    8186:	48 89 c7             	mov    rdi,rax
    8189:	e8 32 8f ff ff       	call   10c0 <puts@plt>
    818e:	bf 01 00 00 00       	mov    edi,0x1
    8193:	e8 98 8f ff ff       	call   1130 <exit@plt>
    8198:	be 3d 01 00 00       	mov    esi,0x13d
    819d:	48 8d 05 75 6e 00 00 	lea    rax,[rip+0x6e75]        # f019 <_IO_stdin_used+0x19>
    81a4:	48 89 c7             	mov    rdi,rax
    81a7:	b8 00 00 00 00       	mov    eax,0x0
    81ac:	e8 3f 8f ff ff       	call   10f0 <printf@plt>
    81b1:	b8 00 00 00 00       	mov    eax,0x0
    81b6:	e8 b5 90 ff ff       	call   1270 <get_input>
    81bb:	89 45 fc             	mov    DWORD PTR [rbp-0x4],eax
    81be:	81 7d fc 34 01 00 00 	cmp    DWORD PTR [rbp-0x4],0x134
    81c5:	75 05                	jne    81cc <main+0x6eb5>
    81c7:	e9 97 fc ff ff       	jmp    7e63 <main+0x6b4c>
    81cc:	81 7d fc e4 00 00 00 	cmp    DWORD PTR [rbp-0x4],0xe4
    81d3:	75 05                	jne    81da <main+0x6ec3>
    81d5:	e9 b6 e0 ff ff       	jmp    6290 <main+0x4f79>
    81da:	48 8d 05 47 6e 00 00 	lea    rax,[rip+0x6e47]        # f028 <_IO_stdin_used+0x28>
    81e1:	48 89 c7             	mov    rdi,rax
    81e4:	e8 d7 8e ff ff       	call   10c0 <puts@plt>
    81e9:	bf 01 00 00 00       	mov    edi,0x1
    81ee:	e8 3d 8f ff ff       	call   1130 <exit@plt>
    81f3:	be 3e 01 00 00       	mov    esi,0x13e
    81f8:	48 8d 05 1a 6e 00 00 	lea    rax,[rip+0x6e1a]        # f019 <_IO_stdin_used+0x19>
    81ff:	48 89 c7             	mov    rdi,rax
    8202:	b8 00 00 00 00       	mov    eax,0x0
    8207:	e8 e4 8e ff ff       	call   10f0 <printf@plt>
    820c:	b8 00 00 00 00       	mov    eax,0x0
    8211:	e8 5a 90 ff ff       	call   1270 <get_input>
    8216:	89 45 fc             	mov    DWORD PTR [rbp-0x4],eax
    8219:	83 7d fc 72          	cmp    DWORD PTR [rbp-0x4],0x72
    821d:	75 05                	jne    8224 <main+0x6f0d>
    821f:	e9 88 b8 ff ff       	jmp    3aac <main+0x2795>
    8224:	83 7d fc 5d          	cmp    DWORD PTR [rbp-0x4],0x5d
    8228:	75 05                	jne    822f <main+0x6f18>
    822a:	e9 0c b1 ff ff       	jmp    333b <main+0x2024>
    822f:	48 8d 05 f2 6d 00 00 	lea    rax,[rip+0x6df2]        # f028 <_IO_stdin_used+0x28>
    8236:	48 89 c7             	mov    rdi,rax
    8239:	e8 82 8e ff ff       	call   10c0 <puts@plt>
    823e:	bf 01 00 00 00       	mov    edi,0x1
    8243:	e8 e8 8e ff ff       	call   1130 <exit@plt>
    8248:	be 3f 01 00 00       	mov    esi,0x13f
    824d:	48 8d 05 c5 6d 00 00 	lea    rax,[rip+0x6dc5]        # f019 <_IO_stdin_used+0x19>
    8254:	48 89 c7             	mov    rdi,rax
    8257:	b8 00 00 00 00       	mov    eax,0x0
    825c:	e8 8f 8e ff ff       	call   10f0 <printf@plt>
    8261:	b8 00 00 00 00       	mov    eax,0x0
    8266:	e8 05 90 ff ff       	call   1270 <get_input>
    826b:	89 45 fc             	mov    DWORD PTR [rbp-0x4],eax
    826e:	81 7d fc b6 00 00 00 	cmp    DWORD PTR [rbp-0x4],0xb6
    8275:	0f 84 22 d0 ff ff    	je     529d <main+0x3f86>
    827b:	81 7d fc 1c 01 00 00 	cmp    DWORD PTR [rbp-0x4],0x11c
    8282:	75 05                	jne    8289 <main+0x6f72>
    8284:	e9 83 f3 ff ff       	jmp    760c <main+0x62f5>
    8289:	48 8d 05 98 6d 00 00 	lea    rax,[rip+0x6d98]        # f028 <_IO_stdin_used+0x28>
    8290:	48 89 c7             	mov    rdi,rax
    8293:	e8 28 8e ff ff       	call   10c0 <puts@plt>
    8298:	bf 01 00 00 00       	mov    edi,0x1
    829d:	e8 8e 8e ff ff       	call   1130 <exit@plt>
    82a2:	be 40 01 00 00       	mov    esi,0x140
    82a7:	48 8d 05 6b 6d 00 00 	lea    rax,[rip+0x6d6b]        # f019 <_IO_stdin_used+0x19>
    82ae:	48 89 c7             	mov    rdi,rax
    82b1:	b8 00 00 00 00       	mov    eax,0x0
    82b6:	e8 35 8e ff ff       	call   10f0 <printf@plt>
    82bb:	b8 00 00 00 00       	mov    eax,0x0
    82c0:	e8 ab 8f ff ff       	call   1270 <get_input>
    82c5:	89 45 fc             	mov    DWORD PTR [rbp-0x4],eax
    82c8:	81 7d fc dc 01 00 00 	cmp    DWORD PTR [rbp-0x4],0x1dc
    82cf:	75 05                	jne    82d6 <main+0x6fbf>
    82d1:	e9 a1 36 00 00       	jmp    b977 <main+0xa660>
    82d6:	81 7d fc 1d 02 00 00 	cmp    DWORD PTR [rbp-0x4],0x21d
    82dd:	75 05                	jne    82e4 <main+0x6fcd>
    82df:	e9 d2 4c 00 00       	jmp    cfb6 <main+0xbc9f>
    82e4:	83 7d fc 6e          	cmp    DWORD PTR [rbp-0x4],0x6e
    82e8:	75 05                	jne    82ef <main+0x6fd8>
    82ea:	e9 5b b6 ff ff       	jmp    394a <main+0x2633>
    82ef:	48 8d 05 32 6d 00 00 	lea    rax,[rip+0x6d32]        # f028 <_IO_stdin_used+0x28>
    82f6:	48 89 c7             	mov    rdi,rax
    82f9:	e8 c2 8d ff ff       	call   10c0 <puts@plt>
    82fe:	bf 01 00 00 00       	mov    edi,0x1
    8303:	e8 28 8e ff ff       	call   1130 <exit@plt>
    8308:	be 41 01 00 00       	mov    esi,0x141
    830d:	48 8d 05 05 6d 00 00 	lea    rax,[rip+0x6d05]        # f019 <_IO_stdin_used+0x19>
    8314:	48 89 c7             	mov    rdi,rax
    8317:	b8 00 00 00 00       	mov    eax,0x0
    831c:	e8 cf 8d ff ff       	call   10f0 <printf@plt>
    8321:	b8 00 00 00 00       	mov    eax,0x0
    8326:	e8 45 8f ff ff       	call   1270 <get_input>
    832b:	89 45 fc             	mov    DWORD PTR [rbp-0x4],eax
    832e:	83 7d fc 55          	cmp    DWORD PTR [rbp-0x4],0x55
    8332:	75 05                	jne    8339 <main+0x7022>
    8334:	e9 2d ad ff ff       	jmp    3066 <main+0x1d4f>
    8339:	81 7d fc ae 01 00 00 	cmp    DWORD PTR [rbp-0x4],0x1ae
    8340:	0f 84 58 26 00 00    	je     a99e <main+0x9687>
    8346:	81 7d fc 98 00 00 00 	cmp    DWORD PTR [rbp-0x4],0x98
    834d:	75 05                	jne    8354 <main+0x703d>
    834f:	e9 cd c4 ff ff       	jmp    4821 <main+0x350a>
    8354:	48 8d 05 cd 6c 00 00 	lea    rax,[rip+0x6ccd]        # f028 <_IO_stdin_used+0x28>
    835b:	48 89 c7             	mov    rdi,rax
    835e:	e8 5d 8d ff ff       	call   10c0 <puts@plt>
    8363:	bf 01 00 00 00       	mov    edi,0x1
    8368:	e8 c3 8d ff ff       	call   1130 <exit@plt>
    836d:	90                   	nop
    836e:	be 42 01 00 00       	mov    esi,0x142
    8373:	48 8d 05 9f 6c 00 00 	lea    rax,[rip+0x6c9f]        # f019 <_IO_stdin_used+0x19>
    837a:	48 89 c7             	mov    rdi,rax
    837d:	b8 00 00 00 00       	mov    eax,0x0
    8382:	e8 69 8d ff ff       	call   10f0 <printf@plt>
    8387:	b8 00 00 00 00       	mov    eax,0x0
    838c:	e8 df 8e ff ff       	call   1270 <get_input>
    8391:	89 45 fc             	mov    DWORD PTR [rbp-0x4],eax
    8394:	83 7d fc 1c          	cmp    DWORD PTR [rbp-0x4],0x1c
    8398:	75 05                	jne    839f <main+0x7088>
    839a:	e9 24 99 ff ff       	jmp    1cc3 <main+0x9ac>
    839f:	48 8d 05 82 6c 00 00 	lea    rax,[rip+0x6c82]        # f028 <_IO_stdin_used+0x28>
    83a6:	48 89 c7             	mov    rdi,rax
    83a9:	e8 12 8d ff ff       	call   10c0 <puts@plt>
    83ae:	bf 01 00 00 00       	mov    edi,0x1
    83b3:	e8 78 8d ff ff       	call   1130 <exit@plt>
    83b8:	be 43 01 00 00       	mov    esi,0x143
    83bd:	48 8d 05 55 6c 00 00 	lea    rax,[rip+0x6c55]        # f019 <_IO_stdin_used+0x19>
    83c4:	48 89 c7             	mov    rdi,rax
    83c7:	b8 00 00 00 00       	mov    eax,0x0
    83cc:	e8 1f 8d ff ff       	call   10f0 <printf@plt>
    83d1:	b8 00 00 00 00       	mov    eax,0x0
    83d6:	e8 95 8e ff ff       	call   1270 <get_input>
    83db:	89 45 fc             	mov    DWORD PTR [rbp-0x4],eax
    83de:	81 7d fc 5b 01 00 00 	cmp    DWORD PTR [rbp-0x4],0x15b
    83e5:	0f 84 4d 08 00 00    	je     8c38 <main+0x7921>
    83eb:	81 7d fc 1a 01 00 00 	cmp    DWORD PTR [rbp-0x4],0x11a
    83f2:	75 05                	jne    83f9 <main+0x70e2>
    83f4:	e9 6a f1 ff ff       	jmp    7563 <main+0x624c>
    83f9:	48 8d 05 28 6c 00 00 	lea    rax,[rip+0x6c28]        # f028 <_IO_stdin_used+0x28>
    8400:	48 89 c7             	mov    rdi,rax
    8403:	e8 b8 8c ff ff       	call   10c0 <puts@plt>
    8408:	bf 01 00 00 00       	mov    edi,0x1
    840d:	e8 1e 8d ff ff       	call   1130 <exit@plt>
    8412:	be 44 01 00 00       	mov    esi,0x144
    8417:	48 8d 05 fb 6b 00 00 	lea    rax,[rip+0x6bfb]        # f019 <_IO_stdin_used+0x19>
    841e:	48 89 c7             	mov    rdi,rax
    8421:	b8 00 00 00 00       	mov    eax,0x0
    8426:	e8 c5 8c ff ff       	call   10f0 <printf@plt>
    842b:	b8 00 00 00 00       	mov    eax,0x0
    8430:	e8 3b 8e ff ff       	call   1270 <get_input>
    8435:	89 45 fc             	mov    DWORD PTR [rbp-0x4],eax
    8438:	81 7d fc f1 00 00 00 	cmp    DWORD PTR [rbp-0x4],0xf1
    843f:	0f 84 c6 e2 ff ff    	je     670b <main+0x53f4>
    8445:	81 7d fc 2b 02 00 00 	cmp    DWORD PTR [rbp-0x4],0x22b
    844c:	75 05                	jne    8453 <main+0x713c>
    844e:	e9 52 50 00 00       	jmp    d4a5 <main+0xc18e>
    8453:	81 7d fc e6 01 00 00 	cmp    DWORD PTR [rbp-0x4],0x1e6
    845a:	0f 84 86 38 00 00    	je     bce6 <main+0xa9cf>
    8460:	48 8d 05 c1 6b 00 00 	lea    rax,[rip+0x6bc1]        # f028 <_IO_stdin_used+0x28>
    8467:	48 89 c7             	mov    rdi,rax
    846a:	e8 51 8c ff ff       	call   10c0 <puts@plt>
    846f:	bf 01 00 00 00       	mov    edi,0x1
    8474:	e8 b7 8c ff ff       	call   1130 <exit@plt>
    8479:	90                   	nop
    847a:	be 45 01 00 00       	mov    esi,0x145
    847f:	48 8d 05 93 6b 00 00 	lea    rax,[rip+0x6b93]        # f019 <_IO_stdin_used+0x19>
    8486:	48 89 c7             	mov    rdi,rax
    8489:	b8 00 00 00 00       	mov    eax,0x0
    848e:	e8 5d 8c ff ff       	call   10f0 <printf@plt>
    8493:	b8 00 00 00 00       	mov    eax,0x0
    8498:	e8 d3 8d ff ff       	call   1270 <get_input>
    849d:	89 45 fc             	mov    DWORD PTR [rbp-0x4],eax
    84a0:	81 7d fc 6c 01 00 00 	cmp    DWORD PTR [rbp-0x4],0x16c
    84a7:	75 05                	jne    84ae <main+0x7197>
    84a9:	e9 3a 0d 00 00       	jmp    91e8 <main+0x7ed1>
    84ae:	48 8d 05 73 6b 00 00 	lea    rax,[rip+0x6b73]        # f028 <_IO_stdin_used+0x28>
    84b5:	48 89 c7             	mov    rdi,rax
    84b8:	e8 03 8c ff ff       	call   10c0 <puts@plt>
    84bd:	bf 01 00 00 00       	mov    edi,0x1
    84c2:	e8 69 8c ff ff       	call   1130 <exit@plt>
    84c7:	90                   	nop
    84c8:	be 46 01 00 00       	mov    esi,0x146
    84cd:	48 8d 05 45 6b 00 00 	lea    rax,[rip+0x6b45]        # f019 <_IO_stdin_used+0x19>
    84d4:	48 89 c7             	mov    rdi,rax
    84d7:	b8 00 00 00 00       	mov    eax,0x0
    84dc:	e8 0f 8c ff ff       	call   10f0 <printf@plt>
    84e1:	b8 00 00 00 00       	mov    eax,0x0
    84e6:	e8 85 8d ff ff       	call   1270 <get_input>
    84eb:	89 45 fc             	mov    DWORD PTR [rbp-0x4],eax
    84ee:	83 7d fc 2f          	cmp    DWORD PTR [rbp-0x4],0x2f
    84f2:	75 05                	jne    84f9 <main+0x71e2>
    84f4:	e9 44 9e ff ff       	jmp    233d <main+0x1026>
    84f9:	48 8d 05 28 6b 00 00 	lea    rax,[rip+0x6b28]        # f028 <_IO_stdin_used+0x28>
    8500:	48 89 c7             	mov    rdi,rax
    8503:	e8 b8 8b ff ff       	call   10c0 <puts@plt>
    8508:	bf 01 00 00 00       	mov    edi,0x1
    850d:	e8 1e 8c ff ff       	call   1130 <exit@plt>
    8512:	be 47 01 00 00       	mov    esi,0x147
    8517:	48 8d 05 fb 6a 00 00 	lea    rax,[rip+0x6afb]        # f019 <_IO_stdin_used+0x19>
    851e:	48 89 c7             	mov    rdi,rax
    8521:	b8 00 00 00 00       	mov    eax,0x0
    8526:	e8 c5 8b ff ff       	call   10f0 <printf@plt>
    852b:	b8 00 00 00 00       	mov    eax,0x0
    8530:	e8 3b 8d ff ff       	call   1270 <get_input>
    8535:	89 45 fc             	mov    DWORD PTR [rbp-0x4],eax
    8538:	81 7d fc e6 00 00 00 	cmp    DWORD PTR [rbp-0x4],0xe6
    853f:	75 05                	jne    8546 <main+0x722f>
    8541:	e9 f3 dd ff ff       	jmp    6339 <main+0x5022>
    8546:	81 7d fc d8 01 00 00 	cmp    DWORD PTR [rbp-0x4],0x1d8
    854d:	75 05                	jne    8554 <main+0x723d>
    854f:	e9 d2 32 00 00       	jmp    b826 <main+0xa50f>
    8554:	48 8d 05 cd 6a 00 00 	lea    rax,[rip+0x6acd]        # f028 <_IO_stdin_used+0x28>
    855b:	48 89 c7             	mov    rdi,rax
    855e:	e8 5d 8b ff ff       	call   10c0 <puts@plt>
    8563:	bf 01 00 00 00       	mov    edi,0x1
    8568:	e8 c3 8b ff ff       	call   1130 <exit@plt>
    856d:	be 48 01 00 00       	mov    esi,0x148
    8572:	48 8d 05 a0 6a 00 00 	lea    rax,[rip+0x6aa0]        # f019 <_IO_stdin_used+0x19>
    8579:	48 89 c7             	mov    rdi,rax
    857c:	b8 00 00 00 00       	mov    eax,0x0
    8581:	e8 6a 8b ff ff       	call   10f0 <printf@plt>
    8586:	b8 00 00 00 00       	mov    eax,0x0
    858b:	e8 e0 8c ff ff       	call   1270 <get_input>
    8590:	89 45 fc             	mov    DWORD PTR [rbp-0x4],eax
    8593:	81 7d fc 29 01 00 00 	cmp    DWORD PTR [rbp-0x4],0x129
    859a:	75 05                	jne    85a1 <main+0x728a>
    859c:	e9 d8 f4 ff ff       	jmp    7a79 <main+0x6762>
    85a1:	81 7d fc c3 00 00 00 	cmp    DWORD PTR [rbp-0x4],0xc3
    85a8:	0f 84 8f d1 ff ff    	je     573d <main+0x4426>
    85ae:	48 8d 05 73 6a 00 00 	lea    rax,[rip+0x6a73]        # f028 <_IO_stdin_used+0x28>
    85b5:	48 89 c7             	mov    rdi,rax
    85b8:	e8 03 8b ff ff       	call   10c0 <puts@plt>
    85bd:	bf 01 00 00 00       	mov    edi,0x1
    85c2:	e8 69 8b ff ff       	call   1130 <exit@plt>
    85c7:	90                   	nop
    85c8:	be 49 01 00 00       	mov    esi,0x149
    85cd:	48 8d 05 45 6a 00 00 	lea    rax,[rip+0x6a45]        # f019 <_IO_stdin_used+0x19>
    85d4:	48 89 c7             	mov    rdi,rax
    85d7:	b8 00 00 00 00       	mov    eax,0x0
    85dc:	e8 0f 8b ff ff       	call   10f0 <printf@plt>
    85e1:	b8 00 00 00 00       	mov    eax,0x0
    85e6:	e8 85 8c ff ff       	call   1270 <get_input>
    85eb:	89 45 fc             	mov    DWORD PTR [rbp-0x4],eax
    85ee:	81 7d fc 56 01 00 00 	cmp    DWORD PTR [rbp-0x4],0x156
    85f5:	75 05                	jne    85fc <main+0x72e5>
    85f7:	e9 8c 04 00 00       	jmp    8a88 <main+0x7771>
    85fc:	81 7d fc 70 02 00 00 	cmp    DWORD PTR [rbp-0x4],0x270
    8603:	0f 84 db 67 00 00    	je     ede4 <main+0xdacd>
    8609:	48 8d 05 18 6a 00 00 	lea    rax,[rip+0x6a18]        # f028 <_IO_stdin_used+0x28>
    8610:	48 89 c7             	mov    rdi,rax
    8613:	e8 a8 8a ff ff       	call   10c0 <puts@plt>
    8618:	bf 01 00 00 00       	mov    edi,0x1
    861d:	e8 0e 8b ff ff       	call   1130 <exit@plt>
    8622:	be 4a 01 00 00       	mov    esi,0x14a
    8627:	48 8d 05 eb 69 00 00 	lea    rax,[rip+0x69eb]        # f019 <_IO_stdin_used+0x19>
    862e:	48 89 c7             	mov    rdi,rax
    8631:	b8 00 00 00 00       	mov    eax,0x0
    8636:	e8 b5 8a ff ff       	call   10f0 <printf@plt>
    863b:	b8 00 00 00 00       	mov    eax,0x0
    8640:	e8 2b 8c ff ff       	call   1270 <get_input>
    8645:	89 45 fc             	mov    DWORD PTR [rbp-0x4],eax
    8648:	81 7d fc f9 00 00 00 	cmp    DWORD PTR [rbp-0x4],0xf9
    864f:	75 05                	jne    8656 <main+0x733f>
    8651:	e9 7f e3 ff ff       	jmp    69d5 <main+0x56be>
    8656:	81 7d fc 05 01 00 00 	cmp    DWORD PTR [rbp-0x4],0x105
    865d:	0f 84 b2 e7 ff ff    	je     6e15 <main+0x5afe>
    8663:	81 7d fc c7 00 00 00 	cmp    DWORD PTR [rbp-0x4],0xc7
    866a:	75 05                	jne    8671 <main+0x735a>
    866c:	e9 11 d2 ff ff       	jmp    5882 <main+0x456b>
    8671:	81 7d fc e0 00 00 00 	cmp    DWORD PTR [rbp-0x4],0xe0
    8678:	75 05                	jne    867f <main+0x7368>
    867a:	e9 c2 da ff ff       	jmp    6141 <main+0x4e2a>
    867f:	48 8d 05 a2 69 00 00 	lea    rax,[rip+0x69a2]        # f028 <_IO_stdin_used+0x28>
    8686:	48 89 c7             	mov    rdi,rax
    8689:	e8 32 8a ff ff       	call   10c0 <puts@plt>
    868e:	bf 01 00 00 00       	mov    edi,0x1
    8693:	e8 98 8a ff ff       	call   1130 <exit@plt>
    8698:	be 4b 01 00 00       	mov    esi,0x14b
    869d:	48 8d 05 75 69 00 00 	lea    rax,[rip+0x6975]        # f019 <_IO_stdin_used+0x19>
    86a4:	48 89 c7             	mov    rdi,rax
    86a7:	b8 00 00 00 00       	mov    eax,0x0
    86ac:	e8 3f 8a ff ff       	call   10f0 <printf@plt>
    86b1:	b8 00 00 00 00       	mov    eax,0x0
    86b6:	e8 b5 8b ff ff       	call   1270 <get_input>
    86bb:	89 45 fc             	mov    DWORD PTR [rbp-0x4],eax
    86be:	83 7d fc 0e          	cmp    DWORD PTR [rbp-0x4],0xe
    86c2:	75 05                	jne    86c9 <main+0x73b2>
    86c4:	e9 0b 91 ff ff       	jmp    17d4 <main+0x4bd>
    86c9:	83 7d fc 30          	cmp    DWORD PTR [rbp-0x4],0x30
    86cd:	0f 84 c4 9c ff ff    	je     2397 <main+0x1080>
    86d3:	81 7d fc 5c 01 00 00 	cmp    DWORD PTR [rbp-0x4],0x15c
    86da:	75 05                	jne    86e1 <main+0x73ca>
    86dc:	e9 a5 05 00 00       	jmp    8c86 <main+0x796f>
    86e1:	48 8d 05 40 69 00 00 	lea    rax,[rip+0x6940]        # f028 <_IO_stdin_used+0x28>
    86e8:	48 89 c7             	mov    rdi,rax
    86eb:	e8 d0 89 ff ff       	call   10c0 <puts@plt>
    86f0:	bf 01 00 00 00       	mov    edi,0x1
    86f5:	e8 36 8a ff ff       	call   1130 <exit@plt>
    86fa:	be 4c 01 00 00       	mov    esi,0x14c
    86ff:	48 8d 05 13 69 00 00 	lea    rax,[rip+0x6913]        # f019 <_IO_stdin_used+0x19>
    8706:	48 89 c7             	mov    rdi,rax
    8709:	b8 00 00 00 00       	mov    eax,0x0
    870e:	e8 dd 89 ff ff       	call   10f0 <printf@plt>
    8713:	b8 00 00 00 00       	mov    eax,0x0
    8718:	e8 53 8b ff ff       	call   1270 <get_input>
    871d:	89 45 fc             	mov    DWORD PTR [rbp-0x4],eax
    8720:	81 7d fc 17 01 00 00 	cmp    DWORD PTR [rbp-0x4],0x117
    8727:	75 05                	jne    872e <main+0x7417>
    8729:	e9 1c ed ff ff       	jmp    744a <main+0x6133>
    872e:	81 7d fc 37 02 00 00 	cmp    DWORD PTR [rbp-0x4],0x237
    8735:	75 05                	jne    873c <main+0x7425>
    8737:	e9 f0 51 00 00       	jmp    d92c <main+0xc615>
    873c:	48 8d 05 e5 68 00 00 	lea    rax,[rip+0x68e5]        # f028 <_IO_stdin_used+0x28>
    8743:	48 89 c7             	mov    rdi,rax
    8746:	e8 75 89 ff ff       	call   10c0 <puts@plt>
    874b:	bf 01 00 00 00       	mov    edi,0x1
    8750:	e8 db 89 ff ff       	call   1130 <exit@plt>
    8755:	be 4d 01 00 00       	mov    esi,0x14d
    875a:	48 8d 05 b8 68 00 00 	lea    rax,[rip+0x68b8]        # f019 <_IO_stdin_used+0x19>
    8761:	48 89 c7             	mov    rdi,rax
    8764:	b8 00 00 00 00       	mov    eax,0x0
    8769:	e8 82 89 ff ff       	call   10f0 <printf@plt>
    876e:	b8 00 00 00 00       	mov    eax,0x0
    8773:	e8 f8 8a ff ff       	call   1270 <get_input>
    8778:	89 45 fc             	mov    DWORD PTR [rbp-0x4],eax
    877b:	81 7d fc 36 02 00 00 	cmp    DWORD PTR [rbp-0x4],0x236
    8782:	75 05                	jne    8789 <main+0x7472>
    8784:	e9 3a 51 00 00       	jmp    d8c3 <main+0xc5ac>
    8789:	81 7d fc 32 01 00 00 	cmp    DWORD PTR [rbp-0x4],0x132
    8790:	75 05                	jne    8797 <main+0x7480>
    8792:	e9 19 f6 ff ff       	jmp    7db0 <main+0x6a99>
    8797:	83 7d fc 3c          	cmp    DWORD PTR [rbp-0x4],0x3c
    879b:	0f 84 d8 9f ff ff    	je     2779 <main+0x1462>
    87a1:	48 8d 05 80 68 00 00 	lea    rax,[rip+0x6880]        # f028 <_IO_stdin_used+0x28>
    87a8:	48 89 c7             	mov    rdi,rax
    87ab:	e8 10 89 ff ff       	call   10c0 <puts@plt>
    87b0:	bf 01 00 00 00       	mov    edi,0x1
    87b5:	e8 76 89 ff ff       	call   1130 <exit@plt>
    87ba:	be 4e 01 00 00       	mov    esi,0x14e
    87bf:	48 8d 05 53 68 00 00 	lea    rax,[rip+0x6853]        # f019 <_IO_stdin_used+0x19>
    87c6:	48 89 c7             	mov    rdi,rax
    87c9:	b8 00 00 00 00       	mov    eax,0x0
    87ce:	e8 1d 89 ff ff       	call   10f0 <printf@plt>
    87d3:	b8 00 00 00 00       	mov    eax,0x0
    87d8:	e8 93 8a ff ff       	call   1270 <get_input>
    87dd:	89 45 fc             	mov    DWORD PTR [rbp-0x4],eax
    87e0:	81 7d fc b8 01 00 00 	cmp    DWORD PTR [rbp-0x4],0x1b8
    87e7:	75 05                	jne    87ee <main+0x74d7>
    87e9:	e9 f7 24 00 00       	jmp    ace5 <main+0x99ce>
    87ee:	81 7d fc 9f 01 00 00 	cmp    DWORD PTR [rbp-0x4],0x19f
    87f5:	75 05                	jne    87fc <main+0x74e5>
    87f7:	e9 4f 1c 00 00       	jmp    a44b <main+0x9134>
    87fc:	48 8d 05 25 68 00 00 	lea    rax,[rip+0x6825]        # f028 <_IO_stdin_used+0x28>
    8803:	48 89 c7             	mov    rdi,rax
    8806:	e8 b5 88 ff ff       	call   10c0 <puts@plt>
    880b:	bf 01 00 00 00       	mov    edi,0x1
    8810:	e8 1b 89 ff ff       	call   1130 <exit@plt>
    8815:	be 4f 01 00 00       	mov    esi,0x14f
    881a:	48 8d 05 f8 67 00 00 	lea    rax,[rip+0x67f8]        # f019 <_IO_stdin_used+0x19>
    8821:	48 89 c7             	mov    rdi,rax
    8824:	b8 00 00 00 00       	mov    eax,0x0
    8829:	e8 c2 88 ff ff       	call   10f0 <printf@plt>
    882e:	b8 00 00 00 00       	mov    eax,0x0
    8833:	e8 38 8a ff ff       	call   1270 <get_input>
    8838:	89 45 fc             	mov    DWORD PTR [rbp-0x4],eax
    883b:	81 7d fc 94 01 00 00 	cmp    DWORD PTR [rbp-0x4],0x194
    8842:	75 05                	jne    8849 <main+0x7532>
    8844:	e9 f5 17 00 00       	jmp    a03e <main+0x8d27>
    8849:	81 7d fc b3 00 00 00 	cmp    DWORD PTR [rbp-0x4],0xb3
    8850:	75 05                	jne    8857 <main+0x7540>
    8852:	e9 2f c9 ff ff       	jmp    5186 <main+0x3e6f>
    8857:	48 8d 05 ca 67 00 00 	lea    rax,[rip+0x67ca]        # f028 <_IO_stdin_used+0x28>
    885e:	48 89 c7             	mov    rdi,rax
    8861:	e8 5a 88 ff ff       	call   10c0 <puts@plt>
    8866:	bf 01 00 00 00       	mov    edi,0x1
    886b:	e8 c0 88 ff ff       	call   1130 <exit@plt>
    8870:	90                   	nop
    8871:	be 50 01 00 00       	mov    esi,0x150
    8876:	48 8d 05 9c 67 00 00 	lea    rax,[rip+0x679c]        # f019 <_IO_stdin_used+0x19>
    887d:	48 89 c7             	mov    rdi,rax
    8880:	b8 00 00 00 00       	mov    eax,0x0
    8885:	e8 66 88 ff ff       	call   10f0 <printf@plt>
    888a:	b8 00 00 00 00       	mov    eax,0x0
    888f:	e8 dc 89 ff ff       	call   1270 <get_input>
    8894:	89 45 fc             	mov    DWORD PTR [rbp-0x4],eax
    8897:	81 7d fc 65 02 00 00 	cmp    DWORD PTR [rbp-0x4],0x265
    889e:	75 05                	jne    88a5 <main+0x758e>
    88a0:	e9 48 61 00 00       	jmp    e9ed <main+0xd6d6>
    88a5:	48 8d 05 7c 67 00 00 	lea    rax,[rip+0x677c]        # f028 <_IO_stdin_used+0x28>
    88ac:	48 89 c7             	mov    rdi,rax
    88af:	e8 0c 88 ff ff       	call   10c0 <puts@plt>
    88b4:	bf 01 00 00 00       	mov    edi,0x1
    88b9:	e8 72 88 ff ff       	call   1130 <exit@plt>
    88be:	be 51 01 00 00       	mov    esi,0x151
    88c3:	48 8d 05 4f 67 00 00 	lea    rax,[rip+0x674f]        # f019 <_IO_stdin_used+0x19>
    88ca:	48 89 c7             	mov    rdi,rax
    88cd:	b8 00 00 00 00       	mov    eax,0x0
    88d2:	e8 19 88 ff ff       	call   10f0 <printf@plt>
    88d7:	b8 00 00 00 00       	mov    eax,0x0
    88dc:	e8 8f 89 ff ff       	call   1270 <get_input>
    88e1:	89 45 fc             	mov    DWORD PTR [rbp-0x4],eax
    88e4:	83 7d fc 52          	cmp    DWORD PTR [rbp-0x4],0x52
    88e8:	75 05                	jne    88ef <main+0x75d8>
    88ea:	e9 6c a6 ff ff       	jmp    2f5b <main+0x1c44>
    88ef:	81 7d fc 58 02 00 00 	cmp    DWORD PTR [rbp-0x4],0x258
    88f6:	75 05                	jne    88fd <main+0x75e6>
    88f8:	e9 4f 5c 00 00       	jmp    e54c <main+0xd235>
    88fd:	48 8d 05 24 67 00 00 	lea    rax,[rip+0x6724]        # f028 <_IO_stdin_used+0x28>
    8904:	48 89 c7             	mov    rdi,rax
    8907:	e8 b4 87 ff ff       	call   10c0 <puts@plt>
    890c:	bf 01 00 00 00       	mov    edi,0x1
    8911:	e8 1a 88 ff ff       	call   1130 <exit@plt>
    8916:	be 52 01 00 00       	mov    esi,0x152
    891b:	48 8d 05 f7 66 00 00 	lea    rax,[rip+0x66f7]        # f019 <_IO_stdin_used+0x19>
    8922:	48 89 c7             	mov    rdi,rax
    8925:	b8 00 00 00 00       	mov    eax,0x0
    892a:	e8 c1 87 ff ff       	call   10f0 <printf@plt>
    892f:	b8 00 00 00 00       	mov    eax,0x0
    8934:	e8 37 89 ff ff       	call   1270 <get_input>
    8939:	89 45 fc             	mov    DWORD PTR [rbp-0x4],eax
    893c:	81 7d fc 53 01 00 00 	cmp    DWORD PTR [rbp-0x4],0x153
    8943:	75 02                	jne    8947 <main+0x7630>
    8945:	eb 27                	jmp    896e <main+0x7657>
    8947:	81 7d fc c1 01 00 00 	cmp    DWORD PTR [rbp-0x4],0x1c1
    894e:	75 05                	jne    8955 <main+0x763e>
    8950:	e9 ad 26 00 00       	jmp    b002 <main+0x9ceb>
    8955:	48 8d 05 cc 66 00 00 	lea    rax,[rip+0x66cc]        # f028 <_IO_stdin_used+0x28>
    895c:	48 89 c7             	mov    rdi,rax
    895f:	e8 5c 87 ff ff       	call   10c0 <puts@plt>
    8964:	bf 01 00 00 00       	mov    edi,0x1
    8969:	e8 c2 87 ff ff       	call   1130 <exit@plt>
    896e:	be 53 01 00 00       	mov    esi,0x153
    8973:	48 8d 05 9f 66 00 00 	lea    rax,[rip+0x669f]        # f019 <_IO_stdin_used+0x19>
    897a:	48 89 c7             	mov    rdi,rax
    897d:	b8 00 00 00 00       	mov    eax,0x0
    8982:	e8 69 87 ff ff       	call   10f0 <printf@plt>
    8987:	b8 00 00 00 00       	mov    eax,0x0
    898c:	e8 df 88 ff ff       	call   1270 <get_input>
    8991:	89 45 fc             	mov    DWORD PTR [rbp-0x4],eax
    8994:	81 7d fc 67 02 00 00 	cmp    DWORD PTR [rbp-0x4],0x267
    899b:	75 05                	jne    89a2 <main+0x768b>
    899d:	e9 1f 61 00 00       	jmp    eac1 <main+0xd7aa>
    89a2:	81 7d fc 52 01 00 00 	cmp    DWORD PTR [rbp-0x4],0x152
    89a9:	75 05                	jne    89b0 <main+0x7699>
    89ab:	e9 66 ff ff ff       	jmp    8916 <main+0x75ff>
    89b0:	83 7d fc 7f          	cmp    DWORD PTR [rbp-0x4],0x7f
    89b4:	0f 84 be b5 ff ff    	je     3f78 <main+0x2c61>
    89ba:	48 8d 05 67 66 00 00 	lea    rax,[rip+0x6667]        # f028 <_IO_stdin_used+0x28>
    89c1:	48 89 c7             	mov    rdi,rax
    89c4:	e8 f7 86 ff ff       	call   10c0 <puts@plt>
    89c9:	bf 01 00 00 00       	mov    edi,0x1
    89ce:	e8 5d 87 ff ff       	call   1130 <exit@plt>
    89d3:	be 54 01 00 00       	mov    esi,0x154
    89d8:	48 8d 05 3a 66 00 00 	lea    rax,[rip+0x663a]        # f019 <_IO_stdin_used+0x19>
    89df:	48 89 c7             	mov    rdi,rax
    89e2:	b8 00 00 00 00       	mov    eax,0x0
    89e7:	e8 04 87 ff ff       	call   10f0 <printf@plt>
    89ec:	b8 00 00 00 00       	mov    eax,0x0
    89f1:	e8 7a 88 ff ff       	call   1270 <get_input>
    89f6:	89 45 fc             	mov    DWORD PTR [rbp-0x4],eax
    89f9:	81 7d fc 2b 01 00 00 	cmp    DWORD PTR [rbp-0x4],0x12b
    8a00:	0f 84 26 f1 ff ff    	je     7b2c <main+0x6815>
    8a06:	81 7d fc fa 00 00 00 	cmp    DWORD PTR [rbp-0x4],0xfa
    8a0d:	75 05                	jne    8a14 <main+0x76fd>
    8a0f:	e9 34 e0 ff ff       	jmp    6a48 <main+0x5731>
    8a14:	81 7d fc 9c 00 00 00 	cmp    DWORD PTR [rbp-0x4],0x9c
    8a1b:	0f 84 82 bf ff ff    	je     49a3 <main+0x368c>
    8a21:	48 8d 05 00 66 00 00 	lea    rax,[rip+0x6600]        # f028 <_IO_stdin_used+0x28>
    8a28:	48 89 c7             	mov    rdi,rax
    8a2b:	e8 90 86 ff ff       	call   10c0 <puts@plt>
    8a30:	bf 01 00 00 00       	mov    edi,0x1
    8a35:	e8 f6 86 ff ff       	call   1130 <exit@plt>
    8a3a:	90                   	nop
    8a3b:	be 55 01 00 00       	mov    esi,0x155
    8a40:	48 8d 05 d2 65 00 00 	lea    rax,[rip+0x65d2]        # f019 <_IO_stdin_used+0x19>
    8a47:	48 89 c7             	mov    rdi,rax
    8a4a:	b8 00 00 00 00       	mov    eax,0x0
    8a4f:	e8 9c 86 ff ff       	call   10f0 <printf@plt>
    8a54:	b8 00 00 00 00       	mov    eax,0x0
    8a59:	e8 12 88 ff ff       	call   1270 <get_input>
    8a5e:	89 45 fc             	mov    DWORD PTR [rbp-0x4],eax
    8a61:	81 7d fc 99 00 00 00 	cmp    DWORD PTR [rbp-0x4],0x99
    8a68:	75 05                	jne    8a6f <main+0x7758>
    8a6a:	e9 1b be ff ff       	jmp    488a <main+0x3573>
    8a6f:	48 8d 05 b2 65 00 00 	lea    rax,[rip+0x65b2]        # f028 <_IO_stdin_used+0x28>
    8a76:	48 89 c7             	mov    rdi,rax
    8a79:	e8 42 86 ff ff       	call   10c0 <puts@plt>
    8a7e:	bf 01 00 00 00       	mov    edi,0x1
    8a83:	e8 a8 86 ff ff       	call   1130 <exit@plt>
    8a88:	be 56 01 00 00       	mov    esi,0x156
    8a8d:	48 8d 05 85 65 00 00 	lea    rax,[rip+0x6585]        # f019 <_IO_stdin_used+0x19>
    8a94:	48 89 c7             	mov    rdi,rax
    8a97:	b8 00 00 00 00       	mov    eax,0x0
    8a9c:	e8 4f 86 ff ff       	call   10f0 <printf@plt>
    8aa1:	b8 00 00 00 00       	mov    eax,0x0
    8aa6:	e8 c5 87 ff ff       	call   1270 <get_input>
    8aab:	89 45 fc             	mov    DWORD PTR [rbp-0x4],eax
    8aae:	81 7d fc 49 01 00 00 	cmp    DWORD PTR [rbp-0x4],0x149
    8ab5:	0f 84 0c fb ff ff    	je     85c7 <main+0x72b0>
    8abb:	83 7d fc 57          	cmp    DWORD PTR [rbp-0x4],0x57
    8abf:	75 05                	jne    8ac6 <main+0x77af>
    8ac1:	e9 71 a6 ff ff       	jmp    3137 <main+0x1e20>
    8ac6:	83 7d fc 38          	cmp    DWORD PTR [rbp-0x4],0x38
    8aca:	0f 84 56 9b ff ff    	je     2626 <main+0x130f>
    8ad0:	81 7d fc 44 02 00 00 	cmp    DWORD PTR [rbp-0x4],0x244
    8ad7:	75 05                	jne    8ade <main+0x77c7>
    8ad9:	e9 e6 52 00 00       	jmp    ddc4 <main+0xcaad>
    8ade:	48 8d 05 43 65 00 00 	lea    rax,[rip+0x6543]        # f028 <_IO_stdin_used+0x28>
    8ae5:	48 89 c7             	mov    rdi,rax
    8ae8:	e8 d3 85 ff ff       	call   10c0 <puts@plt>
    8aed:	bf 01 00 00 00       	mov    edi,0x1
    8af2:	e8 39 86 ff ff       	call   1130 <exit@plt>
    8af7:	90                   	nop
    8af8:	be 57 01 00 00       	mov    esi,0x157
    8afd:	48 8d 05 15 65 00 00 	lea    rax,[rip+0x6515]        # f019 <_IO_stdin_used+0x19>
    8b04:	48 89 c7             	mov    rdi,rax
    8b07:	b8 00 00 00 00       	mov    eax,0x0
    8b0c:	e8 df 85 ff ff       	call   10f0 <printf@plt>
    8b11:	b8 00 00 00 00       	mov    eax,0x0
    8b16:	e8 55 87 ff ff       	call   1270 <get_input>
    8b1b:	89 45 fc             	mov    DWORD PTR [rbp-0x4],eax
    8b1e:	81 7d fc 09 02 00 00 	cmp    DWORD PTR [rbp-0x4],0x209
    8b25:	75 05                	jne    8b2c <main+0x7815>
    8b27:	e9 99 3d 00 00       	jmp    c8c5 <main+0xb5ae>
    8b2c:	48 8d 05 f5 64 00 00 	lea    rax,[rip+0x64f5]        # f028 <_IO_stdin_used+0x28>
    8b33:	48 89 c7             	mov    rdi,rax
    8b36:	e8 85 85 ff ff       	call   10c0 <puts@plt>
    8b3b:	bf 01 00 00 00       	mov    edi,0x1
    8b40:	e8 eb 85 ff ff       	call   1130 <exit@plt>
    8b45:	90                   	nop
    8b46:	be 58 01 00 00       	mov    esi,0x158
    8b4b:	48 8d 05 c7 64 00 00 	lea    rax,[rip+0x64c7]        # f019 <_IO_stdin_used+0x19>
    8b52:	48 89 c7             	mov    rdi,rax
    8b55:	b8 00 00 00 00       	mov    eax,0x0
    8b5a:	e8 91 85 ff ff       	call   10f0 <printf@plt>
    8b5f:	b8 00 00 00 00       	mov    eax,0x0
    8b64:	e8 07 87 ff ff       	call   1270 <get_input>
    8b69:	89 45 fc             	mov    DWORD PTR [rbp-0x4],eax
    8b6c:	83 7d fc 3e          	cmp    DWORD PTR [rbp-0x4],0x3e
    8b70:	75 05                	jne    8b77 <main+0x7860>
    8b72:	e9 a8 9c ff ff       	jmp    281f <main+0x1508>
    8b77:	48 8d 05 aa 64 00 00 	lea    rax,[rip+0x64aa]        # f028 <_IO_stdin_used+0x28>
    8b7e:	48 89 c7             	mov    rdi,rax
    8b81:	e8 3a 85 ff ff       	call   10c0 <puts@plt>
    8b86:	bf 01 00 00 00       	mov    edi,0x1
    8b8b:	e8 a0 85 ff ff       	call   1130 <exit@plt>
    8b90:	90                   	nop
    8b91:	be 59 01 00 00       	mov    esi,0x159
    8b96:	48 8d 05 7c 64 00 00 	lea    rax,[rip+0x647c]        # f019 <_IO_stdin_used+0x19>
    8b9d:	48 89 c7             	mov    rdi,rax
    8ba0:	b8 00 00 00 00       	mov    eax,0x0
    8ba5:	e8 46 85 ff ff       	call   10f0 <printf@plt>
    8baa:	b8 00 00 00 00       	mov    eax,0x0
    8baf:	e8 bc 86 ff ff       	call   1270 <get_input>
    8bb4:	89 45 fc             	mov    DWORD PTR [rbp-0x4],eax
    8bb7:	81 7d fc 6b 02 00 00 	cmp    DWORD PTR [rbp-0x4],0x26b
    8bbe:	75 05                	jne    8bc5 <main+0x78ae>
    8bc0:	e9 67 60 00 00       	jmp    ec2c <main+0xd915>
    8bc5:	48 8d 05 5c 64 00 00 	lea    rax,[rip+0x645c]        # f028 <_IO_stdin_used+0x28>
    8bcc:	48 89 c7             	mov    rdi,rax
    8bcf:	e8 ec 84 ff ff       	call   10c0 <puts@plt>
    8bd4:	bf 01 00 00 00       	mov    edi,0x1
    8bd9:	e8 52 85 ff ff       	call   1130 <exit@plt>
    8bde:	be 5a 01 00 00       	mov    esi,0x15a
    8be3:	48 8d 05 2f 64 00 00 	lea    rax,[rip+0x642f]        # f019 <_IO_stdin_used+0x19>
    8bea:	48 89 c7             	mov    rdi,rax
    8bed:	b8 00 00 00 00       	mov    eax,0x0
    8bf2:	e8 f9 84 ff ff       	call   10f0 <printf@plt>
    8bf7:	b8 00 00 00 00       	mov    eax,0x0
    8bfc:	e8 6f 86 ff ff       	call   1270 <get_input>
    8c01:	89 45 fc             	mov    DWORD PTR [rbp-0x4],eax
    8c04:	81 7d fc a8 00 00 00 	cmp    DWORD PTR [rbp-0x4],0xa8
    8c0b:	75 05                	jne    8c12 <main+0x78fb>
    8c0d:	e9 85 c1 ff ff       	jmp    4d97 <main+0x3a80>
    8c12:	81 7d fc 60 01 00 00 	cmp    DWORD PTR [rbp-0x4],0x160
    8c19:	0f 84 cc 01 00 00    	je     8deb <main+0x7ad4>
    8c1f:	48 8d 05 02 64 00 00 	lea    rax,[rip+0x6402]        # f028 <_IO_stdin_used+0x28>
    8c26:	48 89 c7             	mov    rdi,rax
    8c29:	e8 92 84 ff ff       	call   10c0 <puts@plt>
    8c2e:	bf 01 00 00 00       	mov    edi,0x1
    8c33:	e8 f8 84 ff ff       	call   1130 <exit@plt>
    8c38:	90                   	nop
    8c39:	be 5b 01 00 00       	mov    esi,0x15b
    8c3e:	48 8d 05 d4 63 00 00 	lea    rax,[rip+0x63d4]        # f019 <_IO_stdin_used+0x19>
    8c45:	48 89 c7             	mov    rdi,rax
    8c48:	b8 00 00 00 00       	mov    eax,0x0
    8c4d:	e8 9e 84 ff ff       	call   10f0 <printf@plt>
    8c52:	b8 00 00 00 00       	mov    eax,0x0
    8c57:	e8 14 86 ff ff       	call   1270 <get_input>
    8c5c:	89 45 fc             	mov    DWORD PTR [rbp-0x4],eax
    8c5f:	81 7d fc 43 01 00 00 	cmp    DWORD PTR [rbp-0x4],0x143
    8c66:	75 05                	jne    8c6d <main+0x7956>
    8c68:	e9 4b f7 ff ff       	jmp    83b8 <main+0x70a1>
    8c6d:	48 8d 05 b4 63 00 00 	lea    rax,[rip+0x63b4]        # f028 <_IO_stdin_used+0x28>
    8c74:	48 89 c7             	mov    rdi,rax
    8c77:	e8 44 84 ff ff       	call   10c0 <puts@plt>
    8c7c:	bf 01 00 00 00       	mov    edi,0x1
    8c81:	e8 aa 84 ff ff       	call   1130 <exit@plt>
    8c86:	be 5c 01 00 00       	mov    esi,0x15c
    8c8b:	48 8d 05 87 63 00 00 	lea    rax,[rip+0x6387]        # f019 <_IO_stdin_used+0x19>
    8c92:	48 89 c7             	mov    rdi,rax
    8c95:	b8 00 00 00 00       	mov    eax,0x0
    8c9a:	e8 51 84 ff ff       	call   10f0 <printf@plt>
    8c9f:	b8 00 00 00 00       	mov    eax,0x0
    8ca4:	e8 c7 85 ff ff       	call   1270 <get_input>
    8ca9:	89 45 fc             	mov    DWORD PTR [rbp-0x4],eax
    8cac:	81 7d fc 4b 01 00 00 	cmp    DWORD PTR [rbp-0x4],0x14b
    8cb3:	75 05                	jne    8cba <main+0x79a3>
    8cb5:	e9 de f9 ff ff       	jmp    8698 <main+0x7381>
    8cba:	81 7d fc 89 01 00 00 	cmp    DWORD PTR [rbp-0x4],0x189
    8cc1:	75 05                	jne    8cc8 <main+0x79b1>
    8cc3:	e9 75 0f 00 00       	jmp    9c3d <main+0x8926>
    8cc8:	48 8d 05 59 63 00 00 	lea    rax,[rip+0x6359]        # f028 <_IO_stdin_used+0x28>
    8ccf:	48 89 c7             	mov    rdi,rax
    8cd2:	e8 e9 83 ff ff       	call   10c0 <puts@plt>
    8cd7:	bf 01 00 00 00       	mov    edi,0x1
    8cdc:	e8 4f 84 ff ff       	call   1130 <exit@plt>
    8ce1:	be 5d 01 00 00       	mov    esi,0x15d
    8ce6:	48 8d 05 2c 63 00 00 	lea    rax,[rip+0x632c]        # f019 <_IO_stdin_used+0x19>
    8ced:	48 89 c7             	mov    rdi,rax
    8cf0:	b8 00 00 00 00       	mov    eax,0x0
    8cf5:	e8 f6 83 ff ff       	call   10f0 <printf@plt>
    8cfa:	b8 00 00 00 00       	mov    eax,0x0
    8cff:	e8 6c 85 ff ff       	call   1270 <get_input>
    8d04:	89 45 fc             	mov    DWORD PTR [rbp-0x4],eax
    8d07:	83 7d fc 34          	cmp    DWORD PTR [rbp-0x4],0x34
    8d0b:	75 05                	jne    8d12 <main+0x79fb>
    8d0d:	e9 ba 97 ff ff       	jmp    24cc <main+0x11b5>
    8d12:	81 7d fc eb 00 00 00 	cmp    DWORD PTR [rbp-0x4],0xeb
    8d19:	75 05                	jne    8d20 <main+0x7a09>
    8d1b:	e9 c9 d7 ff ff       	jmp    64e9 <main+0x51d2>
    8d20:	81 7d fc 91 00 00 00 	cmp    DWORD PTR [rbp-0x4],0x91
    8d27:	0f 84 a3 b8 ff ff    	je     45d0 <main+0x32b9>
    8d2d:	48 8d 05 f4 62 00 00 	lea    rax,[rip+0x62f4]        # f028 <_IO_stdin_used+0x28>
    8d34:	48 89 c7             	mov    rdi,rax
    8d37:	e8 84 83 ff ff       	call   10c0 <puts@plt>
    8d3c:	bf 01 00 00 00       	mov    edi,0x1
    8d41:	e8 ea 83 ff ff       	call   1130 <exit@plt>
    8d46:	90                   	nop
    8d47:	be 5e 01 00 00       	mov    esi,0x15e
    8d4c:	48 8d 05 c6 62 00 00 	lea    rax,[rip+0x62c6]        # f019 <_IO_stdin_used+0x19>
    8d53:	48 89 c7             	mov    rdi,rax
    8d56:	b8 00 00 00 00       	mov    eax,0x0
    8d5b:	e8 90 83 ff ff       	call   10f0 <printf@plt>
    8d60:	b8 00 00 00 00       	mov    eax,0x0
    8d65:	e8 06 85 ff ff       	call   1270 <get_input>
    8d6a:	89 45 fc             	mov    DWORD PTR [rbp-0x4],eax
    8d6d:	81 7d fc ea 00 00 00 	cmp    DWORD PTR [rbp-0x4],0xea
    8d74:	75 05                	jne    8d7b <main+0x7a64>
    8d76:	e9 17 d7 ff ff       	jmp    6492 <main+0x517b>
    8d7b:	48 8d 05 a6 62 00 00 	lea    rax,[rip+0x62a6]        # f028 <_IO_stdin_used+0x28>
    8d82:	48 89 c7             	mov    rdi,rax
    8d85:	e8 36 83 ff ff       	call   10c0 <puts@plt>
    8d8a:	bf 01 00 00 00       	mov    edi,0x1
    8d8f:	e8 9c 83 ff ff       	call   1130 <exit@plt>
    8d94:	be 5f 01 00 00       	mov    esi,0x15f
    8d99:	48 8d 05 79 62 00 00 	lea    rax,[rip+0x6279]        # f019 <_IO_stdin_used+0x19>
    8da0:	48 89 c7             	mov    rdi,rax
    8da3:	b8 00 00 00 00       	mov    eax,0x0
    8da8:	e8 43 83 ff ff       	call   10f0 <printf@plt>
    8dad:	b8 00 00 00 00       	mov    eax,0x0
    8db2:	e8 b9 84 ff ff       	call   1270 <get_input>
    8db7:	89 45 fc             	mov    DWORD PTR [rbp-0x4],eax
    8dba:	81 7d fc 0d 01 00 00 	cmp    DWORD PTR [rbp-0x4],0x10d
    8dc1:	75 05                	jne    8dc8 <main+0x7ab1>
    8dc3:	e9 fe e2 ff ff       	jmp    70c6 <main+0x5daf>
    8dc8:	83 7d fc 16          	cmp    DWORD PTR [rbp-0x4],0x16
    8dcc:	0f 84 ee 8c ff ff    	je     1ac0 <main+0x7a9>
    8dd2:	48 8d 05 4f 62 00 00 	lea    rax,[rip+0x624f]        # f028 <_IO_stdin_used+0x28>
    8dd9:	48 89 c7             	mov    rdi,rax
    8ddc:	e8 df 82 ff ff       	call   10c0 <puts@plt>
    8de1:	bf 01 00 00 00       	mov    edi,0x1
    8de6:	e8 45 83 ff ff       	call   1130 <exit@plt>
    8deb:	90                   	nop
    8dec:	be 60 01 00 00       	mov    esi,0x160
    8df1:	48 8d 05 21 62 00 00 	lea    rax,[rip+0x6221]        # f019 <_IO_stdin_used+0x19>
    8df8:	48 89 c7             	mov    rdi,rax
    8dfb:	b8 00 00 00 00       	mov    eax,0x0
    8e00:	e8 eb 82 ff ff       	call   10f0 <printf@plt>
    8e05:	b8 00 00 00 00       	mov    eax,0x0
    8e0a:	e8 61 84 ff ff       	call   1270 <get_input>
    8e0f:	89 45 fc             	mov    DWORD PTR [rbp-0x4],eax
    8e12:	81 7d fc 5a 01 00 00 	cmp    DWORD PTR [rbp-0x4],0x15a
    8e19:	75 05                	jne    8e20 <main+0x7b09>
    8e1b:	e9 be fd ff ff       	jmp    8bde <main+0x78c7>
    8e20:	48 8d 05 01 62 00 00 	lea    rax,[rip+0x6201]        # f028 <_IO_stdin_used+0x28>
    8e27:	48 89 c7             	mov    rdi,rax
    8e2a:	e8 91 82 ff ff       	call   10c0 <puts@plt>
    8e2f:	bf 01 00 00 00       	mov    edi,0x1
    8e34:	e8 f7 82 ff ff       	call   1130 <exit@plt>
    8e39:	be 61 01 00 00       	mov    esi,0x161
    8e3e:	48 8d 05 d4 61 00 00 	lea    rax,[rip+0x61d4]        # f019 <_IO_stdin_used+0x19>
    8e45:	48 89 c7             	mov    rdi,rax
    8e48:	b8 00 00 00 00       	mov    eax,0x0
    8e4d:	e8 9e 82 ff ff       	call   10f0 <printf@plt>
    8e52:	b8 00 00 00 00       	mov    eax,0x0
    8e57:	e8 14 84 ff ff       	call   1270 <get_input>
    8e5c:	89 45 fc             	mov    DWORD PTR [rbp-0x4],eax
    8e5f:	81 7d fc 8e 00 00 00 	cmp    DWORD PTR [rbp-0x4],0x8e
    8e66:	75 05                	jne    8e6d <main+0x7b56>
    8e68:	e9 1d b6 ff ff       	jmp    448a <main+0x3173>
    8e6d:	81 7d fc f0 00 00 00 	cmp    DWORD PTR [rbp-0x4],0xf0
    8e74:	0f 84 43 d8 ff ff    	je     66bd <main+0x53a6>
    8e7a:	81 7d fc 12 01 00 00 	cmp    DWORD PTR [rbp-0x4],0x112
    8e81:	75 05                	jne    8e88 <main+0x7b71>
    8e83:	e9 fb e3 ff ff       	jmp    7283 <main+0x5f6c>
    8e88:	48 8d 05 99 61 00 00 	lea    rax,[rip+0x6199]        # f028 <_IO_stdin_used+0x28>
    8e8f:	48 89 c7             	mov    rdi,rax
    8e92:	e8 29 82 ff ff       	call   10c0 <puts@plt>
    8e97:	bf 01 00 00 00       	mov    edi,0x1
    8e9c:	e8 8f 82 ff ff       	call   1130 <exit@plt>
    8ea1:	90                   	nop
    8ea2:	be 62 01 00 00       	mov    esi,0x162
    8ea7:	48 8d 05 6b 61 00 00 	lea    rax,[rip+0x616b]        # f019 <_IO_stdin_used+0x19>
    8eae:	48 89 c7             	mov    rdi,rax
    8eb1:	b8 00 00 00 00       	mov    eax,0x0
    8eb6:	e8 35 82 ff ff       	call   10f0 <printf@plt>
    8ebb:	b8 00 00 00 00       	mov    eax,0x0
    8ec0:	e8 ab 83 ff ff       	call   1270 <get_input>
    8ec5:	89 45 fc             	mov    DWORD PTR [rbp-0x4],eax
    8ec8:	81 7d fc 8b 00 00 00 	cmp    DWORD PTR [rbp-0x4],0x8b
    8ecf:	75 05                	jne    8ed6 <main+0x7bbf>
    8ed1:	e9 ae b4 ff ff       	jmp    4384 <main+0x306d>
    8ed6:	48 8d 05 4b 61 00 00 	lea    rax,[rip+0x614b]        # f028 <_IO_stdin_used+0x28>
    8edd:	48 89 c7             	mov    rdi,rax
    8ee0:	e8 db 81 ff ff       	call   10c0 <puts@plt>
    8ee5:	bf 01 00 00 00       	mov    edi,0x1
    8eea:	e8 41 82 ff ff       	call   1130 <exit@plt>
    8eef:	90                   	nop
    8ef0:	be 63 01 00 00       	mov    esi,0x163
    8ef5:	48 8d 05 1d 61 00 00 	lea    rax,[rip+0x611d]        # f019 <_IO_stdin_used+0x19>
    8efc:	48 89 c7             	mov    rdi,rax
    8eff:	b8 00 00 00 00       	mov    eax,0x0
    8f04:	e8 e7 81 ff ff       	call   10f0 <printf@plt>
    8f09:	b8 00 00 00 00       	mov    eax,0x0
    8f0e:	e8 5d 83 ff ff       	call   1270 <get_input>
    8f13:	89 45 fc             	mov    DWORD PTR [rbp-0x4],eax
    8f16:	81 7d fc 30 02 00 00 	cmp    DWORD PTR [rbp-0x4],0x230
    8f1d:	75 05                	jne    8f24 <main+0x7c0d>
    8f1f:	e9 62 47 00 00       	jmp    d686 <main+0xc36f>
    8f24:	48 8d 05 fd 60 00 00 	lea    rax,[rip+0x60fd]        # f028 <_IO_stdin_used+0x28>
    8f2b:	48 89 c7             	mov    rdi,rax
    8f2e:	e8 8d 81 ff ff       	call   10c0 <puts@plt>
    8f33:	bf 01 00 00 00       	mov    edi,0x1
    8f38:	e8 f3 81 ff ff       	call   1130 <exit@plt>
    8f3d:	be 64 01 00 00       	mov    esi,0x164
    8f42:	48 8d 05 d0 60 00 00 	lea    rax,[rip+0x60d0]        # f019 <_IO_stdin_used+0x19>
    8f49:	48 89 c7             	mov    rdi,rax
    8f4c:	b8 00 00 00 00       	mov    eax,0x0
    8f51:	e8 9a 81 ff ff       	call   10f0 <printf@plt>
    8f56:	b8 00 00 00 00       	mov    eax,0x0
    8f5b:	e8 10 83 ff ff       	call   1270 <get_input>
    8f60:	89 45 fc             	mov    DWORD PTR [rbp-0x4],eax
    8f63:	81 7d fc 8e 00 00 00 	cmp    DWORD PTR [rbp-0x4],0x8e
    8f6a:	75 05                	jne    8f71 <main+0x7c5a>
    8f6c:	e9 19 b5 ff ff       	jmp    448a <main+0x3173>
    8f71:	81 7d fc 49 02 00 00 	cmp    DWORD PTR [rbp-0x4],0x249
    8f78:	75 05                	jne    8f7f <main+0x7c68>
    8f7a:	e9 3b 50 00 00       	jmp    dfba <main+0xcca3>
    8f7f:	48 8d 05 a2 60 00 00 	lea    rax,[rip+0x60a2]        # f028 <_IO_stdin_used+0x28>
    8f86:	48 89 c7             	mov    rdi,rax
    8f89:	e8 32 81 ff ff       	call   10c0 <puts@plt>
    8f8e:	bf 01 00 00 00       	mov    edi,0x1
    8f93:	e8 98 81 ff ff       	call   1130 <exit@plt>
    8f98:	be 65 01 00 00       	mov    esi,0x165
    8f9d:	48 8d 05 75 60 00 00 	lea    rax,[rip+0x6075]        # f019 <_IO_stdin_used+0x19>
    8fa4:	48 89 c7             	mov    rdi,rax
    8fa7:	b8 00 00 00 00       	mov    eax,0x0
    8fac:	e8 3f 81 ff ff       	call   10f0 <printf@plt>
    8fb1:	b8 00 00 00 00       	mov    eax,0x0
    8fb6:	e8 b5 82 ff ff       	call   1270 <get_input>
    8fbb:	89 45 fc             	mov    DWORD PTR [rbp-0x4],eax
    8fbe:	81 7d fc 5e 02 00 00 	cmp    DWORD PTR [rbp-0x4],0x25e
    8fc5:	75 05                	jne    8fcc <main+0x7cb5>
    8fc7:	e9 9e 57 00 00       	jmp    e76a <main+0xd453>
    8fcc:	81 7d fc 51 02 00 00 	cmp    DWORD PTR [rbp-0x4],0x251
    8fd3:	75 05                	jne    8fda <main+0x7cc3>
    8fd5:	e9 d1 52 00 00       	jmp    e2ab <main+0xcf94>
    8fda:	48 8d 05 47 60 00 00 	lea    rax,[rip+0x6047]        # f028 <_IO_stdin_used+0x28>
    8fe1:	48 89 c7             	mov    rdi,rax
    8fe4:	e8 d7 80 ff ff       	call   10c0 <puts@plt>
    8fe9:	bf 01 00 00 00       	mov    edi,0x1
    8fee:	e8 3d 81 ff ff       	call   1130 <exit@plt>
    8ff3:	be 66 01 00 00       	mov    esi,0x166
    8ff8:	48 8d 05 1a 60 00 00 	lea    rax,[rip+0x601a]        # f019 <_IO_stdin_used+0x19>
    8fff:	48 89 c7             	mov    rdi,rax
    9002:	b8 00 00 00 00       	mov    eax,0x0
    9007:	e8 e4 80 ff ff       	call   10f0 <printf@plt>
    900c:	b8 00 00 00 00       	mov    eax,0x0
    9011:	e8 5a 82 ff ff       	call   1270 <get_input>
    9016:	89 45 fc             	mov    DWORD PTR [rbp-0x4],eax
    9019:	81 7d fc bb 00 00 00 	cmp    DWORD PTR [rbp-0x4],0xbb
    9020:	75 05                	jne    9027 <main+0x7d10>
    9022:	e9 27 c4 ff ff       	jmp    544e <main+0x4137>
    9027:	81 7d fc 22 02 00 00 	cmp    DWORD PTR [rbp-0x4],0x222
    902e:	75 05                	jne    9035 <main+0x7d1e>
    9030:	e9 38 41 00 00       	jmp    d16d <main+0xbe56>
    9035:	48 8d 05 ec 5f 00 00 	lea    rax,[rip+0x5fec]        # f028 <_IO_stdin_used+0x28>
    903c:	48 89 c7             	mov    rdi,rax
    903f:	e8 7c 80 ff ff       	call   10c0 <puts@plt>
    9044:	bf 01 00 00 00       	mov    edi,0x1
    9049:	e8 e2 80 ff ff       	call   1130 <exit@plt>
    904e:	be 67 01 00 00       	mov    esi,0x167
    9053:	48 8d 05 bf 5f 00 00 	lea    rax,[rip+0x5fbf]        # f019 <_IO_stdin_used+0x19>
    905a:	48 89 c7             	mov    rdi,rax
    905d:	b8 00 00 00 00       	mov    eax,0x0
    9062:	e8 89 80 ff ff       	call   10f0 <printf@plt>
    9067:	b8 00 00 00 00       	mov    eax,0x0
    906c:	e8 ff 81 ff ff       	call   1270 <get_input>
    9071:	89 45 fc             	mov    DWORD PTR [rbp-0x4],eax
    9074:	81 7d fc c4 01 00 00 	cmp    DWORD PTR [rbp-0x4],0x1c4
    907b:	75 05                	jne    9082 <main+0x7d6b>
    907d:	e9 96 20 00 00       	jmp    b118 <main+0x9e01>
    9082:	83 7d fc 3f          	cmp    DWORD PTR [rbp-0x4],0x3f
    9086:	75 05                	jne    908d <main+0x7d76>
    9088:	e9 ec 97 ff ff       	jmp    2879 <main+0x1562>
    908d:	48 8d 05 94 5f 00 00 	lea    rax,[rip+0x5f94]        # f028 <_IO_stdin_used+0x28>
    9094:	48 89 c7             	mov    rdi,rax
    9097:	e8 24 80 ff ff       	call   10c0 <puts@plt>
    909c:	bf 01 00 00 00       	mov    edi,0x1
    90a1:	e8 8a 80 ff ff       	call   1130 <exit@plt>
    90a6:	be 68 01 00 00       	mov    esi,0x168
    90ab:	48 8d 05 67 5f 00 00 	lea    rax,[rip+0x5f67]        # f019 <_IO_stdin_used+0x19>
    90b2:	48 89 c7             	mov    rdi,rax
    90b5:	b8 00 00 00 00       	mov    eax,0x0
    90ba:	e8 31 80 ff ff       	call   10f0 <printf@plt>
    90bf:	b8 00 00 00 00       	mov    eax,0x0
    90c4:	e8 a7 81 ff ff       	call   1270 <get_input>
    90c9:	89 45 fc             	mov    DWORD PTR [rbp-0x4],eax
    90cc:	81 7d fc 92 01 00 00 	cmp    DWORD PTR [rbp-0x4],0x192
    90d3:	75 05                	jne    90da <main+0x7dc3>
    90d5:	e9 ad 0e 00 00       	jmp    9f87 <main+0x8c70>
    90da:	81 7d fc fe 00 00 00 	cmp    DWORD PTR [rbp-0x4],0xfe
    90e1:	75 05                	jne    90e8 <main+0x7dd1>
    90e3:	e9 cd da ff ff       	jmp    6bb5 <main+0x589e>
    90e8:	48 8d 05 39 5f 00 00 	lea    rax,[rip+0x5f39]        # f028 <_IO_stdin_used+0x28>
    90ef:	48 89 c7             	mov    rdi,rax
    90f2:	e8 c9 7f ff ff       	call   10c0 <puts@plt>
    90f7:	bf 01 00 00 00       	mov    edi,0x1
    90fc:	e8 2f 80 ff ff       	call   1130 <exit@plt>
    9101:	90                   	nop
    9102:	be 69 01 00 00       	mov    esi,0x169
    9107:	48 8d 05 0b 5f 00 00 	lea    rax,[rip+0x5f0b]        # f019 <_IO_stdin_used+0x19>
    910e:	48 89 c7             	mov    rdi,rax
    9111:	b8 00 00 00 00       	mov    eax,0x0
    9116:	e8 d5 7f ff ff       	call   10f0 <printf@plt>
    911b:	b8 00 00 00 00       	mov    eax,0x0
    9120:	e8 4b 81 ff ff       	call   1270 <get_input>
    9125:	89 45 fc             	mov    DWORD PTR [rbp-0x4],eax
    9128:	81 7d fc 3d 02 00 00 	cmp    DWORD PTR [rbp-0x4],0x23d
    912f:	75 05                	jne    9136 <main+0x7e1f>
    9131:	e9 1d 4a 00 00       	jmp    db53 <main+0xc83c>
    9136:	48 8d 05 eb 5e 00 00 	lea    rax,[rip+0x5eeb]        # f028 <_IO_stdin_used+0x28>
    913d:	48 89 c7             	mov    rdi,rax
    9140:	e8 7b 7f ff ff       	call   10c0 <puts@plt>
    9145:	bf 01 00 00 00       	mov    edi,0x1
    914a:	e8 e1 7f ff ff       	call   1130 <exit@plt>
    914f:	90                   	nop
    9150:	be 6a 01 00 00       	mov    esi,0x16a
    9155:	48 8d 05 bd 5e 00 00 	lea    rax,[rip+0x5ebd]        # f019 <_IO_stdin_used+0x19>
    915c:	48 89 c7             	mov    rdi,rax
    915f:	b8 00 00 00 00       	mov    eax,0x0
    9164:	e8 87 7f ff ff       	call   10f0 <printf@plt>
    9169:	b8 00 00 00 00       	mov    eax,0x0
    916e:	e8 fd 80 ff ff       	call   1270 <get_input>
    9173:	89 45 fc             	mov    DWORD PTR [rbp-0x4],eax
    9176:	81 7d fc d7 01 00 00 	cmp    DWORD PTR [rbp-0x4],0x1d7
    917d:	75 05                	jne    9184 <main+0x7e6d>
    917f:	e9 3a 26 00 00       	jmp    b7be <main+0xa4a7>
    9184:	48 8d 05 9d 5e 00 00 	lea    rax,[rip+0x5e9d]        # f028 <_IO_stdin_used+0x28>
    918b:	48 89 c7             	mov    rdi,rax
    918e:	e8 2d 7f ff ff       	call   10c0 <puts@plt>
    9193:	bf 01 00 00 00       	mov    edi,0x1
    9198:	e8 93 7f ff ff       	call   1130 <exit@plt>
    919d:	90                   	nop
    919e:	be 6b 01 00 00       	mov    esi,0x16b
    91a3:	48 8d 05 6f 5e 00 00 	lea    rax,[rip+0x5e6f]        # f019 <_IO_stdin_used+0x19>
    91aa:	48 89 c7             	mov    rdi,rax
    91ad:	b8 00 00 00 00       	mov    eax,0x0
    91b2:	e8 39 7f ff ff       	call   10f0 <printf@plt>
    91b7:	b8 00 00 00 00       	mov    eax,0x0
    91bc:	e8 af 80 ff ff       	call   1270 <get_input>
    91c1:	89 45 fc             	mov    DWORD PTR [rbp-0x4],eax
    91c4:	83 7d fc 13          	cmp    DWORD PTR [rbp-0x4],0x13
    91c8:	75 05                	jne    91cf <main+0x7eb8>
    91ca:	e9 d4 87 ff ff       	jmp    19a3 <main+0x68c>
    91cf:	48 8d 05 52 5e 00 00 	lea    rax,[rip+0x5e52]        # f028 <_IO_stdin_used+0x28>
    91d6:	48 89 c7             	mov    rdi,rax
    91d9:	e8 e2 7e ff ff       	call   10c0 <puts@plt>
    91de:	bf 01 00 00 00       	mov    edi,0x1
    91e3:	e8 48 7f ff ff       	call   1130 <exit@plt>
    91e8:	be 6c 01 00 00       	mov    esi,0x16c
    91ed:	48 8d 05 25 5e 00 00 	lea    rax,[rip+0x5e25]        # f019 <_IO_stdin_used+0x19>
    91f4:	48 89 c7             	mov    rdi,rax
    91f7:	b8 00 00 00 00       	mov    eax,0x0
    91fc:	e8 ef 7e ff ff       	call   10f0 <printf@plt>
    9201:	b8 00 00 00 00       	mov    eax,0x0
    9206:	e8 65 80 ff ff       	call   1270 <get_input>
    920b:	89 45 fc             	mov    DWORD PTR [rbp-0x4],eax
    920e:	81 7d fc 71 01 00 00 	cmp    DWORD PTR [rbp-0x4],0x171
    9215:	75 05                	jne    921c <main+0x7f05>
    9217:	e9 ae 01 00 00       	jmp    93ca <main+0x80b3>
    921c:	81 7d fc 45 01 00 00 	cmp    DWORD PTR [rbp-0x4],0x145
    9223:	0f 84 50 f2 ff ff    	je     8479 <main+0x7162>
    9229:	48 8d 05 f8 5d 00 00 	lea    rax,[rip+0x5df8]        # f028 <_IO_stdin_used+0x28>
    9230:	48 89 c7             	mov    rdi,rax
    9233:	e8 88 7e ff ff       	call   10c0 <puts@plt>
    9238:	bf 01 00 00 00       	mov    edi,0x1
    923d:	e8 ee 7e ff ff       	call   1130 <exit@plt>
    9242:	be 6d 01 00 00       	mov    esi,0x16d
    9247:	48 8d 05 cb 5d 00 00 	lea    rax,[rip+0x5dcb]        # f019 <_IO_stdin_used+0x19>
    924e:	48 89 c7             	mov    rdi,rax
    9251:	b8 00 00 00 00       	mov    eax,0x0
    9256:	e8 95 7e ff ff       	call   10f0 <printf@plt>
    925b:	b8 00 00 00 00       	mov    eax,0x0
    9260:	e8 0b 80 ff ff       	call   1270 <get_input>
    9265:	89 45 fc             	mov    DWORD PTR [rbp-0x4],eax
    9268:	83 7d fc 4a          	cmp    DWORD PTR [rbp-0x4],0x4a
    926c:	75 05                	jne    9273 <main+0x7f5c>
    926e:	e9 f6 99 ff ff       	jmp    2c69 <main+0x1952>
    9273:	81 7d fc 1f 02 00 00 	cmp    DWORD PTR [rbp-0x4],0x21f
    927a:	75 05                	jne    9281 <main+0x7f6a>
    927c:	e9 eb 3d 00 00       	jmp    d06c <main+0xbd55>
    9281:	81 7d fc 15 01 00 00 	cmp    DWORD PTR [rbp-0x4],0x115
    9288:	75 05                	jne    928f <main+0x7f78>
    928a:	e9 04 e1 ff ff       	jmp    7393 <main+0x607c>
    928f:	48 8d 05 92 5d 00 00 	lea    rax,[rip+0x5d92]        # f028 <_IO_stdin_used+0x28>
    9296:	48 89 c7             	mov    rdi,rax
    9299:	e8 22 7e ff ff       	call   10c0 <puts@plt>
    929e:	bf 01 00 00 00       	mov    edi,0x1
    92a3:	e8 88 7e ff ff       	call   1130 <exit@plt>
    92a8:	be 6e 01 00 00       	mov    esi,0x16e
    92ad:	48 8d 05 65 5d 00 00 	lea    rax,[rip+0x5d65]        # f019 <_IO_stdin_used+0x19>
    92b4:	48 89 c7             	mov    rdi,rax
    92b7:	b8 00 00 00 00       	mov    eax,0x0
    92bc:	e8 2f 7e ff ff       	call   10f0 <printf@plt>
    92c1:	b8 00 00 00 00       	mov    eax,0x0
    92c6:	e8 a5 7f ff ff       	call   1270 <get_input>
    92cb:	89 45 fc             	mov    DWORD PTR [rbp-0x4],eax
    92ce:	81 7d fc d6 01 00 00 	cmp    DWORD PTR [rbp-0x4],0x1d6
    92d5:	75 05                	jne    92dc <main+0x7fc5>
    92d7:	e9 8a 24 00 00       	jmp    b766 <main+0xa44f>
    92dc:	81 7d fc d3 01 00 00 	cmp    DWORD PTR [rbp-0x4],0x1d3
    92e3:	75 05                	jne    92ea <main+0x7fd3>
    92e5:	e9 60 23 00 00       	jmp    b64a <main+0xa333>
    92ea:	83 7d fc 1a          	cmp    DWORD PTR [rbp-0x4],0x1a
    92ee:	75 05                	jne    92f5 <main+0x7fde>
    92f0:	e9 25 89 ff ff       	jmp    1c1a <main+0x903>
    92f5:	48 8d 05 2c 5d 00 00 	lea    rax,[rip+0x5d2c]        # f028 <_IO_stdin_used+0x28>
    92fc:	48 89 c7             	mov    rdi,rax
    92ff:	e8 bc 7d ff ff       	call   10c0 <puts@plt>
    9304:	bf 01 00 00 00       	mov    edi,0x1
    9309:	e8 22 7e ff ff       	call   1130 <exit@plt>
    930e:	be 6f 01 00 00       	mov    esi,0x16f
    9313:	48 8d 05 ff 5c 00 00 	lea    rax,[rip+0x5cff]        # f019 <_IO_stdin_used+0x19>
    931a:	48 89 c7             	mov    rdi,rax
    931d:	b8 00 00 00 00       	mov    eax,0x0
    9322:	e8 c9 7d ff ff       	call   10f0 <printf@plt>
    9327:	b8 00 00 00 00       	mov    eax,0x0
    932c:	e8 3f 7f ff ff       	call   1270 <get_input>
    9331:	89 45 fc             	mov    DWORD PTR [rbp-0x4],eax
    9334:	83 7d fc 2a          	cmp    DWORD PTR [rbp-0x4],0x2a
    9338:	75 05                	jne    933f <main+0x8028>
    933a:	e9 65 8e ff ff       	jmp    21a4 <main+0xe8d>
    933f:	83 7d fc 25          	cmp    DWORD PTR [rbp-0x4],0x25
    9343:	0f 84 b4 8c ff ff    	je     1ffd <main+0xce6>
    9349:	48 8d 05 d8 5c 00 00 	lea    rax,[rip+0x5cd8]        # f028 <_IO_stdin_used+0x28>
    9350:	48 89 c7             	mov    rdi,rax
    9353:	e8 68 7d ff ff       	call   10c0 <puts@plt>
    9358:	bf 01 00 00 00       	mov    edi,0x1
    935d:	e8 ce 7d ff ff       	call   1130 <exit@plt>
    9362:	be 70 01 00 00       	mov    esi,0x170
    9367:	48 8d 05 ab 5c 00 00 	lea    rax,[rip+0x5cab]        # f019 <_IO_stdin_used+0x19>
    936e:	48 89 c7             	mov    rdi,rax
    9371:	b8 00 00 00 00       	mov    eax,0x0
    9376:	e8 75 7d ff ff       	call   10f0 <printf@plt>
    937b:	b8 00 00 00 00       	mov    eax,0x0
    9380:	e8 eb 7e ff ff       	call   1270 <get_input>
    9385:	89 45 fc             	mov    DWORD PTR [rbp-0x4],eax
    9388:	81 7d fc b4 01 00 00 	cmp    DWORD PTR [rbp-0x4],0x1b4
    938f:	0f 84 f8 17 00 00    	je     ab8d <main+0x9876>
    9395:	81 7d fc 7e 01 00 00 	cmp    DWORD PTR [rbp-0x4],0x17e
    939c:	75 05                	jne    93a3 <main+0x808c>
    939e:	e9 a4 04 00 00       	jmp    9847 <main+0x8530>
    93a3:	81 7d fc 1c 02 00 00 	cmp    DWORD PTR [rbp-0x4],0x21c
    93aa:	75 05                	jne    93b1 <main+0x809a>
    93ac:	e9 9f 3b 00 00       	jmp    cf50 <main+0xbc39>
    93b1:	48 8d 05 70 5c 00 00 	lea    rax,[rip+0x5c70]        # f028 <_IO_stdin_used+0x28>
    93b8:	48 89 c7             	mov    rdi,rax
    93bb:	e8 00 7d ff ff       	call   10c0 <puts@plt>
    93c0:	bf 01 00 00 00       	mov    edi,0x1
    93c5:	e8 66 7d ff ff       	call   1130 <exit@plt>
    93ca:	be 71 01 00 00       	mov    esi,0x171
    93cf:	48 8d 05 43 5c 00 00 	lea    rax,[rip+0x5c43]        # f019 <_IO_stdin_used+0x19>
    93d6:	48 89 c7             	mov    rdi,rax
    93d9:	b8 00 00 00 00       	mov    eax,0x0
    93de:	e8 0d 7d ff ff       	call   10f0 <printf@plt>
    93e3:	b8 00 00 00 00       	mov    eax,0x0
    93e8:	e8 83 7e ff ff       	call   1270 <get_input>
    93ed:	89 45 fc             	mov    DWORD PTR [rbp-0x4],eax
    93f0:	81 7d fc 6c 01 00 00 	cmp    DWORD PTR [rbp-0x4],0x16c
    93f7:	75 05                	jne    93fe <main+0x80e7>
    93f9:	e9 ea fd ff ff       	jmp    91e8 <main+0x7ed1>
    93fe:	81 7d fc 9e 01 00 00 	cmp    DWORD PTR [rbp-0x4],0x19e
    9405:	75 05                	jne    940c <main+0x80f5>
    9407:	e9 d9 0f 00 00       	jmp    a3e5 <main+0x90ce>
    940c:	48 8d 05 15 5c 00 00 	lea    rax,[rip+0x5c15]        # f028 <_IO_stdin_used+0x28>
    9413:	48 89 c7             	mov    rdi,rax
    9416:	e8 a5 7c ff ff       	call   10c0 <puts@plt>
    941b:	bf 01 00 00 00       	mov    edi,0x1
    9420:	e8 0b 7d ff ff       	call   1130 <exit@plt>
    9425:	be 72 01 00 00       	mov    esi,0x172
    942a:	48 8d 05 e8 5b 00 00 	lea    rax,[rip+0x5be8]        # f019 <_IO_stdin_used+0x19>
    9431:	48 89 c7             	mov    rdi,rax
    9434:	b8 00 00 00 00       	mov    eax,0x0
    9439:	e8 b2 7c ff ff       	call   10f0 <printf@plt>
    943e:	b8 00 00 00 00       	mov    eax,0x0
    9443:	e8 28 7e ff ff       	call   1270 <get_input>
    9448:	89 45 fc             	mov    DWORD PTR [rbp-0x4],eax
    944b:	81 7d fc 23 02 00 00 	cmp    DWORD PTR [rbp-0x4],0x223
    9452:	0f 84 88 3d 00 00    	je     d1e0 <main+0xbec9>
    9458:	83 7d fc 20          	cmp    DWORD PTR [rbp-0x4],0x20
    945c:	75 05                	jne    9463 <main+0x814c>
    945e:	e9 cc 89 ff ff       	jmp    1e2f <main+0xb18>
    9463:	48 8d 05 be 5b 00 00 	lea    rax,[rip+0x5bbe]        # f028 <_IO_stdin_used+0x28>
    946a:	48 89 c7             	mov    rdi,rax
    946d:	e8 4e 7c ff ff       	call   10c0 <puts@plt>
    9472:	bf 01 00 00 00       	mov    edi,0x1
    9477:	e8 b4 7c ff ff       	call   1130 <exit@plt>
    947c:	be 73 01 00 00       	mov    esi,0x173
    9481:	48 8d 05 91 5b 00 00 	lea    rax,[rip+0x5b91]        # f019 <_IO_stdin_used+0x19>
    9488:	48 89 c7             	mov    rdi,rax
    948b:	b8 00 00 00 00       	mov    eax,0x0
    9490:	e8 5b 7c ff ff       	call   10f0 <printf@plt>
    9495:	b8 00 00 00 00       	mov    eax,0x0
    949a:	e8 d1 7d ff ff       	call   1270 <get_input>
    949f:	89 45 fc             	mov    DWORD PTR [rbp-0x4],eax
    94a2:	81 7d fc c0 00 00 00 	cmp    DWORD PTR [rbp-0x4],0xc0
    94a9:	75 05                	jne    94b0 <main+0x8199>
    94ab:	e9 82 c1 ff ff       	jmp    5632 <main+0x431b>
    94b0:	81 7d fc e3 01 00 00 	cmp    DWORD PTR [rbp-0x4],0x1e3
    94b7:	75 05                	jne    94be <main+0x81a7>
    94b9:	e9 1a 27 00 00       	jmp    bbd8 <main+0xa8c1>
    94be:	48 8d 05 63 5b 00 00 	lea    rax,[rip+0x5b63]        # f028 <_IO_stdin_used+0x28>
    94c5:	48 89 c7             	mov    rdi,rax
    94c8:	e8 f3 7b ff ff       	call   10c0 <puts@plt>
    94cd:	bf 01 00 00 00       	mov    edi,0x1
    94d2:	e8 59 7c ff ff       	call   1130 <exit@plt>
    94d7:	be 74 01 00 00       	mov    esi,0x174
    94dc:	48 8d 05 36 5b 00 00 	lea    rax,[rip+0x5b36]        # f019 <_IO_stdin_used+0x19>
    94e3:	48 89 c7             	mov    rdi,rax
    94e6:	b8 00 00 00 00       	mov    eax,0x0
    94eb:	e8 00 7c ff ff       	call   10f0 <printf@plt>
    94f0:	b8 00 00 00 00       	mov    eax,0x0
    94f5:	e8 76 7d ff ff       	call   1270 <get_input>
    94fa:	89 45 fc             	mov    DWORD PTR [rbp-0x4],eax
    94fd:	81 7d fc fc 00 00 00 	cmp    DWORD PTR [rbp-0x4],0xfc
    9504:	75 05                	jne    950b <main+0x81f4>
    9506:	e9 f8 d5 ff ff       	jmp    6b03 <main+0x57ec>
    950b:	83 7d fc 09          	cmp    DWORD PTR [rbp-0x4],0x9
    950f:	75 05                	jne    9516 <main+0x81ff>
    9511:	e9 fb 80 ff ff       	jmp    1611 <main+0x2fa>
    9516:	81 7d fc ba 00 00 00 	cmp    DWORD PTR [rbp-0x4],0xba
    951d:	75 05                	jne    9524 <main+0x820d>
    951f:	e9 d3 be ff ff       	jmp    53f7 <main+0x40e0>
    9524:	48 8d 05 fd 5a 00 00 	lea    rax,[rip+0x5afd]        # f028 <_IO_stdin_used+0x28>
    952b:	48 89 c7             	mov    rdi,rax
    952e:	e8 8d 7b ff ff       	call   10c0 <puts@plt>
    9533:	bf 01 00 00 00       	mov    edi,0x1
    9538:	e8 f3 7b ff ff       	call   1130 <exit@plt>
    953d:	be 75 01 00 00       	mov    esi,0x175
    9542:	48 8d 05 d0 5a 00 00 	lea    rax,[rip+0x5ad0]        # f019 <_IO_stdin_used+0x19>
    9549:	48 89 c7             	mov    rdi,rax
    954c:	b8 00 00 00 00       	mov    eax,0x0
    9551:	e8 9a 7b ff ff       	call   10f0 <printf@plt>
    9556:	b8 00 00 00 00       	mov    eax,0x0
    955b:	e8 10 7d ff ff       	call   1270 <get_input>
    9560:	89 45 fc             	mov    DWORD PTR [rbp-0x4],eax
    9563:	81 7d fc 5a 02 00 00 	cmp    DWORD PTR [rbp-0x4],0x25a
    956a:	75 05                	jne    9571 <main+0x825a>
    956c:	e9 81 50 00 00       	jmp    e5f2 <main+0xd2db>
    9571:	83 7d fc 10          	cmp    DWORD PTR [rbp-0x4],0x10
    9575:	75 05                	jne    957c <main+0x8265>
    9577:	e9 0b 83 ff ff       	jmp    1887 <main+0x570>
    957c:	48 8d 05 a5 5a 00 00 	lea    rax,[rip+0x5aa5]        # f028 <_IO_stdin_used+0x28>
    9583:	48 89 c7             	mov    rdi,rax
    9586:	e8 35 7b ff ff       	call   10c0 <puts@plt>
    958b:	bf 01 00 00 00       	mov    edi,0x1
    9590:	e8 9b 7b ff ff       	call   1130 <exit@plt>
    9595:	be 76 01 00 00       	mov    esi,0x176
    959a:	48 8d 05 78 5a 00 00 	lea    rax,[rip+0x5a78]        # f019 <_IO_stdin_used+0x19>
    95a1:	48 89 c7             	mov    rdi,rax
    95a4:	b8 00 00 00 00       	mov    eax,0x0
    95a9:	e8 42 7b ff ff       	call   10f0 <printf@plt>
    95ae:	b8 00 00 00 00       	mov    eax,0x0
    95b3:	e8 b8 7c ff ff       	call   1270 <get_input>
    95b8:	89 45 fc             	mov    DWORD PTR [rbp-0x4],eax
    95bb:	81 7d fc 8d 01 00 00 	cmp    DWORD PTR [rbp-0x4],0x18d
    95c2:	75 05                	jne    95c9 <main+0x82b2>
    95c4:	e9 e7 07 00 00       	jmp    9db0 <main+0x8a99>
    95c9:	81 7d fc 8a 00 00 00 	cmp    DWORD PTR [rbp-0x4],0x8a
    95d0:	75 05                	jne    95d7 <main+0x82c0>
    95d2:	e9 52 ad ff ff       	jmp    4329 <main+0x3012>
    95d7:	48 8d 05 4a 5a 00 00 	lea    rax,[rip+0x5a4a]        # f028 <_IO_stdin_used+0x28>
    95de:	48 89 c7             	mov    rdi,rax
    95e1:	e8 da 7a ff ff       	call   10c0 <puts@plt>
    95e6:	bf 01 00 00 00       	mov    edi,0x1
    95eb:	e8 40 7b ff ff       	call   1130 <exit@plt>
    95f0:	be 77 01 00 00       	mov    esi,0x177
    95f5:	48 8d 05 1d 5a 00 00 	lea    rax,[rip+0x5a1d]        # f019 <_IO_stdin_used+0x19>
    95fc:	48 89 c7             	mov    rdi,rax
    95ff:	b8 00 00 00 00       	mov    eax,0x0
    9604:	e8 e7 7a ff ff       	call   10f0 <printf@plt>
    9609:	b8 00 00 00 00       	mov    eax,0x0
    960e:	e8 5d 7c ff ff       	call   1270 <get_input>
    9613:	89 45 fc             	mov    DWORD PTR [rbp-0x4],eax
    9616:	81 7d fc 1f 01 00 00 	cmp    DWORD PTR [rbp-0x4],0x11f
    961d:	75 05                	jne    9624 <main+0x830d>
    961f:	e9 00 e1 ff ff       	jmp    7724 <main+0x640d>
    9624:	83 7d fc 40          	cmp    DWORD PTR [rbp-0x4],0x40
    9628:	75 05                	jne    962f <main+0x8318>
    962a:	e9 a5 92 ff ff       	jmp    28d4 <main+0x15bd>
    962f:	48 8d 05 f2 59 00 00 	lea    rax,[rip+0x59f2]        # f028 <_IO_stdin_used+0x28>
    9636:	48 89 c7             	mov    rdi,rax
    9639:	e8 82 7a ff ff       	call   10c0 <puts@plt>
    963e:	bf 01 00 00 00       	mov    edi,0x1
    9643:	e8 e8 7a ff ff       	call   1130 <exit@plt>
    9648:	90                   	nop
    9649:	be 78 01 00 00       	mov    esi,0x178
    964e:	48 8d 05 c4 59 00 00 	lea    rax,[rip+0x59c4]        # f019 <_IO_stdin_used+0x19>
    9655:	48 89 c7             	mov    rdi,rax
    9658:	b8 00 00 00 00       	mov    eax,0x0
    965d:	e8 8e 7a ff ff       	call   10f0 <printf@plt>
    9662:	b8 00 00 00 00       	mov    eax,0x0
    9667:	e8 04 7c ff ff       	call   1270 <get_input>
    966c:	89 45 fc             	mov    DWORD PTR [rbp-0x4],eax
    966f:	81 7d fc 64 02 00 00 	cmp    DWORD PTR [rbp-0x4],0x264
    9676:	75 05                	jne    967d <main+0x8366>
    9678:	e9 08 53 00 00       	jmp    e985 <main+0xd66e>
    967d:	48 8d 05 a4 59 00 00 	lea    rax,[rip+0x59a4]        # f028 <_IO_stdin_used+0x28>
    9684:	48 89 c7             	mov    rdi,rax
    9687:	e8 34 7a ff ff       	call   10c0 <puts@plt>
    968c:	bf 01 00 00 00       	mov    edi,0x1
    9691:	e8 9a 7a ff ff       	call   1130 <exit@plt>
    9696:	90                   	nop
    9697:	be 79 01 00 00       	mov    esi,0x179
    969c:	48 8d 05 76 59 00 00 	lea    rax,[rip+0x5976]        # f019 <_IO_stdin_used+0x19>
    96a3:	48 89 c7             	mov    rdi,rax
    96a6:	b8 00 00 00 00       	mov    eax,0x0
    96ab:	e8 40 7a ff ff       	call   10f0 <printf@plt>
    96b0:	b8 00 00 00 00       	mov    eax,0x0
    96b5:	e8 b6 7b ff ff       	call   1270 <get_input>
    96ba:	89 45 fc             	mov    DWORD PTR [rbp-0x4],eax
    96bd:	81 7d fc 6c 02 00 00 	cmp    DWORD PTR [rbp-0x4],0x26c
    96c4:	75 05                	jne    96cb <main+0x83b4>
    96c6:	e9 b8 55 00 00       	jmp    ec83 <main+0xd96c>
    96cb:	48 8d 05 56 59 00 00 	lea    rax,[rip+0x5956]        # f028 <_IO_stdin_used+0x28>
    96d2:	48 89 c7             	mov    rdi,rax
    96d5:	e8 e6 79 ff ff       	call   10c0 <puts@plt>
    96da:	bf 01 00 00 00       	mov    edi,0x1
    96df:	e8 4c 7a ff ff       	call   1130 <exit@plt>
    96e4:	be 7a 01 00 00       	mov    esi,0x17a
    96e9:	48 8d 05 29 59 00 00 	lea    rax,[rip+0x5929]        # f019 <_IO_stdin_used+0x19>
    96f0:	48 89 c7             	mov    rdi,rax
    96f3:	b8 00 00 00 00       	mov    eax,0x0
    96f8:	e8 f3 79 ff ff       	call   10f0 <printf@plt>
    96fd:	b8 00 00 00 00       	mov    eax,0x0
    9702:	e8 69 7b ff ff       	call   1270 <get_input>
    9707:	89 45 fc             	mov    DWORD PTR [rbp-0x4],eax
    970a:	81 7d fc ea 01 00 00 	cmp    DWORD PTR [rbp-0x4],0x1ea
    9711:	75 05                	jne    9718 <main+0x8401>
    9713:	e9 29 27 00 00       	jmp    be41 <main+0xab2a>
    9718:	81 7d fc 98 01 00 00 	cmp    DWORD PTR [rbp-0x4],0x198
    971f:	75 05                	jne    9726 <main+0x840f>
    9721:	e9 93 0a 00 00       	jmp    a1b9 <main+0x8ea2>
    9726:	48 8d 05 fb 58 00 00 	lea    rax,[rip+0x58fb]        # f028 <_IO_stdin_used+0x28>
    972d:	48 89 c7             	mov    rdi,rax
    9730:	e8 8b 79 ff ff       	call   10c0 <puts@plt>
    9735:	bf 01 00 00 00       	mov    edi,0x1
    973a:	e8 f1 79 ff ff       	call   1130 <exit@plt>
    973f:	be 7b 01 00 00       	mov    esi,0x17b
    9744:	48 8d 05 ce 58 00 00 	lea    rax,[rip+0x58ce]        # f019 <_IO_stdin_used+0x19>
    974b:	48 89 c7             	mov    rdi,rax
    974e:	b8 00 00 00 00       	mov    eax,0x0
    9753:	e8 98 79 ff ff       	call   10f0 <printf@plt>
    9758:	b8 00 00 00 00       	mov    eax,0x0
    975d:	e8 0e 7b ff ff       	call   1270 <get_input>
    9762:	89 45 fc             	mov    DWORD PTR [rbp-0x4],eax
    9765:	83 7d fc 04          	cmp    DWORD PTR [rbp-0x4],0x4
    9769:	75 05                	jne    9770 <main+0x8459>
    976b:	e9 f4 7c ff ff       	jmp    1464 <main+0x14d>
    9770:	83 7d fc 1f          	cmp    DWORD PTR [rbp-0x4],0x1f
    9774:	0f 84 67 86 ff ff    	je     1de1 <main+0xaca>
    977a:	48 8d 05 a7 58 00 00 	lea    rax,[rip+0x58a7]        # f028 <_IO_stdin_used+0x28>
    9781:	48 89 c7             	mov    rdi,rax
    9784:	e8 37 79 ff ff       	call   10c0 <puts@plt>
    9789:	bf 01 00 00 00       	mov    edi,0x1
    978e:	e8 9d 79 ff ff       	call   1130 <exit@plt>
    9793:	90                   	nop
    9794:	be 7c 01 00 00       	mov    esi,0x17c
    9799:	48 8d 05 79 58 00 00 	lea    rax,[rip+0x5879]        # f019 <_IO_stdin_used+0x19>
    97a0:	48 89 c7             	mov    rdi,rax
    97a3:	b8 00 00 00 00       	mov    eax,0x0
    97a8:	e8 43 79 ff ff       	call   10f0 <printf@plt>
    97ad:	b8 00 00 00 00       	mov    eax,0x0
    97b2:	e8 b9 7a ff ff       	call   1270 <get_input>
    97b7:	89 45 fc             	mov    DWORD PTR [rbp-0x4],eax
    97ba:	81 7d fc 6c 02 00 00 	cmp    DWORD PTR [rbp-0x4],0x26c
    97c1:	75 05                	jne    97c8 <main+0x84b1>
    97c3:	e9 bb 54 00 00       	jmp    ec83 <main+0xd96c>
    97c8:	48 8d 05 59 58 00 00 	lea    rax,[rip+0x5859]        # f028 <_IO_stdin_used+0x28>
    97cf:	48 89 c7             	mov    rdi,rax
    97d2:	e8 e9 78 ff ff       	call   10c0 <puts@plt>
    97d7:	bf 01 00 00 00       	mov    edi,0x1
    97dc:	e8 4f 79 ff ff       	call   1130 <exit@plt>
    97e1:	be 7d 01 00 00       	mov    esi,0x17d
    97e6:	48 8d 05 2c 58 00 00 	lea    rax,[rip+0x582c]        # f019 <_IO_stdin_used+0x19>
    97ed:	48 89 c7             	mov    rdi,rax
    97f0:	b8 00 00 00 00       	mov    eax,0x0
    97f5:	e8 f6 78 ff ff       	call   10f0 <printf@plt>
    97fa:	b8 00 00 00 00       	mov    eax,0x0
    97ff:	e8 6c 7a ff ff       	call   1270 <get_input>
    9804:	89 45 fc             	mov    DWORD PTR [rbp-0x4],eax
    9807:	83 7d fc 42          	cmp    DWORD PTR [rbp-0x4],0x42
    980b:	75 05                	jne    9812 <main+0x84fb>
    980d:	e9 68 91 ff ff       	jmp    297a <main+0x1663>
    9812:	81 7d fc dd 00 00 00 	cmp    DWORD PTR [rbp-0x4],0xdd
    9819:	75 05                	jne    9820 <main+0x8509>
    981b:	e9 05 c8 ff ff       	jmp    6025 <main+0x4d0e>
    9820:	81 7d fc 13 02 00 00 	cmp    DWORD PTR [rbp-0x4],0x213
    9827:	75 05                	jne    982e <main+0x8517>
    9829:	e9 19 34 00 00       	jmp    cc47 <main+0xb930>
    982e:	48 8d 05 f3 57 00 00 	lea    rax,[rip+0x57f3]        # f028 <_IO_stdin_used+0x28>
    9835:	48 89 c7             	mov    rdi,rax
    9838:	e8 83 78 ff ff       	call   10c0 <puts@plt>
    983d:	bf 01 00 00 00       	mov    edi,0x1
    9842:	e8 e9 78 ff ff       	call   1130 <exit@plt>
    9847:	be 7e 01 00 00       	mov    esi,0x17e
    984c:	48 8d 05 c6 57 00 00 	lea    rax,[rip+0x57c6]        # f019 <_IO_stdin_used+0x19>
    9853:	48 89 c7             	mov    rdi,rax
    9856:	b8 00 00 00 00       	mov    eax,0x0
    985b:	e8 90 78 ff ff       	call   10f0 <printf@plt>
    9860:	b8 00 00 00 00       	mov    eax,0x0
    9865:	e8 06 7a ff ff       	call   1270 <get_input>
    986a:	89 45 fc             	mov    DWORD PTR [rbp-0x4],eax
    986d:	81 7d fc 70 01 00 00 	cmp    DWORD PTR [rbp-0x4],0x170
    9874:	75 05                	jne    987b <main+0x8564>
    9876:	e9 e7 fa ff ff       	jmp    9362 <main+0x804b>
    987b:	81 7d fc 8a 00 00 00 	cmp    DWORD PTR [rbp-0x4],0x8a
    9882:	75 05                	jne    9889 <main+0x8572>
    9884:	e9 a0 aa ff ff       	jmp    4329 <main+0x3012>
    9889:	81 7d fc 27 01 00 00 	cmp    DWORD PTR [rbp-0x4],0x127
    9890:	0f 84 47 e1 ff ff    	je     79dd <main+0x66c6>
    9896:	48 8d 05 8b 57 00 00 	lea    rax,[rip+0x578b]        # f028 <_IO_stdin_used+0x28>
    989d:	48 89 c7             	mov    rdi,rax
    98a0:	e8 1b 78 ff ff       	call   10c0 <puts@plt>
    98a5:	bf 01 00 00 00       	mov    edi,0x1
    98aa:	e8 81 78 ff ff       	call   1130 <exit@plt>
    98af:	be 7f 01 00 00       	mov    esi,0x17f
    98b4:	48 8d 05 5e 57 00 00 	lea    rax,[rip+0x575e]        # f019 <_IO_stdin_used+0x19>
    98bb:	48 89 c7             	mov    rdi,rax
    98be:	b8 00 00 00 00       	mov    eax,0x0
    98c3:	e8 28 78 ff ff       	call   10f0 <printf@plt>
    98c8:	b8 00 00 00 00       	mov    eax,0x0
    98cd:	e8 9e 79 ff ff       	call   1270 <get_input>
    98d2:	89 45 fc             	mov    DWORD PTR [rbp-0x4],eax
    98d5:	83 7d fc 70          	cmp    DWORD PTR [rbp-0x4],0x70
    98d9:	75 05                	jne    98e0 <main+0x85c9>
    98db:	e9 1c a1 ff ff       	jmp    39fc <main+0x26e5>
    98e0:	81 7d fc c0 00 00 00 	cmp    DWORD PTR [rbp-0x4],0xc0
    98e7:	75 05                	jne    98ee <main+0x85d7>
    98e9:	e9 44 bd ff ff       	jmp    5632 <main+0x431b>
    98ee:	81 7d fc 19 02 00 00 	cmp    DWORD PTR [rbp-0x4],0x219
    98f5:	75 05                	jne    98fc <main+0x85e5>
    98f7:	e9 5d 35 00 00       	jmp    ce59 <main+0xbb42>
    98fc:	48 8d 05 25 57 00 00 	lea    rax,[rip+0x5725]        # f028 <_IO_stdin_used+0x28>
    9903:	48 89 c7             	mov    rdi,rax
    9906:	e8 b5 77 ff ff       	call   10c0 <puts@plt>
    990b:	bf 01 00 00 00       	mov    edi,0x1
    9910:	e8 1b 78 ff ff       	call   1130 <exit@plt>
    9915:	be 80 01 00 00       	mov    esi,0x180
    991a:	48 8d 05 f8 56 00 00 	lea    rax,[rip+0x56f8]        # f019 <_IO_stdin_used+0x19>
    9921:	48 89 c7             	mov    rdi,rax
    9924:	b8 00 00 00 00       	mov    eax,0x0
    9929:	e8 c2 77 ff ff       	call   10f0 <printf@plt>
    992e:	b8 00 00 00 00       	mov    eax,0x0
    9933:	e8 38 79 ff ff       	call   1270 <get_input>
    9938:	89 45 fc             	mov    DWORD PTR [rbp-0x4],eax
    993b:	81 7d fc b8 01 00 00 	cmp    DWORD PTR [rbp-0x4],0x1b8
    9942:	75 05                	jne    9949 <main+0x8632>
    9944:	e9 9c 13 00 00       	jmp    ace5 <main+0x99ce>
    9949:	81 7d fc 93 00 00 00 	cmp    DWORD PTR [rbp-0x4],0x93
    9950:	0f 84 16 ad ff ff    	je     466c <main+0x3355>
    9956:	81 7d fc e9 00 00 00 	cmp    DWORD PTR [rbp-0x4],0xe9
    995d:	0f 84 e1 ca ff ff    	je     6444 <main+0x512d>
    9963:	81 7d fc 08 01 00 00 	cmp    DWORD PTR [rbp-0x4],0x108
    996a:	75 05                	jne    9971 <main+0x865a>
    996c:	e9 9b d5 ff ff       	jmp    6f0c <main+0x5bf5>
    9971:	48 8d 05 b0 56 00 00 	lea    rax,[rip+0x56b0]        # f028 <_IO_stdin_used+0x28>
    9978:	48 89 c7             	mov    rdi,rax
    997b:	e8 40 77 ff ff       	call   10c0 <puts@plt>
    9980:	bf 01 00 00 00       	mov    edi,0x1
    9985:	e8 a6 77 ff ff       	call   1130 <exit@plt>
    998a:	90                   	nop
    998b:	be 81 01 00 00       	mov    esi,0x181
    9990:	48 8d 05 82 56 00 00 	lea    rax,[rip+0x5682]        # f019 <_IO_stdin_used+0x19>
    9997:	48 89 c7             	mov    rdi,rax
    999a:	b8 00 00 00 00       	mov    eax,0x0
    999f:	e8 4c 77 ff ff       	call   10f0 <printf@plt>
    99a4:	b8 00 00 00 00       	mov    eax,0x0
    99a9:	e8 c2 78 ff ff       	call   1270 <get_input>
    99ae:	89 45 fc             	mov    DWORD PTR [rbp-0x4],eax
    99b1:	83 7d fc 66          	cmp    DWORD PTR [rbp-0x4],0x66
    99b5:	75 05                	jne    99bc <main+0x86a5>
    99b7:	e9 b9 9c ff ff       	jmp    3675 <main+0x235e>
    99bc:	48 8d 05 65 56 00 00 	lea    rax,[rip+0x5665]        # f028 <_IO_stdin_used+0x28>
    99c3:	48 89 c7             	mov    rdi,rax
    99c6:	e8 f5 76 ff ff       	call   10c0 <puts@plt>
    99cb:	bf 01 00 00 00       	mov    edi,0x1
    99d0:	e8 5b 77 ff ff       	call   1130 <exit@plt>
    99d5:	90                   	nop
    99d6:	be 82 01 00 00       	mov    esi,0x182
    99db:	48 8d 05 37 56 00 00 	lea    rax,[rip+0x5637]        # f019 <_IO_stdin_used+0x19>
    99e2:	48 89 c7             	mov    rdi,rax
    99e5:	b8 00 00 00 00       	mov    eax,0x0
    99ea:	e8 01 77 ff ff       	call   10f0 <printf@plt>
    99ef:	b8 00 00 00 00       	mov    eax,0x0
    99f4:	e8 77 78 ff ff       	call   1270 <get_input>
    99f9:	89 45 fc             	mov    DWORD PTR [rbp-0x4],eax
    99fc:	81 7d fc 52 02 00 00 	cmp    DWORD PTR [rbp-0x4],0x252
    9a03:	75 05                	jne    9a0a <main+0x86f3>
    9a05:	e9 17 49 00 00       	jmp    e321 <main+0xd00a>
    9a0a:	48 8d 05 17 56 00 00 	lea    rax,[rip+0x5617]        # f028 <_IO_stdin_used+0x28>
    9a11:	48 89 c7             	mov    rdi,rax
    9a14:	e8 a7 76 ff ff       	call   10c0 <puts@plt>
    9a19:	bf 01 00 00 00       	mov    edi,0x1
    9a1e:	e8 0d 77 ff ff       	call   1130 <exit@plt>
    9a23:	be 83 01 00 00       	mov    esi,0x183
    9a28:	48 8d 05 ea 55 00 00 	lea    rax,[rip+0x55ea]        # f019 <_IO_stdin_used+0x19>
    9a2f:	48 89 c7             	mov    rdi,rax
    9a32:	b8 00 00 00 00       	mov    eax,0x0
    9a37:	e8 b4 76 ff ff       	call   10f0 <printf@plt>
    9a3c:	b8 00 00 00 00       	mov    eax,0x0
    9a41:	e8 2a 78 ff ff       	call   1270 <get_input>
    9a46:	89 45 fc             	mov    DWORD PTR [rbp-0x4],eax
    9a49:	83 7d fc 49          	cmp    DWORD PTR [rbp-0x4],0x49
    9a4d:	75 05                	jne    9a54 <main+0x873d>
    9a4f:	e9 ac 91 ff ff       	jmp    2c00 <main+0x18e9>
    9a54:	81 7d fc 97 00 00 00 	cmp    DWORD PTR [rbp-0x4],0x97
    9a5b:	75 05                	jne    9a62 <main+0x874b>
    9a5d:	e9 64 ad ff ff       	jmp    47c6 <main+0x34af>
    9a62:	48 8d 05 bf 55 00 00 	lea    rax,[rip+0x55bf]        # f028 <_IO_stdin_used+0x28>
    9a69:	48 89 c7             	mov    rdi,rax
    9a6c:	e8 4f 76 ff ff       	call   10c0 <puts@plt>
    9a71:	bf 01 00 00 00       	mov    edi,0x1
    9a76:	e8 b5 76 ff ff       	call   1130 <exit@plt>
    9a7b:	be 84 01 00 00       	mov    esi,0x184
    9a80:	48 8d 05 92 55 00 00 	lea    rax,[rip+0x5592]        # f019 <_IO_stdin_used+0x19>
    9a87:	48 89 c7             	mov    rdi,rax
    9a8a:	b8 00 00 00 00       	mov    eax,0x0
    9a8f:	e8 5c 76 ff ff       	call   10f0 <printf@plt>
    9a94:	b8 00 00 00 00       	mov    eax,0x0
    9a99:	e8 d2 77 ff ff       	call   1270 <get_input>
    9a9e:	89 45 fc             	mov    DWORD PTR [rbp-0x4],eax
    9aa1:	81 7d fc 0a 01 00 00 	cmp    DWORD PTR [rbp-0x4],0x10a
    9aa8:	75 05                	jne    9aaf <main+0x8798>
    9aaa:	e9 13 d5 ff ff       	jmp    6fc2 <main+0x5cab>
    9aaf:	81 7d fc f2 01 00 00 	cmp    DWORD PTR [rbp-0x4],0x1f2
    9ab6:	75 05                	jne    9abd <main+0x87a6>
    9ab8:	e9 45 26 00 00       	jmp    c102 <main+0xadeb>
    9abd:	48 8d 05 64 55 00 00 	lea    rax,[rip+0x5564]        # f028 <_IO_stdin_used+0x28>
    9ac4:	48 89 c7             	mov    rdi,rax
    9ac7:	e8 f4 75 ff ff       	call   10c0 <puts@plt>
    9acc:	bf 01 00 00 00       	mov    edi,0x1
    9ad1:	e8 5a 76 ff ff       	call   1130 <exit@plt>
    9ad6:	be 85 01 00 00       	mov    esi,0x185
    9adb:	48 8d 05 37 55 00 00 	lea    rax,[rip+0x5537]        # f019 <_IO_stdin_used+0x19>
    9ae2:	48 89 c7             	mov    rdi,rax
    9ae5:	b8 00 00 00 00       	mov    eax,0x0
    9aea:	e8 01 76 ff ff       	call   10f0 <printf@plt>
    9aef:	b8 00 00 00 00       	mov    eax,0x0
    9af4:	e8 77 77 ff ff       	call   1270 <get_input>
    9af9:	89 45 fc             	mov    DWORD PTR [rbp-0x4],eax
    9afc:	83 7d fc 6c          	cmp    DWORD PTR [rbp-0x4],0x6c
    9b00:	75 05                	jne    9b07 <main+0x87f0>
    9b02:	e9 87 9d ff ff       	jmp    388e <main+0x2577>
    9b07:	81 7d fc 3e 02 00 00 	cmp    DWORD PTR [rbp-0x4],0x23e
    9b0e:	75 05                	jne    9b15 <main+0x87fe>
    9b10:	e9 b4 40 00 00       	jmp    dbc9 <main+0xc8b2>
    9b15:	48 8d 05 0c 55 00 00 	lea    rax,[rip+0x550c]        # f028 <_IO_stdin_used+0x28>
    9b1c:	48 89 c7             	mov    rdi,rax
    9b1f:	e8 9c 75 ff ff       	call   10c0 <puts@plt>
    9b24:	bf 01 00 00 00       	mov    edi,0x1
    9b29:	e8 02 76 ff ff       	call   1130 <exit@plt>
    9b2e:	be 86 01 00 00       	mov    esi,0x186
    9b33:	48 8d 05 df 54 00 00 	lea    rax,[rip+0x54df]        # f019 <_IO_stdin_used+0x19>
    9b3a:	48 89 c7             	mov    rdi,rax
    9b3d:	b8 00 00 00 00       	mov    eax,0x0
    9b42:	e8 a9 75 ff ff       	call   10f0 <printf@plt>
    9b47:	b8 00 00 00 00       	mov    eax,0x0
    9b4c:	e8 1f 77 ff ff       	call   1270 <get_input>
    9b51:	89 45 fc             	mov    DWORD PTR [rbp-0x4],eax
    9b54:	81 7d fc f6 00 00 00 	cmp    DWORD PTR [rbp-0x4],0xf6
    9b5b:	75 05                	jne    9b62 <main+0x884b>
    9b5d:	e9 62 cd ff ff       	jmp    68c4 <main+0x55ad>
    9b62:	81 7d fc c9 01 00 00 	cmp    DWORD PTR [rbp-0x4],0x1c9
    9b69:	75 05                	jne    9b70 <main+0x8859>
    9b6b:	e9 69 17 00 00       	jmp    b2d9 <main+0x9fc2>
    9b70:	48 8d 05 b1 54 00 00 	lea    rax,[rip+0x54b1]        # f028 <_IO_stdin_used+0x28>
    9b77:	48 89 c7             	mov    rdi,rax
    9b7a:	e8 41 75 ff ff       	call   10c0 <puts@plt>
    9b7f:	bf 01 00 00 00       	mov    edi,0x1
    9b84:	e8 a7 75 ff ff       	call   1130 <exit@plt>
    9b89:	be 87 01 00 00       	mov    esi,0x187
    9b8e:	48 8d 05 84 54 00 00 	lea    rax,[rip+0x5484]        # f019 <_IO_stdin_used+0x19>
    9b95:	48 89 c7             	mov    rdi,rax
    9b98:	b8 00 00 00 00       	mov    eax,0x0
    9b9d:	e8 4e 75 ff ff       	call   10f0 <printf@plt>
    9ba2:	b8 00 00 00 00       	mov    eax,0x0
    9ba7:	e8 c4 76 ff ff       	call   1270 <get_input>
    9bac:	89 45 fc             	mov    DWORD PTR [rbp-0x4],eax
    9baf:	83 7d fc 77          	cmp    DWORD PTR [rbp-0x4],0x77
    9bb3:	75 05                	jne    9bba <main+0x88a3>
    9bb5:	e9 c2 a0 ff ff       	jmp    3c7c <main+0x2965>
    9bba:	81 7d fc 39 02 00 00 	cmp    DWORD PTR [rbp-0x4],0x239
    9bc1:	75 05                	jne    9bc8 <main+0x88b1>
    9bc3:	e9 22 3e 00 00       	jmp    d9ea <main+0xc6d3>
    9bc8:	81 7d fc fa 00 00 00 	cmp    DWORD PTR [rbp-0x4],0xfa
    9bcf:	75 05                	jne    9bd6 <main+0x88bf>
    9bd1:	e9 72 ce ff ff       	jmp    6a48 <main+0x5731>
    9bd6:	48 8d 05 4b 54 00 00 	lea    rax,[rip+0x544b]        # f028 <_IO_stdin_used+0x28>
    9bdd:	48 89 c7             	mov    rdi,rax
    9be0:	e8 db 74 ff ff       	call   10c0 <puts@plt>
    9be5:	bf 01 00 00 00       	mov    edi,0x1
    9bea:	e8 41 75 ff ff       	call   1130 <exit@plt>
    9bef:	90                   	nop
    9bf0:	be 88 01 00 00       	mov    esi,0x188
    9bf5:	48 8d 05 1d 54 00 00 	lea    rax,[rip+0x541d]        # f019 <_IO_stdin_used+0x19>
    9bfc:	48 89 c7             	mov    rdi,rax
    9bff:	b8 00 00 00 00       	mov    eax,0x0
    9c04:	e8 e7 74 ff ff       	call   10f0 <printf@plt>
    9c09:	b8 00 00 00 00       	mov    eax,0x0
    9c0e:	e8 5d 76 ff ff       	call   1270 <get_input>
    9c13:	89 45 fc             	mov    DWORD PTR [rbp-0x4],eax
    9c16:	81 7d fc e3 01 00 00 	cmp    DWORD PTR [rbp-0x4],0x1e3
    9c1d:	75 05                	jne    9c24 <main+0x890d>
    9c1f:	e9 b4 1f 00 00       	jmp    bbd8 <main+0xa8c1>
    9c24:	48 8d 05 fd 53 00 00 	lea    rax,[rip+0x53fd]        # f028 <_IO_stdin_used+0x28>
    9c2b:	48 89 c7             	mov    rdi,rax
    9c2e:	e8 8d 74 ff ff       	call   10c0 <puts@plt>
    9c33:	bf 01 00 00 00       	mov    edi,0x1
    9c38:	e8 f3 74 ff ff       	call   1130 <exit@plt>
    9c3d:	be 89 01 00 00       	mov    esi,0x189
    9c42:	48 8d 05 d0 53 00 00 	lea    rax,[rip+0x53d0]        # f019 <_IO_stdin_used+0x19>
    9c49:	48 89 c7             	mov    rdi,rax
    9c4c:	b8 00 00 00 00       	mov    eax,0x0
    9c51:	e8 9a 74 ff ff       	call   10f0 <printf@plt>
    9c56:	b8 00 00 00 00       	mov    eax,0x0
    9c5b:	e8 10 76 ff ff       	call   1270 <get_input>
    9c60:	89 45 fc             	mov    DWORD PTR [rbp-0x4],eax
    9c63:	81 7d fc 5c 01 00 00 	cmp    DWORD PTR [rbp-0x4],0x15c
    9c6a:	75 05                	jne    9c71 <main+0x895a>
    9c6c:	e9 15 f0 ff ff       	jmp    8c86 <main+0x796f>
    9c71:	81 7d fc d8 01 00 00 	cmp    DWORD PTR [rbp-0x4],0x1d8
    9c78:	75 05                	jne    9c7f <main+0x8968>
    9c7a:	e9 a7 1b 00 00       	jmp    b826 <main+0xa50f>
    9c7f:	48 8d 05 a2 53 00 00 	lea    rax,[rip+0x53a2]        # f028 <_IO_stdin_used+0x28>
    9c86:	48 89 c7             	mov    rdi,rax
    9c89:	e8 32 74 ff ff       	call   10c0 <puts@plt>
    9c8e:	bf 01 00 00 00       	mov    edi,0x1
    9c93:	e8 98 74 ff ff       	call   1130 <exit@plt>
    9c98:	be 8a 01 00 00       	mov    esi,0x18a
    9c9d:	48 8d 05 75 53 00 00 	lea    rax,[rip+0x5375]        # f019 <_IO_stdin_used+0x19>
    9ca4:	48 89 c7             	mov    rdi,rax
    9ca7:	b8 00 00 00 00       	mov    eax,0x0
    9cac:	e8 3f 74 ff ff       	call   10f0 <printf@plt>
    9cb1:	b8 00 00 00 00       	mov    eax,0x0
    9cb6:	e8 b5 75 ff ff       	call   1270 <get_input>
    9cbb:	89 45 fc             	mov    DWORD PTR [rbp-0x4],eax
    9cbe:	81 7d fc c4 00 00 00 	cmp    DWORD PTR [rbp-0x4],0xc4
    9cc5:	75 05                	jne    9ccc <main+0x89b5>
    9cc7:	e9 bf ba ff ff       	jmp    578b <main+0x4474>
    9ccc:	83 7d fc 20          	cmp    DWORD PTR [rbp-0x4],0x20
    9cd0:	75 05                	jne    9cd7 <main+0x89c0>
    9cd2:	e9 58 81 ff ff       	jmp    1e2f <main+0xb18>
    9cd7:	48 8d 05 4a 53 00 00 	lea    rax,[rip+0x534a]        # f028 <_IO_stdin_used+0x28>
    9cde:	48 89 c7             	mov    rdi,rax
    9ce1:	e8 da 73 ff ff       	call   10c0 <puts@plt>
    9ce6:	bf 01 00 00 00       	mov    edi,0x1
    9ceb:	e8 40 74 ff ff       	call   1130 <exit@plt>
    9cf0:	be 8b 01 00 00       	mov    esi,0x18b
    9cf5:	48 8d 05 1d 53 00 00 	lea    rax,[rip+0x531d]        # f019 <_IO_stdin_used+0x19>
    9cfc:	48 89 c7             	mov    rdi,rax
    9cff:	b8 00 00 00 00       	mov    eax,0x0
    9d04:	e8 e7 73 ff ff       	call   10f0 <printf@plt>
    9d09:	b8 00 00 00 00       	mov    eax,0x0
    9d0e:	e8 5d 75 ff ff       	call   1270 <get_input>
    9d13:	89 45 fc             	mov    DWORD PTR [rbp-0x4],eax
    9d16:	81 7d fc 2e 01 00 00 	cmp    DWORD PTR [rbp-0x4],0x12e
    9d1d:	75 05                	jne    9d24 <main+0x8a0d>
    9d1f:	e9 ff de ff ff       	jmp    7c23 <main+0x690c>
    9d24:	83 7d fc 2d          	cmp    DWORD PTR [rbp-0x4],0x2d
    9d28:	0f 84 67 85 ff ff    	je     2295 <main+0xf7e>
    9d2e:	81 7d fc 0b 02 00 00 	cmp    DWORD PTR [rbp-0x4],0x20b
    9d35:	0f 84 32 2c 00 00    	je     c96d <main+0xb656>
    9d3b:	81 7d fc 38 01 00 00 	cmp    DWORD PTR [rbp-0x4],0x138
    9d42:	75 05                	jne    9d49 <main+0x8a32>
    9d44:	e9 8d e2 ff ff       	jmp    7fd6 <main+0x6cbf>
    9d49:	48 8d 05 d8 52 00 00 	lea    rax,[rip+0x52d8]        # f028 <_IO_stdin_used+0x28>
    9d50:	48 89 c7             	mov    rdi,rax
    9d53:	e8 68 73 ff ff       	call   10c0 <puts@plt>
    9d58:	bf 01 00 00 00       	mov    edi,0x1
    9d5d:	e8 ce 73 ff ff       	call   1130 <exit@plt>
    9d62:	90                   	nop
    9d63:	be 8c 01 00 00       	mov    esi,0x18c
    9d68:	48 8d 05 aa 52 00 00 	lea    rax,[rip+0x52aa]        # f019 <_IO_stdin_used+0x19>
    9d6f:	48 89 c7             	mov    rdi,rax
    9d72:	b8 00 00 00 00       	mov    eax,0x0
    9d77:	e8 74 73 ff ff       	call   10f0 <printf@plt>
    9d7c:	b8 00 00 00 00       	mov    eax,0x0
    9d81:	e8 ea 74 ff ff       	call   1270 <get_input>
    9d86:	89 45 fc             	mov    DWORD PTR [rbp-0x4],eax
    9d89:	81 7d fc 0a 01 00 00 	cmp    DWORD PTR [rbp-0x4],0x10a
    9d90:	75 05                	jne    9d97 <main+0x8a80>
    9d92:	e9 2b d2 ff ff       	jmp    6fc2 <main+0x5cab>
    9d97:	48 8d 05 8a 52 00 00 	lea    rax,[rip+0x528a]        # f028 <_IO_stdin_used+0x28>
    9d9e:	48 89 c7             	mov    rdi,rax
    9da1:	e8 1a 73 ff ff       	call   10c0 <puts@plt>
    9da6:	bf 01 00 00 00       	mov    edi,0x1
    9dab:	e8 80 73 ff ff       	call   1130 <exit@plt>
    9db0:	be 8d 01 00 00       	mov    esi,0x18d
    9db5:	48 8d 05 5d 52 00 00 	lea    rax,[rip+0x525d]        # f019 <_IO_stdin_used+0x19>
    9dbc:	48 89 c7             	mov    rdi,rax
    9dbf:	b8 00 00 00 00       	mov    eax,0x0
    9dc4:	e8 27 73 ff ff       	call   10f0 <printf@plt>
    9dc9:	b8 00 00 00 00       	mov    eax,0x0
    9dce:	e8 9d 74 ff ff       	call   1270 <get_input>
    9dd3:	89 45 fc             	mov    DWORD PTR [rbp-0x4],eax
    9dd6:	81 7d fc bd 00 00 00 	cmp    DWORD PTR [rbp-0x4],0xbd
    9ddd:	75 05                	jne    9de4 <main+0x8acd>
    9ddf:	e9 20 b7 ff ff       	jmp    5504 <main+0x41ed>
    9de4:	81 7d fc f6 01 00 00 	cmp    DWORD PTR [rbp-0x4],0x1f6
    9deb:	75 05                	jne    9df2 <main+0x8adb>
    9ded:	e9 69 24 00 00       	jmp    c25b <main+0xaf44>
    9df2:	81 7d fc 76 01 00 00 	cmp    DWORD PTR [rbp-0x4],0x176
    9df9:	75 05                	jne    9e00 <main+0x8ae9>
    9dfb:	e9 95 f7 ff ff       	jmp    9595 <main+0x827e>
    9e00:	48 8d 05 21 52 00 00 	lea    rax,[rip+0x5221]        # f028 <_IO_stdin_used+0x28>
    9e07:	48 89 c7             	mov    rdi,rax
    9e0a:	e8 b1 72 ff ff       	call   10c0 <puts@plt>
    9e0f:	bf 01 00 00 00       	mov    edi,0x1
    9e14:	e8 17 73 ff ff       	call   1130 <exit@plt>
    9e19:	be 8e 01 00 00       	mov    esi,0x18e
    9e1e:	48 8d 05 f4 51 00 00 	lea    rax,[rip+0x51f4]        # f019 <_IO_stdin_used+0x19>
    9e25:	48 89 c7             	mov    rdi,rax
    9e28:	b8 00 00 00 00       	mov    eax,0x0
    9e2d:	e8 be 72 ff ff       	call   10f0 <printf@plt>
    9e32:	b8 00 00 00 00       	mov    eax,0x0
    9e37:	e8 34 74 ff ff       	call   1270 <get_input>
    9e3c:	89 45 fc             	mov    DWORD PTR [rbp-0x4],eax
    9e3f:	83 7d fc 78          	cmp    DWORD PTR [rbp-0x4],0x78
    9e43:	75 05                	jne    9e4a <main+0x8b33>
    9e45:	e9 98 9e ff ff       	jmp    3ce2 <main+0x29cb>
    9e4a:	81 7d fc 17 01 00 00 	cmp    DWORD PTR [rbp-0x4],0x117
    9e51:	75 05                	jne    9e58 <main+0x8b41>
    9e53:	e9 f2 d5 ff ff       	jmp    744a <main+0x6133>
    9e58:	81 7d fc 68 02 00 00 	cmp    DWORD PTR [rbp-0x4],0x268
    9e5f:	75 05                	jne    9e66 <main+0x8b4f>
    9e61:	e9 b6 4c 00 00       	jmp    eb1c <main+0xd805>
    9e66:	48 8d 05 bb 51 00 00 	lea    rax,[rip+0x51bb]        # f028 <_IO_stdin_used+0x28>
    9e6d:	48 89 c7             	mov    rdi,rax
    9e70:	e8 4b 72 ff ff       	call   10c0 <puts@plt>
    9e75:	bf 01 00 00 00       	mov    edi,0x1
    9e7a:	e8 b1 72 ff ff       	call   1130 <exit@plt>
    9e7f:	be 8f 01 00 00       	mov    esi,0x18f
    9e84:	48 8d 05 8e 51 00 00 	lea    rax,[rip+0x518e]        # f019 <_IO_stdin_used+0x19>
    9e8b:	48 89 c7             	mov    rdi,rax
    9e8e:	b8 00 00 00 00       	mov    eax,0x0
    9e93:	e8 58 72 ff ff       	call   10f0 <printf@plt>
    9e98:	b8 00 00 00 00       	mov    eax,0x0
    9e9d:	e8 ce 73 ff ff       	call   1270 <get_input>
    9ea2:	89 45 fc             	mov    DWORD PTR [rbp-0x4],eax
    9ea5:	81 7d fc a1 00 00 00 	cmp    DWORD PTR [rbp-0x4],0xa1
    9eac:	75 05                	jne    9eb3 <main+0x8b9c>
    9eae:	e9 a4 ac ff ff       	jmp    4b57 <main+0x3840>
    9eb3:	83 7d fc 0c          	cmp    DWORD PTR [rbp-0x4],0xc
    9eb7:	75 05                	jne    9ebe <main+0x8ba7>
    9eb9:	e9 6e 78 ff ff       	jmp    172c <main+0x415>
    9ebe:	81 7d fc bf 01 00 00 	cmp    DWORD PTR [rbp-0x4],0x1bf
    9ec5:	0f 84 8e 10 00 00    	je     af59 <main+0x9c42>
    9ecb:	48 8d 05 56 51 00 00 	lea    rax,[rip+0x5156]        # f028 <_IO_stdin_used+0x28>
    9ed2:	48 89 c7             	mov    rdi,rax
    9ed5:	e8 e6 71 ff ff       	call   10c0 <puts@plt>
    9eda:	bf 01 00 00 00       	mov    edi,0x1
    9edf:	e8 4c 72 ff ff       	call   1130 <exit@plt>
    9ee4:	90                   	nop
    9ee5:	be 90 01 00 00       	mov    esi,0x190
    9eea:	48 8d 05 28 51 00 00 	lea    rax,[rip+0x5128]        # f019 <_IO_stdin_used+0x19>
    9ef1:	48 89 c7             	mov    rdi,rax
    9ef4:	b8 00 00 00 00       	mov    eax,0x0
    9ef9:	e8 f2 71 ff ff       	call   10f0 <printf@plt>
    9efe:	b8 00 00 00 00       	mov    eax,0x0
    9f03:	e8 68 73 ff ff       	call   1270 <get_input>
    9f08:	89 45 fc             	mov    DWORD PTR [rbp-0x4],eax
    9f0b:	83 7d fc 4e          	cmp    DWORD PTR [rbp-0x4],0x4e
    9f0f:	75 05                	jne    9f16 <main+0x8bff>
    9f11:	e9 dc 8e ff ff       	jmp    2df2 <main+0x1adb>
    9f16:	48 8d 05 0b 51 00 00 	lea    rax,[rip+0x510b]        # f028 <_IO_stdin_used+0x28>
    9f1d:	48 89 c7             	mov    rdi,rax
    9f20:	e8 9b 71 ff ff       	call   10c0 <puts@plt>
    9f25:	bf 01 00 00 00       	mov    edi,0x1
    9f2a:	e8 01 72 ff ff       	call   1130 <exit@plt>
    9f2f:	be 91 01 00 00       	mov    esi,0x191
    9f34:	48 8d 05 de 50 00 00 	lea    rax,[rip+0x50de]        # f019 <_IO_stdin_used+0x19>
    9f3b:	48 89 c7             	mov    rdi,rax
    9f3e:	b8 00 00 00 00       	mov    eax,0x0
    9f43:	e8 a8 71 ff ff       	call   10f0 <printf@plt>
    9f48:	b8 00 00 00 00       	mov    eax,0x0
    9f4d:	e8 1e 73 ff ff       	call   1270 <get_input>
    9f52:	89 45 fc             	mov    DWORD PTR [rbp-0x4],eax
    9f55:	81 7d fc 2a 02 00 00 	cmp    DWORD PTR [rbp-0x4],0x22a
    9f5c:	75 05                	jne    9f63 <main+0x8c4c>
    9f5e:	e9 cf 34 00 00       	jmp    d432 <main+0xc11b>
    9f63:	83 7d fc 5a          	cmp    DWORD PTR [rbp-0x4],0x5a
    9f67:	75 05                	jne    9f6e <main+0x8c57>
    9f69:	e9 c9 92 ff ff       	jmp    3237 <main+0x1f20>
    9f6e:	48 8d 05 b3 50 00 00 	lea    rax,[rip+0x50b3]        # f028 <_IO_stdin_used+0x28>
    9f75:	48 89 c7             	mov    rdi,rax
    9f78:	e8 43 71 ff ff       	call   10c0 <puts@plt>
    9f7d:	bf 01 00 00 00       	mov    edi,0x1
    9f82:	e8 a9 71 ff ff       	call   1130 <exit@plt>
    9f87:	be 92 01 00 00       	mov    esi,0x192
    9f8c:	48 8d 05 86 50 00 00 	lea    rax,[rip+0x5086]        # f019 <_IO_stdin_used+0x19>
    9f93:	48 89 c7             	mov    rdi,rax
    9f96:	b8 00 00 00 00       	mov    eax,0x0
    9f9b:	e8 50 71 ff ff       	call   10f0 <printf@plt>
    9fa0:	b8 00 00 00 00       	mov    eax,0x0
    9fa5:	e8 c6 72 ff ff       	call   1270 <get_input>
    9faa:	89 45 fc             	mov    DWORD PTR [rbp-0x4],eax
    9fad:	81 7d fc 68 01 00 00 	cmp    DWORD PTR [rbp-0x4],0x168
    9fb4:	75 05                	jne    9fbb <main+0x8ca4>
    9fb6:	e9 eb f0 ff ff       	jmp    90a6 <main+0x7d8f>
    9fbb:	81 7d fc cf 00 00 00 	cmp    DWORD PTR [rbp-0x4],0xcf
    9fc2:	75 05                	jne    9fc9 <main+0x8cb2>
    9fc4:	e9 7c bb ff ff       	jmp    5b45 <main+0x482e>
    9fc9:	81 7d fc 24 02 00 00 	cmp    DWORD PTR [rbp-0x4],0x224
    9fd0:	75 05                	jne    9fd7 <main+0x8cc0>
    9fd2:	e9 57 32 00 00       	jmp    d22e <main+0xbf17>
    9fd7:	48 8d 05 4a 50 00 00 	lea    rax,[rip+0x504a]        # f028 <_IO_stdin_used+0x28>
    9fde:	48 89 c7             	mov    rdi,rax
    9fe1:	e8 da 70 ff ff       	call   10c0 <puts@plt>
    9fe6:	bf 01 00 00 00       	mov    edi,0x1
    9feb:	e8 40 71 ff ff       	call   1130 <exit@plt>
    9ff0:	90                   	nop
    9ff1:	be 93 01 00 00       	mov    esi,0x193
    9ff6:	48 8d 05 1c 50 00 00 	lea    rax,[rip+0x501c]        # f019 <_IO_stdin_used+0x19>
    9ffd:	48 89 c7             	mov    rdi,rax
    a000:	b8 00 00 00 00       	mov    eax,0x0
    a005:	e8 e6 70 ff ff       	call   10f0 <printf@plt>
    a00a:	b8 00 00 00 00       	mov    eax,0x0
    a00f:	e8 5c 72 ff ff       	call   1270 <get_input>
    a014:	89 45 fc             	mov    DWORD PTR [rbp-0x4],eax
    a017:	81 7d fc e2 01 00 00 	cmp    DWORD PTR [rbp-0x4],0x1e2
    a01e:	75 05                	jne    a025 <main+0x8d0e>
    a020:	e9 59 1b 00 00       	jmp    bb7e <main+0xa867>
    a025:	48 8d 05 fc 4f 00 00 	lea    rax,[rip+0x4ffc]        # f028 <_IO_stdin_used+0x28>
    a02c:	48 89 c7             	mov    rdi,rax
    a02f:	e8 8c 70 ff ff       	call   10c0 <puts@plt>
    a034:	bf 01 00 00 00       	mov    edi,0x1
    a039:	e8 f2 70 ff ff       	call   1130 <exit@plt>
    a03e:	be 94 01 00 00       	mov    esi,0x194
    a043:	48 8d 05 cf 4f 00 00 	lea    rax,[rip+0x4fcf]        # f019 <_IO_stdin_used+0x19>
    a04a:	48 89 c7             	mov    rdi,rax
    a04d:	b8 00 00 00 00       	mov    eax,0x0
    a052:	e8 99 70 ff ff       	call   10f0 <printf@plt>
    a057:	b8 00 00 00 00       	mov    eax,0x0
    a05c:	e8 0f 72 ff ff       	call   1270 <get_input>
    a061:	89 45 fc             	mov    DWORD PTR [rbp-0x4],eax
    a064:	81 7d fc 4f 01 00 00 	cmp    DWORD PTR [rbp-0x4],0x14f
    a06b:	75 05                	jne    a072 <main+0x8d5b>
    a06d:	e9 a3 e7 ff ff       	jmp    8815 <main+0x74fe>
    a072:	83 7d fc 3d          	cmp    DWORD PTR [rbp-0x4],0x3d
    a076:	75 05                	jne    a07d <main+0x8d66>
    a078:	e9 4a 87 ff ff       	jmp    27c7 <main+0x14b0>
    a07d:	48 8d 05 a4 4f 00 00 	lea    rax,[rip+0x4fa4]        # f028 <_IO_stdin_used+0x28>
    a084:	48 89 c7             	mov    rdi,rax
    a087:	e8 34 70 ff ff       	call   10c0 <puts@plt>
    a08c:	bf 01 00 00 00       	mov    edi,0x1
    a091:	e8 9a 70 ff ff       	call   1130 <exit@plt>
    a096:	be 95 01 00 00       	mov    esi,0x195
    a09b:	48 8d 05 77 4f 00 00 	lea    rax,[rip+0x4f77]        # f019 <_IO_stdin_used+0x19>
    a0a2:	48 89 c7             	mov    rdi,rax
    a0a5:	b8 00 00 00 00       	mov    eax,0x0
    a0aa:	e8 41 70 ff ff       	call   10f0 <printf@plt>
    a0af:	b8 00 00 00 00       	mov    eax,0x0
    a0b4:	e8 b7 71 ff ff       	call   1270 <get_input>
    a0b9:	89 45 fc             	mov    DWORD PTR [rbp-0x4],eax
    a0bc:	81 7d fc 5e 02 00 00 	cmp    DWORD PTR [rbp-0x4],0x25e
    a0c3:	75 05                	jne    a0ca <main+0x8db3>
    a0c5:	e9 a0 46 00 00       	jmp    e76a <main+0xd453>
    a0ca:	83 7d fc 51          	cmp    DWORD PTR [rbp-0x4],0x51
    a0ce:	0f 84 39 8e ff ff    	je     2f0d <main+0x1bf6>
    a0d4:	81 7d fc 9d 01 00 00 	cmp    DWORD PTR [rbp-0x4],0x19d
    a0db:	75 05                	jne    a0e2 <main+0x8dcb>
    a0dd:	e9 ab 02 00 00       	jmp    a38d <main+0x9076>
    a0e2:	48 8d 05 3f 4f 00 00 	lea    rax,[rip+0x4f3f]        # f028 <_IO_stdin_used+0x28>
    a0e9:	48 89 c7             	mov    rdi,rax
    a0ec:	e8 cf 6f ff ff       	call   10c0 <puts@plt>
    a0f1:	bf 01 00 00 00       	mov    edi,0x1
    a0f6:	e8 35 70 ff ff       	call   1130 <exit@plt>
    a0fb:	be 96 01 00 00       	mov    esi,0x196
    a100:	48 8d 05 12 4f 00 00 	lea    rax,[rip+0x4f12]        # f019 <_IO_stdin_used+0x19>
    a107:	48 89 c7             	mov    rdi,rax
    a10a:	b8 00 00 00 00       	mov    eax,0x0
    a10f:	e8 dc 6f ff ff       	call   10f0 <printf@plt>
    a114:	b8 00 00 00 00       	mov    eax,0x0
    a119:	e8 52 71 ff ff       	call   1270 <get_input>
    a11e:	89 45 fc             	mov    DWORD PTR [rbp-0x4],eax
    a121:	81 7d fc 9c 01 00 00 	cmp    DWORD PTR [rbp-0x4],0x19c
    a128:	75 05                	jne    a12f <main+0x8e18>
    a12a:	e9 f6 01 00 00       	jmp    a325 <main+0x900e>
    a12f:	81 7d fc bc 00 00 00 	cmp    DWORD PTR [rbp-0x4],0xbc
    a136:	75 05                	jne    a13d <main+0x8e26>
    a138:	e9 6c b3 ff ff       	jmp    54a9 <main+0x4192>
    a13d:	48 8d 05 e4 4e 00 00 	lea    rax,[rip+0x4ee4]        # f028 <_IO_stdin_used+0x28>
    a144:	48 89 c7             	mov    rdi,rax
    a147:	e8 74 6f ff ff       	call   10c0 <puts@plt>
    a14c:	bf 01 00 00 00       	mov    edi,0x1
    a151:	e8 da 6f ff ff       	call   1130 <exit@plt>
    a156:	be 97 01 00 00       	mov    esi,0x197
    a15b:	48 8d 05 b7 4e 00 00 	lea    rax,[rip+0x4eb7]        # f019 <_IO_stdin_used+0x19>
    a162:	48 89 c7             	mov    rdi,rax
    a165:	b8 00 00 00 00       	mov    eax,0x0
    a16a:	e8 81 6f ff ff       	call   10f0 <printf@plt>
    a16f:	b8 00 00 00 00       	mov    eax,0x0
    a174:	e8 f7 70 ff ff       	call   1270 <get_input>
    a179:	89 45 fc             	mov    DWORD PTR [rbp-0x4],eax
    a17c:	83 7d fc 47          	cmp    DWORD PTR [rbp-0x4],0x47
    a180:	75 05                	jne    a187 <main+0x8e70>
    a182:	e9 c3 89 ff ff       	jmp    2b4a <main+0x1833>
    a187:	81 7d fc f0 01 00 00 	cmp    DWORD PTR [rbp-0x4],0x1f0
    a18e:	75 05                	jne    a195 <main+0x8e7e>
    a190:	e9 c5 1e 00 00       	jmp    c05a <main+0xad43>
    a195:	83 7d fc 4e          	cmp    DWORD PTR [rbp-0x4],0x4e
    a199:	75 05                	jne    a1a0 <main+0x8e89>
    a19b:	e9 52 8c ff ff       	jmp    2df2 <main+0x1adb>
    a1a0:	48 8d 05 81 4e 00 00 	lea    rax,[rip+0x4e81]        # f028 <_IO_stdin_used+0x28>
    a1a7:	48 89 c7             	mov    rdi,rax
    a1aa:	e8 11 6f ff ff       	call   10c0 <puts@plt>
    a1af:	bf 01 00 00 00       	mov    edi,0x1
    a1b4:	e8 77 6f ff ff       	call   1130 <exit@plt>
    a1b9:	be 98 01 00 00       	mov    esi,0x198
    a1be:	48 8d 05 54 4e 00 00 	lea    rax,[rip+0x4e54]        # f019 <_IO_stdin_used+0x19>
    a1c5:	48 89 c7             	mov    rdi,rax
    a1c8:	b8 00 00 00 00       	mov    eax,0x0
    a1cd:	e8 1e 6f ff ff       	call   10f0 <printf@plt>
    a1d2:	b8 00 00 00 00       	mov    eax,0x0
    a1d7:	e8 94 70 ff ff       	call   1270 <get_input>
    a1dc:	89 45 fc             	mov    DWORD PTR [rbp-0x4],eax
    a1df:	81 7d fc 7a 01 00 00 	cmp    DWORD PTR [rbp-0x4],0x17a
    a1e6:	75 05                	jne    a1ed <main+0x8ed6>
    a1e8:	e9 f7 f4 ff ff       	jmp    96e4 <main+0x83cd>
    a1ed:	81 7d fc 06 02 00 00 	cmp    DWORD PTR [rbp-0x4],0x206
    a1f4:	75 05                	jne    a1fb <main+0x8ee4>
    a1f6:	e9 af 25 00 00       	jmp    c7aa <main+0xb493>
    a1fb:	81 7d fc 36 01 00 00 	cmp    DWORD PTR [rbp-0x4],0x136
    a202:	0f 84 17 dd ff ff    	je     7f1f <main+0x6c08>
    a208:	48 8d 05 19 4e 00 00 	lea    rax,[rip+0x4e19]        # f028 <_IO_stdin_used+0x28>
    a20f:	48 89 c7             	mov    rdi,rax
    a212:	e8 a9 6e ff ff       	call   10c0 <puts@plt>
    a217:	bf 01 00 00 00       	mov    edi,0x1
    a21c:	e8 0f 6f ff ff       	call   1130 <exit@plt>
    a221:	90                   	nop
    a222:	be 99 01 00 00       	mov    esi,0x199
    a227:	48 8d 05 eb 4d 00 00 	lea    rax,[rip+0x4deb]        # f019 <_IO_stdin_used+0x19>
    a22e:	48 89 c7             	mov    rdi,rax
    a231:	b8 00 00 00 00       	mov    eax,0x0
    a236:	e8 b5 6e ff ff       	call   10f0 <printf@plt>
    a23b:	b8 00 00 00 00       	mov    eax,0x0
    a240:	e8 2b 70 ff ff       	call   1270 <get_input>
    a245:	89 45 fc             	mov    DWORD PTR [rbp-0x4],eax
    a248:	81 7d fc 08 02 00 00 	cmp    DWORD PTR [rbp-0x4],0x208
    a24f:	75 05                	jne    a256 <main+0x8f3f>
    a251:	e9 08 26 00 00       	jmp    c85e <main+0xb547>
    a256:	48 8d 05 cb 4d 00 00 	lea    rax,[rip+0x4dcb]        # f028 <_IO_stdin_used+0x28>
    a25d:	48 89 c7             	mov    rdi,rax
    a260:	e8 5b 6e ff ff       	call   10c0 <puts@plt>
    a265:	bf 01 00 00 00       	mov    edi,0x1
    a26a:	e8 c1 6e ff ff       	call   1130 <exit@plt>
    a26f:	90                   	nop
    a270:	be 9a 01 00 00       	mov    esi,0x19a
    a275:	48 8d 05 9d 4d 00 00 	lea    rax,[rip+0x4d9d]        # f019 <_IO_stdin_used+0x19>
    a27c:	48 89 c7             	mov    rdi,rax
    a27f:	b8 00 00 00 00       	mov    eax,0x0
    a284:	e8 67 6e ff ff       	call   10f0 <printf@plt>
    a289:	b8 00 00 00 00       	mov    eax,0x0
    a28e:	e8 dd 6f ff ff       	call   1270 <get_input>
    a293:	89 45 fc             	mov    DWORD PTR [rbp-0x4],eax
    a296:	81 7d fc cd 01 00 00 	cmp    DWORD PTR [rbp-0x4],0x1cd
    a29d:	75 05                	jne    a2a4 <main+0x8f8d>
    a29f:	e9 93 11 00 00       	jmp    b437 <main+0xa120>
    a2a4:	48 8d 05 7d 4d 00 00 	lea    rax,[rip+0x4d7d]        # f028 <_IO_stdin_used+0x28>
    a2ab:	48 89 c7             	mov    rdi,rax
    a2ae:	e8 0d 6e ff ff       	call   10c0 <puts@plt>
    a2b3:	bf 01 00 00 00       	mov    edi,0x1
    a2b8:	e8 73 6e ff ff       	call   1130 <exit@plt>
    a2bd:	be 9b 01 00 00       	mov    esi,0x19b
    a2c2:	48 8d 05 50 4d 00 00 	lea    rax,[rip+0x4d50]        # f019 <_IO_stdin_used+0x19>
    a2c9:	48 89 c7             	mov    rdi,rax
    a2cc:	b8 00 00 00 00       	mov    eax,0x0
    a2d1:	e8 1a 6e ff ff       	call   10f0 <printf@plt>
    a2d6:	b8 00 00 00 00       	mov    eax,0x0
    a2db:	e8 90 6f ff ff       	call   1270 <get_input>
    a2e0:	89 45 fc             	mov    DWORD PTR [rbp-0x4],eax
    a2e3:	81 7d fc 0b 01 00 00 	cmp    DWORD PTR [rbp-0x4],0x10b
    a2ea:	0f 84 3a cd ff ff    	je     702a <main+0x5d13>
    a2f0:	81 7d fc 52 02 00 00 	cmp    DWORD PTR [rbp-0x4],0x252
    a2f7:	75 05                	jne    a2fe <main+0x8fe7>
    a2f9:	e9 23 40 00 00       	jmp    e321 <main+0xd00a>
    a2fe:	81 7d fc 1c 02 00 00 	cmp    DWORD PTR [rbp-0x4],0x21c
    a305:	75 05                	jne    a30c <main+0x8ff5>
    a307:	e9 44 2c 00 00       	jmp    cf50 <main+0xbc39>
    a30c:	48 8d 05 15 4d 00 00 	lea    rax,[rip+0x4d15]        # f028 <_IO_stdin_used+0x28>
    a313:	48 89 c7             	mov    rdi,rax
    a316:	e8 a5 6d ff ff       	call   10c0 <puts@plt>
    a31b:	bf 01 00 00 00       	mov    edi,0x1
    a320:	e8 0b 6e ff ff       	call   1130 <exit@plt>
    a325:	be 9c 01 00 00       	mov    esi,0x19c
    a32a:	48 8d 05 e8 4c 00 00 	lea    rax,[rip+0x4ce8]        # f019 <_IO_stdin_used+0x19>
    a331:	48 89 c7             	mov    rdi,rax
    a334:	b8 00 00 00 00       	mov    eax,0x0
    a339:	e8 b2 6d ff ff       	call   10f0 <printf@plt>
    a33e:	b8 00 00 00 00       	mov    eax,0x0
    a343:	e8 28 6f ff ff       	call   1270 <get_input>
    a348:	89 45 fc             	mov    DWORD PTR [rbp-0x4],eax
    a34b:	81 7d fc fd 01 00 00 	cmp    DWORD PTR [rbp-0x4],0x1fd
    a352:	0f 84 81 21 00 00    	je     c4d9 <main+0xb1c2>
    a358:	81 7d fc f2 00 00 00 	cmp    DWORD PTR [rbp-0x4],0xf2
    a35f:	75 05                	jne    a366 <main+0x904f>
    a361:	e9 f3 c3 ff ff       	jmp    6759 <main+0x5442>
    a366:	81 7d fc 96 01 00 00 	cmp    DWORD PTR [rbp-0x4],0x196
    a36d:	75 05                	jne    a374 <main+0x905d>
    a36f:	e9 87 fd ff ff       	jmp    a0fb <main+0x8de4>
    a374:	48 8d 05 ad 4c 00 00 	lea    rax,[rip+0x4cad]        # f028 <_IO_stdin_used+0x28>
    a37b:	48 89 c7             	mov    rdi,rax
    a37e:	e8 3d 6d ff ff       	call   10c0 <puts@plt>
    a383:	bf 01 00 00 00       	mov    edi,0x1
    a388:	e8 a3 6d ff ff       	call   1130 <exit@plt>
    a38d:	be 9d 01 00 00       	mov    esi,0x19d
    a392:	48 8d 05 80 4c 00 00 	lea    rax,[rip+0x4c80]        # f019 <_IO_stdin_used+0x19>
    a399:	48 89 c7             	mov    rdi,rax
    a39c:	b8 00 00 00 00       	mov    eax,0x0
    a3a1:	e8 4a 6d ff ff       	call   10f0 <printf@plt>
    a3a6:	b8 00 00 00 00       	mov    eax,0x0
    a3ab:	e8 c0 6e ff ff       	call   1270 <get_input>
    a3b0:	89 45 fc             	mov    DWORD PTR [rbp-0x4],eax
    a3b3:	81 7d fc 95 01 00 00 	cmp    DWORD PTR [rbp-0x4],0x195
    a3ba:	75 05                	jne    a3c1 <main+0x90aa>
    a3bc:	e9 d5 fc ff ff       	jmp    a096 <main+0x8d7f>
    a3c1:	83 7d fc 63          	cmp    DWORD PTR [rbp-0x4],0x63
    a3c5:	75 05                	jne    a3cc <main+0x90b5>
    a3c7:	e9 90 91 ff ff       	jmp    355c <main+0x2245>
    a3cc:	48 8d 05 55 4c 00 00 	lea    rax,[rip+0x4c55]        # f028 <_IO_stdin_used+0x28>
    a3d3:	48 89 c7             	mov    rdi,rax
    a3d6:	e8 e5 6c ff ff       	call   10c0 <puts@plt>
    a3db:	bf 01 00 00 00       	mov    edi,0x1
    a3e0:	e8 4b 6d ff ff       	call   1130 <exit@plt>
    a3e5:	be 9e 01 00 00       	mov    esi,0x19e
    a3ea:	48 8d 05 28 4c 00 00 	lea    rax,[rip+0x4c28]        # f019 <_IO_stdin_used+0x19>
    a3f1:	48 89 c7             	mov    rdi,rax
    a3f4:	b8 00 00 00 00       	mov    eax,0x0
    a3f9:	e8 f2 6c ff ff       	call   10f0 <printf@plt>
    a3fe:	b8 00 00 00 00       	mov    eax,0x0
    a403:	e8 68 6e ff ff       	call   1270 <get_input>
    a408:	89 45 fc             	mov    DWORD PTR [rbp-0x4],eax
    a40b:	81 7d fc 71 01 00 00 	cmp    DWORD PTR [rbp-0x4],0x171
    a412:	75 05                	jne    a419 <main+0x9102>
    a414:	e9 b1 ef ff ff       	jmp    93ca <main+0x80b3>
    a419:	81 7d fc c1 01 00 00 	cmp    DWORD PTR [rbp-0x4],0x1c1
    a420:	75 05                	jne    a427 <main+0x9110>
    a422:	e9 db 0b 00 00       	jmp    b002 <main+0x9ceb>
    a427:	83 7d fc 7c          	cmp    DWORD PTR [rbp-0x4],0x7c
    a42b:	75 05                	jne    a432 <main+0x911b>
    a42d:	e9 38 9a ff ff       	jmp    3e6a <main+0x2b53>
    a432:	48 8d 05 ef 4b 00 00 	lea    rax,[rip+0x4bef]        # f028 <_IO_stdin_used+0x28>
    a439:	48 89 c7             	mov    rdi,rax
    a43c:	e8 7f 6c ff ff       	call   10c0 <puts@plt>
    a441:	bf 01 00 00 00       	mov    edi,0x1
    a446:	e8 e5 6c ff ff       	call   1130 <exit@plt>
    a44b:	be 9f 01 00 00       	mov    esi,0x19f
    a450:	48 8d 05 c2 4b 00 00 	lea    rax,[rip+0x4bc2]        # f019 <_IO_stdin_used+0x19>
    a457:	48 89 c7             	mov    rdi,rax
    a45a:	b8 00 00 00 00       	mov    eax,0x0
    a45f:	e8 8c 6c ff ff       	call   10f0 <printf@plt>
    a464:	b8 00 00 00 00       	mov    eax,0x0
    a469:	e8 02 6e ff ff       	call   1270 <get_input>
    a46e:	89 45 fc             	mov    DWORD PTR [rbp-0x4],eax
    a471:	81 7d fc 4e 01 00 00 	cmp    DWORD PTR [rbp-0x4],0x14e
    a478:	75 05                	jne    a47f <main+0x9168>
    a47a:	e9 3b e3 ff ff       	jmp    87ba <main+0x74a3>
    a47f:	83 7d fc 2f          	cmp    DWORD PTR [rbp-0x4],0x2f
    a483:	75 05                	jne    a48a <main+0x9173>
    a485:	e9 b3 7e ff ff       	jmp    233d <main+0x1026>
    a48a:	48 8d 05 97 4b 00 00 	lea    rax,[rip+0x4b97]        # f028 <_IO_stdin_used+0x28>
    a491:	48 89 c7             	mov    rdi,rax
    a494:	e8 27 6c ff ff       	call   10c0 <puts@plt>
    a499:	bf 01 00 00 00       	mov    edi,0x1
    a49e:	e8 8d 6c ff ff       	call   1130 <exit@plt>
    a4a3:	90                   	nop
    a4a4:	be a0 01 00 00       	mov    esi,0x1a0
    a4a9:	48 8d 05 69 4b 00 00 	lea    rax,[rip+0x4b69]        # f019 <_IO_stdin_used+0x19>
    a4b0:	48 89 c7             	mov    rdi,rax
    a4b3:	b8 00 00 00 00       	mov    eax,0x0
    a4b8:	e8 33 6c ff ff       	call   10f0 <printf@plt>
    a4bd:	b8 00 00 00 00       	mov    eax,0x0
    a4c2:	e8 a9 6d ff ff       	call   1270 <get_input>
    a4c7:	89 45 fc             	mov    DWORD PTR [rbp-0x4],eax
    a4ca:	81 7d fc 2e 01 00 00 	cmp    DWORD PTR [rbp-0x4],0x12e
    a4d1:	75 05                	jne    a4d8 <main+0x91c1>
    a4d3:	e9 4b d7 ff ff       	jmp    7c23 <main+0x690c>
    a4d8:	48 8d 05 49 4b 00 00 	lea    rax,[rip+0x4b49]        # f028 <_IO_stdin_used+0x28>
    a4df:	48 89 c7             	mov    rdi,rax
    a4e2:	e8 d9 6b ff ff       	call   10c0 <puts@plt>
    a4e7:	bf 01 00 00 00       	mov    edi,0x1
    a4ec:	e8 3f 6c ff ff       	call   1130 <exit@plt>
    a4f1:	90                   	nop
    a4f2:	be a1 01 00 00       	mov    esi,0x1a1
    a4f7:	48 8d 05 1b 4b 00 00 	lea    rax,[rip+0x4b1b]        # f019 <_IO_stdin_used+0x19>
    a4fe:	48 89 c7             	mov    rdi,rax
    a501:	b8 00 00 00 00       	mov    eax,0x0
    a506:	e8 e5 6b ff ff       	call   10f0 <printf@plt>
    a50b:	b8 00 00 00 00       	mov    eax,0x0
    a510:	e8 5b 6d ff ff       	call   1270 <get_input>
    a515:	89 45 fc             	mov    DWORD PTR [rbp-0x4],eax
    a518:	81 7d fc 0e 01 00 00 	cmp    DWORD PTR [rbp-0x4],0x10e
    a51f:	75 05                	jne    a526 <main+0x920f>
    a521:	e9 08 cc ff ff       	jmp    712e <main+0x5e17>
    a526:	48 8d 05 fb 4a 00 00 	lea    rax,[rip+0x4afb]        # f028 <_IO_stdin_used+0x28>
    a52d:	48 89 c7             	mov    rdi,rax
    a530:	e8 8b 6b ff ff       	call   10c0 <puts@plt>
    a535:	bf 01 00 00 00       	mov    edi,0x1
    a53a:	e8 f1 6b ff ff       	call   1130 <exit@plt>
    a53f:	be a2 01 00 00       	mov    esi,0x1a2
    a544:	48 8d 05 ce 4a 00 00 	lea    rax,[rip+0x4ace]        # f019 <_IO_stdin_used+0x19>
    a54b:	48 89 c7             	mov    rdi,rax
    a54e:	b8 00 00 00 00       	mov    eax,0x0
    a553:	e8 98 6b ff ff       	call   10f0 <printf@plt>
    a558:	b8 00 00 00 00       	mov    eax,0x0
    a55d:	e8 0e 6d ff ff       	call   1270 <get_input>
    a562:	89 45 fc             	mov    DWORD PTR [rbp-0x4],eax
    a565:	83 7d fc 45          	cmp    DWORD PTR [rbp-0x4],0x45
    a569:	0f 84 32 85 ff ff    	je     2aa1 <main+0x178a>
    a56f:	81 7d fc c9 01 00 00 	cmp    DWORD PTR [rbp-0x4],0x1c9
    a576:	75 05                	jne    a57d <main+0x9266>
    a578:	e9 5c 0d 00 00       	jmp    b2d9 <main+0x9fc2>
    a57d:	81 7d fc fe 01 00 00 	cmp    DWORD PTR [rbp-0x4],0x1fe
    a584:	75 05                	jne    a58b <main+0x9274>
    a586:	e9 9c 1f 00 00       	jmp    c527 <main+0xb210>
    a58b:	48 8d 05 96 4a 00 00 	lea    rax,[rip+0x4a96]        # f028 <_IO_stdin_used+0x28>
    a592:	48 89 c7             	mov    rdi,rax
    a595:	e8 26 6b ff ff       	call   10c0 <puts@plt>
    a59a:	bf 01 00 00 00       	mov    edi,0x1
    a59f:	e8 8c 6b ff ff       	call   1130 <exit@plt>
    a5a4:	be a3 01 00 00       	mov    esi,0x1a3
    a5a9:	48 8d 05 69 4a 00 00 	lea    rax,[rip+0x4a69]        # f019 <_IO_stdin_used+0x19>
    a5b0:	48 89 c7             	mov    rdi,rax
    a5b3:	b8 00 00 00 00       	mov    eax,0x0
    a5b8:	e8 33 6b ff ff       	call   10f0 <printf@plt>
    a5bd:	b8 00 00 00 00       	mov    eax,0x0
    a5c2:	e8 a9 6c ff ff       	call   1270 <get_input>
    a5c7:	89 45 fc             	mov    DWORD PTR [rbp-0x4],eax
    a5ca:	83 7d fc 29          	cmp    DWORD PTR [rbp-0x4],0x29
    a5ce:	75 05                	jne    a5d5 <main+0x92be>
    a5d0:	e9 74 7b ff ff       	jmp    2149 <main+0xe32>
    a5d5:	81 7d fc ac 00 00 00 	cmp    DWORD PTR [rbp-0x4],0xac
    a5dc:	75 05                	jne    a5e3 <main+0x92cc>
    a5de:	e9 38 a9 ff ff       	jmp    4f1b <main+0x3c04>
    a5e3:	81 7d fc b4 00 00 00 	cmp    DWORD PTR [rbp-0x4],0xb4
    a5ea:	75 05                	jne    a5f1 <main+0x92da>
    a5ec:	e9 ed ab ff ff       	jmp    51de <main+0x3ec7>
    a5f1:	48 8d 05 30 4a 00 00 	lea    rax,[rip+0x4a30]        # f028 <_IO_stdin_used+0x28>
    a5f8:	48 89 c7             	mov    rdi,rax
    a5fb:	e8 c0 6a ff ff       	call   10c0 <puts@plt>
    a600:	bf 01 00 00 00       	mov    edi,0x1
    a605:	e8 26 6b ff ff       	call   1130 <exit@plt>
    a60a:	be a4 01 00 00       	mov    esi,0x1a4
    a60f:	48 8d 05 03 4a 00 00 	lea    rax,[rip+0x4a03]        # f019 <_IO_stdin_used+0x19>
    a616:	48 89 c7             	mov    rdi,rax
    a619:	b8 00 00 00 00       	mov    eax,0x0
    a61e:	e8 cd 6a ff ff       	call   10f0 <printf@plt>
    a623:	b8 00 00 00 00       	mov    eax,0x0
    a628:	e8 43 6c ff ff       	call   1270 <get_input>
    a62d:	89 45 fc             	mov    DWORD PTR [rbp-0x4],eax
    a630:	81 7d fc c4 01 00 00 	cmp    DWORD PTR [rbp-0x4],0x1c4
    a637:	75 05                	jne    a63e <main+0x9327>
    a639:	e9 da 0a 00 00       	jmp    b118 <main+0x9e01>
    a63e:	81 7d fc ff 00 00 00 	cmp    DWORD PTR [rbp-0x4],0xff
    a645:	0f 84 cf c5 ff ff    	je     6c1a <main+0x5903>
    a64b:	48 8d 05 d6 49 00 00 	lea    rax,[rip+0x49d6]        # f028 <_IO_stdin_used+0x28>
    a652:	48 89 c7             	mov    rdi,rax
    a655:	e8 66 6a ff ff       	call   10c0 <puts@plt>
    a65a:	bf 01 00 00 00       	mov    edi,0x1
    a65f:	e8 cc 6a ff ff       	call   1130 <exit@plt>
    a664:	be a5 01 00 00       	mov    esi,0x1a5
    a669:	48 8d 05 a9 49 00 00 	lea    rax,[rip+0x49a9]        # f019 <_IO_stdin_used+0x19>
    a670:	48 89 c7             	mov    rdi,rax
    a673:	b8 00 00 00 00       	mov    eax,0x0
    a678:	e8 73 6a ff ff       	call   10f0 <printf@plt>
    a67d:	b8 00 00 00 00       	mov    eax,0x0
    a682:	e8 e9 6b ff ff       	call   1270 <get_input>
    a687:	89 45 fc             	mov    DWORD PTR [rbp-0x4],eax
    a68a:	81 7d fc 36 02 00 00 	cmp    DWORD PTR [rbp-0x4],0x236
    a691:	75 05                	jne    a698 <main+0x9381>
    a693:	e9 2b 32 00 00       	jmp    d8c3 <main+0xc5ac>
    a698:	81 7d fc 9a 00 00 00 	cmp    DWORD PTR [rbp-0x4],0x9a
    a69f:	75 05                	jne    a6a6 <main+0x938f>
    a6a1:	e9 4c a2 ff ff       	jmp    48f2 <main+0x35db>
    a6a6:	81 7d fc 2f 02 00 00 	cmp    DWORD PTR [rbp-0x4],0x22f
    a6ad:	75 05                	jne    a6b4 <main+0x939d>
    a6af:	e9 7a 2f 00 00       	jmp    d62e <main+0xc317>
    a6b4:	48 8d 05 6d 49 00 00 	lea    rax,[rip+0x496d]        # f028 <_IO_stdin_used+0x28>
    a6bb:	48 89 c7             	mov    rdi,rax
    a6be:	e8 fd 69 ff ff       	call   10c0 <puts@plt>
    a6c3:	bf 01 00 00 00       	mov    edi,0x1
    a6c8:	e8 63 6a ff ff       	call   1130 <exit@plt>
    a6cd:	be a6 01 00 00       	mov    esi,0x1a6
    a6d2:	48 8d 05 40 49 00 00 	lea    rax,[rip+0x4940]        # f019 <_IO_stdin_used+0x19>
    a6d9:	48 89 c7             	mov    rdi,rax
    a6dc:	b8 00 00 00 00       	mov    eax,0x0
    a6e1:	e8 0a 6a ff ff       	call   10f0 <printf@plt>
    a6e6:	b8 00 00 00 00       	mov    eax,0x0
    a6eb:	e8 80 6b ff ff       	call   1270 <get_input>
    a6f0:	89 45 fc             	mov    DWORD PTR [rbp-0x4],eax
    a6f3:	81 7d fc b1 01 00 00 	cmp    DWORD PTR [rbp-0x4],0x1b1
    a6fa:	75 05                	jne    a701 <main+0x93ea>
    a6fc:	e9 87 03 00 00       	jmp    aa88 <main+0x9771>
    a701:	81 7d fc 83 00 00 00 	cmp    DWORD PTR [rbp-0x4],0x83
    a708:	75 05                	jne    a70f <main+0x93f8>
    a70a:	e9 cf 99 ff ff       	jmp    40de <main+0x2dc7>
    a70f:	48 8d 05 12 49 00 00 	lea    rax,[rip+0x4912]        # f028 <_IO_stdin_used+0x28>
    a716:	48 89 c7             	mov    rdi,rax
    a719:	e8 a2 69 ff ff       	call   10c0 <puts@plt>
    a71e:	bf 01 00 00 00       	mov    edi,0x1
    a723:	e8 08 6a ff ff       	call   1130 <exit@plt>
    a728:	be a7 01 00 00       	mov    esi,0x1a7
    a72d:	48 8d 05 e5 48 00 00 	lea    rax,[rip+0x48e5]        # f019 <_IO_stdin_used+0x19>
    a734:	48 89 c7             	mov    rdi,rax
    a737:	b8 00 00 00 00       	mov    eax,0x0
    a73c:	e8 af 69 ff ff       	call   10f0 <printf@plt>
    a741:	b8 00 00 00 00       	mov    eax,0x0
    a746:	e8 25 6b ff ff       	call   1270 <get_input>
    a74b:	89 45 fc             	mov    DWORD PTR [rbp-0x4],eax
    a74e:	81 7d fc ef 01 00 00 	cmp    DWORD PTR [rbp-0x4],0x1ef
    a755:	75 05                	jne    a75c <main+0x9445>
    a757:	e9 98 18 00 00       	jmp    bff4 <main+0xacdd>
    a75c:	81 7d fc 00 01 00 00 	cmp    DWORD PTR [rbp-0x4],0x100
    a763:	75 05                	jne    a76a <main+0x9453>
    a765:	e9 fe c4 ff ff       	jmp    6c68 <main+0x5951>
    a76a:	83 7d fc 59          	cmp    DWORD PTR [rbp-0x4],0x59
    a76e:	75 05                	jne    a775 <main+0x945e>
    a770:	e9 68 8a ff ff       	jmp    31dd <main+0x1ec6>
    a775:	48 8d 05 ac 48 00 00 	lea    rax,[rip+0x48ac]        # f028 <_IO_stdin_used+0x28>
    a77c:	48 89 c7             	mov    rdi,rax
    a77f:	e8 3c 69 ff ff       	call   10c0 <puts@plt>
    a784:	bf 01 00 00 00       	mov    edi,0x1
    a789:	e8 a2 69 ff ff       	call   1130 <exit@plt>
    a78e:	90                   	nop
    a78f:	be a8 01 00 00       	mov    esi,0x1a8
    a794:	48 8d 05 7e 48 00 00 	lea    rax,[rip+0x487e]        # f019 <_IO_stdin_used+0x19>
    a79b:	48 89 c7             	mov    rdi,rax
    a79e:	b8 00 00 00 00       	mov    eax,0x0
    a7a3:	e8 48 69 ff ff       	call   10f0 <printf@plt>
    a7a8:	b8 00 00 00 00       	mov    eax,0x0
    a7ad:	e8 be 6a ff ff       	call   1270 <get_input>
    a7b2:	89 45 fc             	mov    DWORD PTR [rbp-0x4],eax
    a7b5:	81 7d fc bd 01 00 00 	cmp    DWORD PTR [rbp-0x4],0x1bd
    a7bc:	75 05                	jne    a7c3 <main+0x94ac>
    a7be:	e9 d7 06 00 00       	jmp    ae9a <main+0x9b83>
    a7c3:	48 8d 05 5e 48 00 00 	lea    rax,[rip+0x485e]        # f028 <_IO_stdin_used+0x28>
    a7ca:	48 89 c7             	mov    rdi,rax
    a7cd:	e8 ee 68 ff ff       	call   10c0 <puts@plt>
    a7d2:	bf 01 00 00 00       	mov    edi,0x1
    a7d7:	e8 54 69 ff ff       	call   1130 <exit@plt>
    a7dc:	be a9 01 00 00       	mov    esi,0x1a9
    a7e1:	48 8d 05 31 48 00 00 	lea    rax,[rip+0x4831]        # f019 <_IO_stdin_used+0x19>
    a7e8:	48 89 c7             	mov    rdi,rax
    a7eb:	b8 00 00 00 00       	mov    eax,0x0
    a7f0:	e8 fb 68 ff ff       	call   10f0 <printf@plt>
    a7f5:	b8 00 00 00 00       	mov    eax,0x0
    a7fa:	e8 71 6a ff ff       	call   1270 <get_input>
    a7ff:	89 45 fc             	mov    DWORD PTR [rbp-0x4],eax
    a802:	81 7d fc a9 00 00 00 	cmp    DWORD PTR [rbp-0x4],0xa9
    a809:	75 05                	jne    a810 <main+0x94f9>
    a80b:	e9 f0 a5 ff ff       	jmp    4e00 <main+0x3ae9>
    a810:	81 7d fc e2 01 00 00 	cmp    DWORD PTR [rbp-0x4],0x1e2
    a817:	75 05                	jne    a81e <main+0x9507>
    a819:	e9 60 13 00 00       	jmp    bb7e <main+0xa867>
    a81e:	83 7d fc 7e          	cmp    DWORD PTR [rbp-0x4],0x7e
    a822:	75 05                	jne    a829 <main+0x9512>
    a824:	e9 f4 96 ff ff       	jmp    3f1d <main+0x2c06>
    a829:	48 8d 05 f8 47 00 00 	lea    rax,[rip+0x47f8]        # f028 <_IO_stdin_used+0x28>
    a830:	48 89 c7             	mov    rdi,rax
    a833:	e8 88 68 ff ff       	call   10c0 <puts@plt>
    a838:	bf 01 00 00 00       	mov    edi,0x1
    a83d:	e8 ee 68 ff ff       	call   1130 <exit@plt>
    a842:	be aa 01 00 00       	mov    esi,0x1aa
    a847:	48 8d 05 cb 47 00 00 	lea    rax,[rip+0x47cb]        # f019 <_IO_stdin_used+0x19>
    a84e:	48 89 c7             	mov    rdi,rax
    a851:	b8 00 00 00 00       	mov    eax,0x0
    a856:	e8 95 68 ff ff       	call   10f0 <printf@plt>
    a85b:	b8 00 00 00 00       	mov    eax,0x0
    a860:	e8 0b 6a ff ff       	call   1270 <get_input>
    a865:	89 45 fc             	mov    DWORD PTR [rbp-0x4],eax
    a868:	81 7d fc 0c 02 00 00 	cmp    DWORD PTR [rbp-0x4],0x20c
    a86f:	0f 84 46 21 00 00    	je     c9bb <main+0xb6a4>
    a875:	81 7d fc c9 00 00 00 	cmp    DWORD PTR [rbp-0x4],0xc9
    a87c:	75 05                	jne    a883 <main+0x956c>
    a87e:	e9 b5 b0 ff ff       	jmp    5938 <main+0x4621>
    a883:	81 7d fc 6a 02 00 00 	cmp    DWORD PTR [rbp-0x4],0x26a
    a88a:	75 05                	jne    a891 <main+0x957a>
    a88c:	e9 41 43 00 00       	jmp    ebd2 <main+0xd8bb>
    a891:	48 8d 05 90 47 00 00 	lea    rax,[rip+0x4790]        # f028 <_IO_stdin_used+0x28>
    a898:	48 89 c7             	mov    rdi,rax
    a89b:	e8 20 68 ff ff       	call   10c0 <puts@plt>
    a8a0:	bf 01 00 00 00       	mov    edi,0x1
    a8a5:	e8 86 68 ff ff       	call   1130 <exit@plt>
    a8aa:	be ab 01 00 00       	mov    esi,0x1ab
    a8af:	48 8d 05 63 47 00 00 	lea    rax,[rip+0x4763]        # f019 <_IO_stdin_used+0x19>
    a8b6:	48 89 c7             	mov    rdi,rax
    a8b9:	b8 00 00 00 00       	mov    eax,0x0
    a8be:	e8 2d 68 ff ff       	call   10f0 <printf@plt>
    a8c3:	b8 00 00 00 00       	mov    eax,0x0
    a8c8:	e8 a3 69 ff ff       	call   1270 <get_input>
    a8cd:	89 45 fc             	mov    DWORD PTR [rbp-0x4],eax
    a8d0:	81 7d fc cb 01 00 00 	cmp    DWORD PTR [rbp-0x4],0x1cb
    a8d7:	75 05                	jne    a8de <main+0x95c7>
    a8d9:	e9 a4 0a 00 00       	jmp    b382 <main+0xa06b>
    a8de:	83 7d fc 64          	cmp    DWORD PTR [rbp-0x4],0x64
    a8e2:	75 05                	jne    a8e9 <main+0x95d2>
    a8e4:	e9 cb 8c ff ff       	jmp    35b4 <main+0x229d>
    a8e9:	48 8d 05 38 47 00 00 	lea    rax,[rip+0x4738]        # f028 <_IO_stdin_used+0x28>
    a8f0:	48 89 c7             	mov    rdi,rax
    a8f3:	e8 c8 67 ff ff       	call   10c0 <puts@plt>
    a8f8:	bf 01 00 00 00       	mov    edi,0x1
    a8fd:	e8 2e 68 ff ff       	call   1130 <exit@plt>
    a902:	90                   	nop
    a903:	be ac 01 00 00       	mov    esi,0x1ac
    a908:	48 8d 05 0a 47 00 00 	lea    rax,[rip+0x470a]        # f019 <_IO_stdin_used+0x19>
    a90f:	48 89 c7             	mov    rdi,rax
    a912:	b8 00 00 00 00       	mov    eax,0x0
    a917:	e8 d4 67 ff ff       	call   10f0 <printf@plt>
    a91c:	b8 00 00 00 00       	mov    eax,0x0
    a921:	e8 4a 69 ff ff       	call   1270 <get_input>
    a926:	89 45 fc             	mov    DWORD PTR [rbp-0x4],eax
    a929:	81 7d fc 8f 00 00 00 	cmp    DWORD PTR [rbp-0x4],0x8f
    a930:	75 05                	jne    a937 <main+0x9620>
    a932:	e9 c9 9b ff ff       	jmp    4500 <main+0x31e9>
    a937:	48 8d 05 ea 46 00 00 	lea    rax,[rip+0x46ea]        # f028 <_IO_stdin_used+0x28>
    a93e:	48 89 c7             	mov    rdi,rax
    a941:	e8 7a 67 ff ff       	call   10c0 <puts@plt>
    a946:	bf 01 00 00 00       	mov    edi,0x1
    a94b:	e8 e0 67 ff ff       	call   1130 <exit@plt>
    a950:	90                   	nop
    a951:	be ad 01 00 00       	mov    esi,0x1ad
    a956:	48 8d 05 bc 46 00 00 	lea    rax,[rip+0x46bc]        # f019 <_IO_stdin_used+0x19>
    a95d:	48 89 c7             	mov    rdi,rax
    a960:	b8 00 00 00 00       	mov    eax,0x0
    a965:	e8 86 67 ff ff       	call   10f0 <printf@plt>
    a96a:	b8 00 00 00 00       	mov    eax,0x0
    a96f:	e8 fc 68 ff ff       	call   1270 <get_input>
    a974:	89 45 fc             	mov    DWORD PTR [rbp-0x4],eax
    a977:	81 7d fc f4 00 00 00 	cmp    DWORD PTR [rbp-0x4],0xf4
    a97e:	75 05                	jne    a985 <main+0x966e>
    a980:	e9 97 be ff ff       	jmp    681c <main+0x5505>
    a985:	48 8d 05 9c 46 00 00 	lea    rax,[rip+0x469c]        # f028 <_IO_stdin_used+0x28>
    a98c:	48 89 c7             	mov    rdi,rax
    a98f:	e8 2c 67 ff ff       	call   10c0 <puts@plt>
    a994:	bf 01 00 00 00       	mov    edi,0x1
    a999:	e8 92 67 ff ff       	call   1130 <exit@plt>
    a99e:	90                   	nop
    a99f:	be ae 01 00 00       	mov    esi,0x1ae
    a9a4:	48 8d 05 6e 46 00 00 	lea    rax,[rip+0x466e]        # f019 <_IO_stdin_used+0x19>
    a9ab:	48 89 c7             	mov    rdi,rax
    a9ae:	b8 00 00 00 00       	mov    eax,0x0
    a9b3:	e8 38 67 ff ff       	call   10f0 <printf@plt>
    a9b8:	b8 00 00 00 00       	mov    eax,0x0
    a9bd:	e8 ae 68 ff ff       	call   1270 <get_input>
    a9c2:	89 45 fc             	mov    DWORD PTR [rbp-0x4],eax
    a9c5:	81 7d fc 41 01 00 00 	cmp    DWORD PTR [rbp-0x4],0x141
    a9cc:	75 05                	jne    a9d3 <main+0x96bc>
    a9ce:	e9 35 d9 ff ff       	jmp    8308 <main+0x6ff1>
    a9d3:	48 8d 05 4e 46 00 00 	lea    rax,[rip+0x464e]        # f028 <_IO_stdin_used+0x28>
    a9da:	48 89 c7             	mov    rdi,rax
    a9dd:	e8 de 66 ff ff       	call   10c0 <puts@plt>
    a9e2:	bf 01 00 00 00       	mov    edi,0x1
    a9e7:	e8 44 67 ff ff       	call   1130 <exit@plt>
    a9ec:	90                   	nop
    a9ed:	be af 01 00 00       	mov    esi,0x1af
    a9f2:	48 8d 05 20 46 00 00 	lea    rax,[rip+0x4620]        # f019 <_IO_stdin_used+0x19>
    a9f9:	48 89 c7             	mov    rdi,rax
    a9fc:	b8 00 00 00 00       	mov    eax,0x0
    aa01:	e8 ea 66 ff ff       	call   10f0 <printf@plt>
    aa06:	b8 00 00 00 00       	mov    eax,0x0
    aa0b:	e8 60 68 ff ff       	call   1270 <get_input>
    aa10:	89 45 fc             	mov    DWORD PTR [rbp-0x4],eax
    aa13:	81 7d fc e0 01 00 00 	cmp    DWORD PTR [rbp-0x4],0x1e0
    aa1a:	75 05                	jne    aa21 <main+0x970a>
    aa1c:	e9 ab 10 00 00       	jmp    bacc <main+0xa7b5>
    aa21:	48 8d 05 00 46 00 00 	lea    rax,[rip+0x4600]        # f028 <_IO_stdin_used+0x28>
    aa28:	48 89 c7             	mov    rdi,rax
    aa2b:	e8 90 66 ff ff       	call   10c0 <puts@plt>
    aa30:	bf 01 00 00 00       	mov    edi,0x1
    aa35:	e8 f6 66 ff ff       	call   1130 <exit@plt>
    aa3a:	90                   	nop
    aa3b:	be b0 01 00 00       	mov    esi,0x1b0
    aa40:	48 8d 05 d2 45 00 00 	lea    rax,[rip+0x45d2]        # f019 <_IO_stdin_used+0x19>
    aa47:	48 89 c7             	mov    rdi,rax
    aa4a:	b8 00 00 00 00       	mov    eax,0x0
    aa4f:	e8 9c 66 ff ff       	call   10f0 <printf@plt>
    aa54:	b8 00 00 00 00       	mov    eax,0x0
    aa59:	e8 12 68 ff ff       	call   1270 <get_input>
    aa5e:	89 45 fc             	mov    DWORD PTR [rbp-0x4],eax
    aa61:	81 7d fc db 01 00 00 	cmp    DWORD PTR [rbp-0x4],0x1db
    aa68:	75 05                	jne    aa6f <main+0x9758>
    aa6a:	e9 ae 0e 00 00       	jmp    b91d <main+0xa606>
    aa6f:	48 8d 05 b2 45 00 00 	lea    rax,[rip+0x45b2]        # f028 <_IO_stdin_used+0x28>
    aa76:	48 89 c7             	mov    rdi,rax
    aa79:	e8 42 66 ff ff       	call   10c0 <puts@plt>
    aa7e:	bf 01 00 00 00       	mov    edi,0x1
    aa83:	e8 a8 66 ff ff       	call   1130 <exit@plt>
    aa88:	be b1 01 00 00       	mov    esi,0x1b1
    aa8d:	48 8d 05 85 45 00 00 	lea    rax,[rip+0x4585]        # f019 <_IO_stdin_used+0x19>
    aa94:	48 89 c7             	mov    rdi,rax
    aa97:	b8 00 00 00 00       	mov    eax,0x0
    aa9c:	e8 4f 66 ff ff       	call   10f0 <printf@plt>
    aaa1:	b8 00 00 00 00       	mov    eax,0x0
    aaa6:	e8 c5 67 ff ff       	call   1270 <get_input>
    aaab:	89 45 fc             	mov    DWORD PTR [rbp-0x4],eax
    aaae:	81 7d fc cc 01 00 00 	cmp    DWORD PTR [rbp-0x4],0x1cc
    aab5:	75 05                	jne    aabc <main+0x97a5>
    aab7:	e9 20 09 00 00       	jmp    b3dc <main+0xa0c5>
    aabc:	81 7d fc a6 01 00 00 	cmp    DWORD PTR [rbp-0x4],0x1a6
    aac3:	75 05                	jne    aaca <main+0x97b3>
    aac5:	e9 03 fc ff ff       	jmp    a6cd <main+0x93b6>
    aaca:	81 7d fc 39 01 00 00 	cmp    DWORD PTR [rbp-0x4],0x139
    aad1:	75 05                	jne    aad8 <main+0x97c1>
    aad3:	e9 56 d5 ff ff       	jmp    802e <main+0x6d17>
    aad8:	48 8d 05 49 45 00 00 	lea    rax,[rip+0x4549]        # f028 <_IO_stdin_used+0x28>
    aadf:	48 89 c7             	mov    rdi,rax
    aae2:	e8 d9 65 ff ff       	call   10c0 <puts@plt>
    aae7:	bf 01 00 00 00       	mov    edi,0x1
    aaec:	e8 3f 66 ff ff       	call   1130 <exit@plt>
    aaf1:	90                   	nop
    aaf2:	be b2 01 00 00       	mov    esi,0x1b2
    aaf7:	48 8d 05 1b 45 00 00 	lea    rax,[rip+0x451b]        # f019 <_IO_stdin_used+0x19>
    aafe:	48 89 c7             	mov    rdi,rax
    ab01:	b8 00 00 00 00       	mov    eax,0x0
    ab06:	e8 e5 65 ff ff       	call   10f0 <printf@plt>
    ab0b:	b8 00 00 00 00       	mov    eax,0x0
    ab10:	e8 5b 67 ff ff       	call   1270 <get_input>
    ab15:	89 45 fc             	mov    DWORD PTR [rbp-0x4],eax
    ab18:	81 7d fc 31 01 00 00 	cmp    DWORD PTR [rbp-0x4],0x131
    ab1f:	75 05                	jne    ab26 <main+0x980f>
    ab21:	e9 25 d2 ff ff       	jmp    7d4b <main+0x6a34>
    ab26:	48 8d 05 fb 44 00 00 	lea    rax,[rip+0x44fb]        # f028 <_IO_stdin_used+0x28>
    ab2d:	48 89 c7             	mov    rdi,rax
    ab30:	e8 8b 65 ff ff       	call   10c0 <puts@plt>
    ab35:	bf 01 00 00 00       	mov    edi,0x1
    ab3a:	e8 f1 65 ff ff       	call   1130 <exit@plt>
    ab3f:	90                   	nop
    ab40:	be b3 01 00 00       	mov    esi,0x1b3
    ab45:	48 8d 05 cd 44 00 00 	lea    rax,[rip+0x44cd]        # f019 <_IO_stdin_used+0x19>
    ab4c:	48 89 c7             	mov    rdi,rax
    ab4f:	b8 00 00 00 00       	mov    eax,0x0
    ab54:	e8 97 65 ff ff       	call   10f0 <printf@plt>
    ab59:	b8 00 00 00 00       	mov    eax,0x0
    ab5e:	e8 0d 67 ff ff       	call   1270 <get_input>
    ab63:	89 45 fc             	mov    DWORD PTR [rbp-0x4],eax
    ab66:	81 7d fc 15 02 00 00 	cmp    DWORD PTR [rbp-0x4],0x215
    ab6d:	75 05                	jne    ab74 <main+0x985d>
    ab6f:	e9 76 21 00 00       	jmp    ccea <main+0xb9d3>
    ab74:	48 8d 05 ad 44 00 00 	lea    rax,[rip+0x44ad]        # f028 <_IO_stdin_used+0x28>
    ab7b:	48 89 c7             	mov    rdi,rax
    ab7e:	e8 3d 65 ff ff       	call   10c0 <puts@plt>
    ab83:	bf 01 00 00 00       	mov    edi,0x1
    ab88:	e8 a3 65 ff ff       	call   1130 <exit@plt>
    ab8d:	90                   	nop
    ab8e:	be b4 01 00 00       	mov    esi,0x1b4
    ab93:	48 8d 05 7f 44 00 00 	lea    rax,[rip+0x447f]        # f019 <_IO_stdin_used+0x19>
    ab9a:	48 89 c7             	mov    rdi,rax
    ab9d:	b8 00 00 00 00       	mov    eax,0x0
    aba2:	e8 49 65 ff ff       	call   10f0 <printf@plt>
    aba7:	b8 00 00 00 00       	mov    eax,0x0
    abac:	e8 bf 66 ff ff       	call   1270 <get_input>
    abb1:	89 45 fc             	mov    DWORD PTR [rbp-0x4],eax
    abb4:	81 7d fc 70 01 00 00 	cmp    DWORD PTR [rbp-0x4],0x170
    abbb:	75 05                	jne    abc2 <main+0x98ab>
    abbd:	e9 a0 e7 ff ff       	jmp    9362 <main+0x804b>
    abc2:	48 8d 05 5f 44 00 00 	lea    rax,[rip+0x445f]        # f028 <_IO_stdin_used+0x28>
    abc9:	48 89 c7             	mov    rdi,rax
    abcc:	e8 ef 64 ff ff       	call   10c0 <puts@plt>
    abd1:	bf 01 00 00 00       	mov    edi,0x1
    abd6:	e8 55 65 ff ff       	call   1130 <exit@plt>
    abdb:	be b5 01 00 00       	mov    esi,0x1b5
    abe0:	48 8d 05 32 44 00 00 	lea    rax,[rip+0x4432]        # f019 <_IO_stdin_used+0x19>
    abe7:	48 89 c7             	mov    rdi,rax
    abea:	b8 00 00 00 00       	mov    eax,0x0
    abef:	e8 fc 64 ff ff       	call   10f0 <printf@plt>
    abf4:	b8 00 00 00 00       	mov    eax,0x0
    abf9:	e8 72 66 ff ff       	call   1270 <get_input>
    abfe:	89 45 fc             	mov    DWORD PTR [rbp-0x4],eax
    ac01:	81 7d fc 1e 01 00 00 	cmp    DWORD PTR [rbp-0x4],0x11e
    ac08:	75 05                	jne    ac0f <main+0x98f8>
    ac0a:	e9 ba ca ff ff       	jmp    76c9 <main+0x63b2>
    ac0f:	81 7d fc f1 01 00 00 	cmp    DWORD PTR [rbp-0x4],0x1f1
    ac16:	0f 84 98 14 00 00    	je     c0b4 <main+0xad9d>
    ac1c:	48 8d 05 05 44 00 00 	lea    rax,[rip+0x4405]        # f028 <_IO_stdin_used+0x28>
    ac23:	48 89 c7             	mov    rdi,rax
    ac26:	e8 95 64 ff ff       	call   10c0 <puts@plt>
    ac2b:	bf 01 00 00 00       	mov    edi,0x1
    ac30:	e8 fb 64 ff ff       	call   1130 <exit@plt>
    ac35:	90                   	nop
    ac36:	be b6 01 00 00       	mov    esi,0x1b6
    ac3b:	48 8d 05 d7 43 00 00 	lea    rax,[rip+0x43d7]        # f019 <_IO_stdin_used+0x19>
    ac42:	48 89 c7             	mov    rdi,rax
    ac45:	b8 00 00 00 00       	mov    eax,0x0
    ac4a:	e8 a1 64 ff ff       	call   10f0 <printf@plt>
    ac4f:	b8 00 00 00 00       	mov    eax,0x0
    ac54:	e8 17 66 ff ff       	call   1270 <get_input>
    ac59:	89 45 fc             	mov    DWORD PTR [rbp-0x4],eax
    ac5c:	83 7d fc 6c          	cmp    DWORD PTR [rbp-0x4],0x6c
    ac60:	75 05                	jne    ac67 <main+0x9950>
    ac62:	e9 27 8c ff ff       	jmp    388e <main+0x2577>
    ac67:	48 8d 05 ba 43 00 00 	lea    rax,[rip+0x43ba]        # f028 <_IO_stdin_used+0x28>
    ac6e:	48 89 c7             	mov    rdi,rax
    ac71:	e8 4a 64 ff ff       	call   10c0 <puts@plt>
    ac76:	bf 01 00 00 00       	mov    edi,0x1
    ac7b:	e8 b0 64 ff ff       	call   1130 <exit@plt>
    ac80:	be b7 01 00 00       	mov    esi,0x1b7
    ac85:	48 8d 05 8d 43 00 00 	lea    rax,[rip+0x438d]        # f019 <_IO_stdin_used+0x19>
    ac8c:	48 89 c7             	mov    rdi,rax
    ac8f:	b8 00 00 00 00       	mov    eax,0x0
    ac94:	e8 57 64 ff ff       	call   10f0 <printf@plt>
    ac99:	b8 00 00 00 00       	mov    eax,0x0
    ac9e:	e8 cd 65 ff ff       	call   1270 <get_input>
    aca3:	89 45 fc             	mov    DWORD PTR [rbp-0x4],eax
    aca6:	81 7d fc d4 00 00 00 	cmp    DWORD PTR [rbp-0x4],0xd4
    acad:	0f 84 55 b0 ff ff    	je     5d08 <main+0x49f1>
    acb3:	83 7d fc 0a          	cmp    DWORD PTR [rbp-0x4],0xa
    acb7:	75 05                	jne    acbe <main+0x99a7>
    acb9:	e9 bc 69 ff ff       	jmp    167a <main+0x363>
    acbe:	81 7d fc 3c 01 00 00 	cmp    DWORD PTR [rbp-0x4],0x13c
    acc5:	75 05                	jne    accc <main+0x99b5>
    acc7:	e9 71 d4 ff ff       	jmp    813d <main+0x6e26>
    accc:	48 8d 05 55 43 00 00 	lea    rax,[rip+0x4355]        # f028 <_IO_stdin_used+0x28>
    acd3:	48 89 c7             	mov    rdi,rax
    acd6:	e8 e5 63 ff ff       	call   10c0 <puts@plt>
    acdb:	bf 01 00 00 00       	mov    edi,0x1
    ace0:	e8 4b 64 ff ff       	call   1130 <exit@plt>
    ace5:	be b8 01 00 00       	mov    esi,0x1b8
    acea:	48 8d 05 28 43 00 00 	lea    rax,[rip+0x4328]        # f019 <_IO_stdin_used+0x19>
    acf1:	48 89 c7             	mov    rdi,rax
    acf4:	b8 00 00 00 00       	mov    eax,0x0
    acf9:	e8 f2 63 ff ff       	call   10f0 <printf@plt>
    acfe:	b8 00 00 00 00       	mov    eax,0x0
    ad03:	e8 68 65 ff ff       	call   1270 <get_input>
    ad08:	89 45 fc             	mov    DWORD PTR [rbp-0x4],eax
    ad0b:	81 7d fc c8 01 00 00 	cmp    DWORD PTR [rbp-0x4],0x1c8
    ad12:	0f 84 73 05 00 00    	je     b28b <main+0x9f74>
    ad18:	81 7d fc 4e 01 00 00 	cmp    DWORD PTR [rbp-0x4],0x14e
    ad1f:	75 05                	jne    ad26 <main+0x9a0f>
    ad21:	e9 94 da ff ff       	jmp    87ba <main+0x74a3>
    ad26:	81 7d fc cc 00 00 00 	cmp    DWORD PTR [rbp-0x4],0xcc
    ad2d:	75 05                	jne    ad34 <main+0x9a1d>
    ad2f:	e9 0d ad ff ff       	jmp    5a41 <main+0x472a>
    ad34:	81 7d fc 80 01 00 00 	cmp    DWORD PTR [rbp-0x4],0x180
    ad3b:	75 05                	jne    ad42 <main+0x9a2b>
    ad3d:	e9 d3 eb ff ff       	jmp    9915 <main+0x85fe>
    ad42:	48 8d 05 df 42 00 00 	lea    rax,[rip+0x42df]        # f028 <_IO_stdin_used+0x28>
    ad49:	48 89 c7             	mov    rdi,rax
    ad4c:	e8 6f 63 ff ff       	call   10c0 <puts@plt>
    ad51:	bf 01 00 00 00       	mov    edi,0x1
    ad56:	e8 d5 63 ff ff       	call   1130 <exit@plt>
    ad5b:	90                   	nop
    ad5c:	be b9 01 00 00       	mov    esi,0x1b9
    ad61:	48 8d 05 b1 42 00 00 	lea    rax,[rip+0x42b1]        # f019 <_IO_stdin_used+0x19>
    ad68:	48 89 c7             	mov    rdi,rax
    ad6b:	b8 00 00 00 00       	mov    eax,0x0
    ad70:	e8 7b 63 ff ff       	call   10f0 <printf@plt>
    ad75:	b8 00 00 00 00       	mov    eax,0x0
    ad7a:	e8 f1 64 ff ff       	call   1270 <get_input>
    ad7f:	89 45 fc             	mov    DWORD PTR [rbp-0x4],eax
    ad82:	81 7d fc d2 01 00 00 	cmp    DWORD PTR [rbp-0x4],0x1d2
    ad89:	75 05                	jne    ad90 <main+0x9a79>
    ad8b:	e9 59 08 00 00       	jmp    b5e9 <main+0xa2d2>
    ad90:	48 8d 05 91 42 00 00 	lea    rax,[rip+0x4291]        # f028 <_IO_stdin_used+0x28>
    ad97:	48 89 c7             	mov    rdi,rax
    ad9a:	e8 21 63 ff ff       	call   10c0 <puts@plt>
    ad9f:	bf 01 00 00 00       	mov    edi,0x1
    ada4:	e8 87 63 ff ff       	call   1130 <exit@plt>
    ada9:	90                   	nop
    adaa:	be ba 01 00 00       	mov    esi,0x1ba
    adaf:	48 8d 05 63 42 00 00 	lea    rax,[rip+0x4263]        # f019 <_IO_stdin_used+0x19>
    adb6:	48 89 c7             	mov    rdi,rax
    adb9:	b8 00 00 00 00       	mov    eax,0x0
    adbe:	e8 2d 63 ff ff       	call   10f0 <printf@plt>
    adc3:	b8 00 00 00 00       	mov    eax,0x0
    adc8:	e8 a3 64 ff ff       	call   1270 <get_input>
    adcd:	89 45 fc             	mov    DWORD PTR [rbp-0x4],eax
    add0:	81 7d fc fc 00 00 00 	cmp    DWORD PTR [rbp-0x4],0xfc
    add7:	75 05                	jne    adde <main+0x9ac7>
    add9:	e9 25 bd ff ff       	jmp    6b03 <main+0x57ec>
    adde:	48 8d 05 43 42 00 00 	lea    rax,[rip+0x4243]        # f028 <_IO_stdin_used+0x28>
    ade5:	48 89 c7             	mov    rdi,rax
    ade8:	e8 d3 62 ff ff       	call   10c0 <puts@plt>
    aded:	bf 01 00 00 00       	mov    edi,0x1
    adf2:	e8 39 63 ff ff       	call   1130 <exit@plt>
    adf7:	90                   	nop
    adf8:	be bb 01 00 00       	mov    esi,0x1bb
    adfd:	48 8d 05 15 42 00 00 	lea    rax,[rip+0x4215]        # f019 <_IO_stdin_used+0x19>
    ae04:	48 89 c7             	mov    rdi,rax
    ae07:	b8 00 00 00 00       	mov    eax,0x0
    ae0c:	e8 df 62 ff ff       	call   10f0 <printf@plt>
    ae11:	b8 00 00 00 00       	mov    eax,0x0
    ae16:	e8 55 64 ff ff       	call   1270 <get_input>
    ae1b:	89 45 fc             	mov    DWORD PTR [rbp-0x4],eax
    ae1e:	81 7d fc 8f 00 00 00 	cmp    DWORD PTR [rbp-0x4],0x8f
    ae25:	75 05                	jne    ae2c <main+0x9b15>
    ae27:	e9 d4 96 ff ff       	jmp    4500 <main+0x31e9>
    ae2c:	48 8d 05 f5 41 00 00 	lea    rax,[rip+0x41f5]        # f028 <_IO_stdin_used+0x28>
    ae33:	48 89 c7             	mov    rdi,rax
    ae36:	e8 85 62 ff ff       	call   10c0 <puts@plt>
    ae3b:	bf 01 00 00 00       	mov    edi,0x1
    ae40:	e8 eb 62 ff ff       	call   1130 <exit@plt>
    ae45:	be bc 01 00 00       	mov    esi,0x1bc
    ae4a:	48 8d 05 c8 41 00 00 	lea    rax,[rip+0x41c8]        # f019 <_IO_stdin_used+0x19>
    ae51:	48 89 c7             	mov    rdi,rax
    ae54:	b8 00 00 00 00       	mov    eax,0x0
    ae59:	e8 92 62 ff ff       	call   10f0 <printf@plt>
    ae5e:	b8 00 00 00 00       	mov    eax,0x0
    ae63:	e8 08 64 ff ff       	call   1270 <get_input>
    ae68:	89 45 fc             	mov    DWORD PTR [rbp-0x4],eax
    ae6b:	83 7d fc 73          	cmp    DWORD PTR [rbp-0x4],0x73
    ae6f:	75 05                	jne    ae76 <main+0x9b5f>
    ae71:	e9 9f 8c ff ff       	jmp    3b15 <main+0x27fe>
    ae76:	83 7d fc 1e          	cmp    DWORD PTR [rbp-0x4],0x1e
    ae7a:	75 05                	jne    ae81 <main+0x9b6a>
    ae7c:	e9 05 6f ff ff       	jmp    1d86 <main+0xa6f>
    ae81:	48 8d 05 a0 41 00 00 	lea    rax,[rip+0x41a0]        # f028 <_IO_stdin_used+0x28>
    ae88:	48 89 c7             	mov    rdi,rax
    ae8b:	e8 30 62 ff ff       	call   10c0 <puts@plt>
    ae90:	bf 01 00 00 00       	mov    edi,0x1
    ae95:	e8 96 62 ff ff       	call   1130 <exit@plt>
    ae9a:	be bd 01 00 00       	mov    esi,0x1bd
    ae9f:	48 8d 05 73 41 00 00 	lea    rax,[rip+0x4173]        # f019 <_IO_stdin_used+0x19>
    aea6:	48 89 c7             	mov    rdi,rax
    aea9:	b8 00 00 00 00       	mov    eax,0x0
    aeae:	e8 3d 62 ff ff       	call   10f0 <printf@plt>
    aeb3:	b8 00 00 00 00       	mov    eax,0x0
    aeb8:	e8 b3 63 ff ff       	call   1270 <get_input>
    aebd:	89 45 fc             	mov    DWORD PTR [rbp-0x4],eax
    aec0:	81 7d fc a8 01 00 00 	cmp    DWORD PTR [rbp-0x4],0x1a8
    aec7:	0f 84 c1 f8 ff ff    	je     a78e <main+0x9477>
    aecd:	81 7d fc 44 02 00 00 	cmp    DWORD PTR [rbp-0x4],0x244
    aed4:	75 05                	jne    aedb <main+0x9bc4>
    aed6:	e9 e9 2e 00 00       	jmp    ddc4 <main+0xcaad>
    aedb:	48 8d 05 46 41 00 00 	lea    rax,[rip+0x4146]        # f028 <_IO_stdin_used+0x28>
    aee2:	48 89 c7             	mov    rdi,rax
    aee5:	e8 d6 61 ff ff       	call   10c0 <puts@plt>
    aeea:	bf 01 00 00 00       	mov    edi,0x1
    aeef:	e8 3c 62 ff ff       	call   1130 <exit@plt>
    aef4:	be be 01 00 00       	mov    esi,0x1be
    aef9:	48 8d 05 19 41 00 00 	lea    rax,[rip+0x4119]        # f019 <_IO_stdin_used+0x19>
    af00:	48 89 c7             	mov    rdi,rax
    af03:	b8 00 00 00 00       	mov    eax,0x0
    af08:	e8 e3 61 ff ff       	call   10f0 <printf@plt>
    af0d:	b8 00 00 00 00       	mov    eax,0x0
    af12:	e8 59 63 ff ff       	call   1270 <get_input>
    af17:	89 45 fc             	mov    DWORD PTR [rbp-0x4],eax
    af1a:	81 7d fc b7 00 00 00 	cmp    DWORD PTR [rbp-0x4],0xb7
    af21:	75 05                	jne    af28 <main+0x9c11>
    af23:	e9 c3 a3 ff ff       	jmp    52eb <main+0x3fd4>
    af28:	81 7d fc 83 00 00 00 	cmp    DWORD PTR [rbp-0x4],0x83
    af2f:	75 05                	jne    af36 <main+0x9c1f>
    af31:	e9 a8 91 ff ff       	jmp    40de <main+0x2dc7>
    af36:	83 7d fc 18          	cmp    DWORD PTR [rbp-0x4],0x18
    af3a:	0f 84 26 6c ff ff    	je     1b66 <main+0x84f>
    af40:	48 8d 05 e1 40 00 00 	lea    rax,[rip+0x40e1]        # f028 <_IO_stdin_used+0x28>
    af47:	48 89 c7             	mov    rdi,rax
    af4a:	e8 71 61 ff ff       	call   10c0 <puts@plt>
    af4f:	bf 01 00 00 00       	mov    edi,0x1
    af54:	e8 d7 61 ff ff       	call   1130 <exit@plt>
    af59:	90                   	nop
    af5a:	be bf 01 00 00       	mov    esi,0x1bf
    af5f:	48 8d 05 b3 40 00 00 	lea    rax,[rip+0x40b3]        # f019 <_IO_stdin_used+0x19>
    af66:	48 89 c7             	mov    rdi,rax
    af69:	b8 00 00 00 00       	mov    eax,0x0
    af6e:	e8 7d 61 ff ff       	call   10f0 <printf@plt>
    af73:	b8 00 00 00 00       	mov    eax,0x0
    af78:	e8 f3 62 ff ff       	call   1270 <get_input>
    af7d:	89 45 fc             	mov    DWORD PTR [rbp-0x4],eax
    af80:	81 7d fc 8f 01 00 00 	cmp    DWORD PTR [rbp-0x4],0x18f
    af87:	75 05                	jne    af8e <main+0x9c77>
    af89:	e9 f1 ee ff ff       	jmp    9e7f <main+0x8b68>
    af8e:	48 8d 05 93 40 00 00 	lea    rax,[rip+0x4093]        # f028 <_IO_stdin_used+0x28>
    af95:	48 89 c7             	mov    rdi,rax
    af98:	e8 23 61 ff ff       	call   10c0 <puts@plt>
    af9d:	bf 01 00 00 00       	mov    edi,0x1
    afa2:	e8 89 61 ff ff       	call   1130 <exit@plt>
    afa7:	be c0 01 00 00       	mov    esi,0x1c0
    afac:	48 8d 05 66 40 00 00 	lea    rax,[rip+0x4066]        # f019 <_IO_stdin_used+0x19>
    afb3:	48 89 c7             	mov    rdi,rax
    afb6:	b8 00 00 00 00       	mov    eax,0x0
    afbb:	e8 30 61 ff ff       	call   10f0 <printf@plt>
    afc0:	b8 00 00 00 00       	mov    eax,0x0
    afc5:	e8 a6 62 ff ff       	call   1270 <get_input>
    afca:	89 45 fc             	mov    DWORD PTR [rbp-0x4],eax
    afcd:	81 7d fc 95 00 00 00 	cmp    DWORD PTR [rbp-0x4],0x95
    afd4:	75 05                	jne    afdb <main+0x9cc4>
    afd6:	e9 2a 97 ff ff       	jmp    4705 <main+0x33ee>
    afdb:	81 7d fc 9d 00 00 00 	cmp    DWORD PTR [rbp-0x4],0x9d
    afe2:	75 05                	jne    afe9 <main+0x9cd2>
    afe4:	e9 08 9a ff ff       	jmp    49f1 <main+0x36da>
    afe9:	48 8d 05 38 40 00 00 	lea    rax,[rip+0x4038]        # f028 <_IO_stdin_used+0x28>
    aff0:	48 89 c7             	mov    rdi,rax
    aff3:	e8 c8 60 ff ff       	call   10c0 <puts@plt>
    aff8:	bf 01 00 00 00       	mov    edi,0x1
    affd:	e8 2e 61 ff ff       	call   1130 <exit@plt>
    b002:	be c1 01 00 00       	mov    esi,0x1c1
    b007:	48 8d 05 0b 40 00 00 	lea    rax,[rip+0x400b]        # f019 <_IO_stdin_used+0x19>
    b00e:	48 89 c7             	mov    rdi,rax
    b011:	b8 00 00 00 00       	mov    eax,0x0
    b016:	e8 d5 60 ff ff       	call   10f0 <printf@plt>
    b01b:	b8 00 00 00 00       	mov    eax,0x0
    b020:	e8 4b 62 ff ff       	call   1270 <get_input>
    b025:	89 45 fc             	mov    DWORD PTR [rbp-0x4],eax
    b028:	81 7d fc d8 00 00 00 	cmp    DWORD PTR [rbp-0x4],0xd8
    b02f:	75 05                	jne    b036 <main+0x9d1f>
    b031:	e9 23 ae ff ff       	jmp    5e59 <main+0x4b42>
    b036:	81 7d fc 9e 01 00 00 	cmp    DWORD PTR [rbp-0x4],0x19e
    b03d:	75 05                	jne    b044 <main+0x9d2d>
    b03f:	e9 a1 f3 ff ff       	jmp    a3e5 <main+0x90ce>
    b044:	81 7d fc 52 01 00 00 	cmp    DWORD PTR [rbp-0x4],0x152
    b04b:	75 05                	jne    b052 <main+0x9d3b>
    b04d:	e9 c4 d8 ff ff       	jmp    8916 <main+0x75ff>
    b052:	48 8d 05 cf 3f 00 00 	lea    rax,[rip+0x3fcf]        # f028 <_IO_stdin_used+0x28>
    b059:	48 89 c7             	mov    rdi,rax
    b05c:	e8 5f 60 ff ff       	call   10c0 <puts@plt>
    b061:	bf 01 00 00 00       	mov    edi,0x1
    b066:	e8 c5 60 ff ff       	call   1130 <exit@plt>
    b06b:	be c2 01 00 00       	mov    esi,0x1c2
    b070:	48 8d 05 a2 3f 00 00 	lea    rax,[rip+0x3fa2]        # f019 <_IO_stdin_used+0x19>
    b077:	48 89 c7             	mov    rdi,rax
    b07a:	b8 00 00 00 00       	mov    eax,0x0
    b07f:	e8 6c 60 ff ff       	call   10f0 <printf@plt>
    b084:	b8 00 00 00 00       	mov    eax,0x0
    b089:	e8 e2 61 ff ff       	call   1270 <get_input>
    b08e:	89 45 fc             	mov    DWORD PTR [rbp-0x4],eax
    b091:	83 7d fc 5a          	cmp    DWORD PTR [rbp-0x4],0x5a
    b095:	75 05                	jne    b09c <main+0x9d85>
    b097:	e9 9b 81 ff ff       	jmp    3237 <main+0x1f20>
    b09c:	81 7d fc 08 01 00 00 	cmp    DWORD PTR [rbp-0x4],0x108
    b0a3:	75 05                	jne    b0aa <main+0x9d93>
    b0a5:	e9 62 be ff ff       	jmp    6f0c <main+0x5bf5>
    b0aa:	48 8d 05 77 3f 00 00 	lea    rax,[rip+0x3f77]        # f028 <_IO_stdin_used+0x28>
    b0b1:	48 89 c7             	mov    rdi,rax
    b0b4:	e8 07 60 ff ff       	call   10c0 <puts@plt>
    b0b9:	bf 01 00 00 00       	mov    edi,0x1
    b0be:	e8 6d 60 ff ff       	call   1130 <exit@plt>
    b0c3:	be c3 01 00 00       	mov    esi,0x1c3
    b0c8:	48 8d 05 4a 3f 00 00 	lea    rax,[rip+0x3f4a]        # f019 <_IO_stdin_used+0x19>
    b0cf:	48 89 c7             	mov    rdi,rax
    b0d2:	b8 00 00 00 00       	mov    eax,0x0
    b0d7:	e8 14 60 ff ff       	call   10f0 <printf@plt>
    b0dc:	b8 00 00 00 00       	mov    eax,0x0
    b0e1:	e8 8a 61 ff ff       	call   1270 <get_input>
    b0e6:	89 45 fc             	mov    DWORD PTR [rbp-0x4],eax
    b0e9:	83 7d fc 78          	cmp    DWORD PTR [rbp-0x4],0x78
    b0ed:	75 05                	jne    b0f4 <main+0x9ddd>
    b0ef:	e9 ee 8b ff ff       	jmp    3ce2 <main+0x29cb>
    b0f4:	83 7d fc 0f          	cmp    DWORD PTR [rbp-0x4],0xf
    b0f8:	75 05                	jne    b0ff <main+0x9de8>
    b0fa:	e9 30 67 ff ff       	jmp    182f <main+0x518>
    b0ff:	48 8d 05 22 3f 00 00 	lea    rax,[rip+0x3f22]        # f028 <_IO_stdin_used+0x28>
    b106:	48 89 c7             	mov    rdi,rax
    b109:	e8 b2 5f ff ff       	call   10c0 <puts@plt>
    b10e:	bf 01 00 00 00       	mov    edi,0x1
    b113:	e8 18 60 ff ff       	call   1130 <exit@plt>
    b118:	be c4 01 00 00       	mov    esi,0x1c4
    b11d:	48 8d 05 f5 3e 00 00 	lea    rax,[rip+0x3ef5]        # f019 <_IO_stdin_used+0x19>
    b124:	48 89 c7             	mov    rdi,rax
    b127:	b8 00 00 00 00       	mov    eax,0x0
    b12c:	e8 bf 5f ff ff       	call   10f0 <printf@plt>
    b131:	b8 00 00 00 00       	mov    eax,0x0
    b136:	e8 35 61 ff ff       	call   1270 <get_input>
    b13b:	89 45 fc             	mov    DWORD PTR [rbp-0x4],eax
    b13e:	83 7d fc 34          	cmp    DWORD PTR [rbp-0x4],0x34
    b142:	75 05                	jne    b149 <main+0x9e32>
    b144:	e9 83 73 ff ff       	jmp    24cc <main+0x11b5>
    b149:	81 7d fc e8 01 00 00 	cmp    DWORD PTR [rbp-0x4],0x1e8
    b150:	75 05                	jne    b157 <main+0x9e40>
    b152:	e9 37 0c 00 00       	jmp    bd8e <main+0xaa77>
    b157:	81 7d fc 67 01 00 00 	cmp    DWORD PTR [rbp-0x4],0x167
    b15e:	75 05                	jne    b165 <main+0x9e4e>
    b160:	e9 e9 de ff ff       	jmp    904e <main+0x7d37>
    b165:	81 7d fc a4 01 00 00 	cmp    DWORD PTR [rbp-0x4],0x1a4
    b16c:	75 05                	jne    b173 <main+0x9e5c>
    b16e:	e9 97 f4 ff ff       	jmp    a60a <main+0x92f3>
    b173:	48 8d 05 ae 3e 00 00 	lea    rax,[rip+0x3eae]        # f028 <_IO_stdin_used+0x28>
    b17a:	48 89 c7             	mov    rdi,rax
    b17d:	e8 3e 5f ff ff       	call   10c0 <puts@plt>
    b182:	bf 01 00 00 00       	mov    edi,0x1
    b187:	e8 a4 5f ff ff       	call   1130 <exit@plt>
    b18c:	be c5 01 00 00       	mov    esi,0x1c5
    b191:	48 8d 05 81 3e 00 00 	lea    rax,[rip+0x3e81]        # f019 <_IO_stdin_used+0x19>
    b198:	48 89 c7             	mov    rdi,rax
    b19b:	b8 00 00 00 00       	mov    eax,0x0
    b1a0:	e8 4b 5f ff ff       	call   10f0 <printf@plt>
    b1a5:	b8 00 00 00 00       	mov    eax,0x0
    b1aa:	e8 c1 60 ff ff       	call   1270 <get_input>
    b1af:	89 45 fc             	mov    DWORD PTR [rbp-0x4],eax
    b1b2:	83 7d fc 01          	cmp    DWORD PTR [rbp-0x4],0x1
    b1b6:	0f 84 be 61 ff ff    	je     137a <main+0x63>
    b1bc:	81 7d fc 11 02 00 00 	cmp    DWORD PTR [rbp-0x4],0x211
    b1c3:	75 05                	jne    b1ca <main+0x9eb3>
    b1c5:	e9 b9 19 00 00       	jmp    cb83 <main+0xb86c>
    b1ca:	48 8d 05 57 3e 00 00 	lea    rax,[rip+0x3e57]        # f028 <_IO_stdin_used+0x28>
    b1d1:	48 89 c7             	mov    rdi,rax
    b1d4:	e8 e7 5e ff ff       	call   10c0 <puts@plt>
    b1d9:	bf 01 00 00 00       	mov    edi,0x1
    b1de:	e8 4d 5f ff ff       	call   1130 <exit@plt>
    b1e3:	be c6 01 00 00       	mov    esi,0x1c6
    b1e8:	48 8d 05 2a 3e 00 00 	lea    rax,[rip+0x3e2a]        # f019 <_IO_stdin_used+0x19>
    b1ef:	48 89 c7             	mov    rdi,rax
    b1f2:	b8 00 00 00 00       	mov    eax,0x0
    b1f7:	e8 f4 5e ff ff       	call   10f0 <printf@plt>
    b1fc:	b8 00 00 00 00       	mov    eax,0x0
    b201:	e8 6a 60 ff ff       	call   1270 <get_input>
    b206:	89 45 fc             	mov    DWORD PTR [rbp-0x4],eax
    b209:	81 7d fc d4 01 00 00 	cmp    DWORD PTR [rbp-0x4],0x1d4
    b210:	75 05                	jne    b217 <main+0x9f00>
    b212:	e9 99 04 00 00       	jmp    b6b0 <main+0xa399>
    b217:	81 7d fc d9 01 00 00 	cmp    DWORD PTR [rbp-0x4],0x1d9
    b21e:	0f 84 5d 06 00 00    	je     b881 <main+0xa56a>
    b224:	48 8d 05 fd 3d 00 00 	lea    rax,[rip+0x3dfd]        # f028 <_IO_stdin_used+0x28>
    b22b:	48 89 c7             	mov    rdi,rax
    b22e:	e8 8d 5e ff ff       	call   10c0 <puts@plt>
    b233:	bf 01 00 00 00       	mov    edi,0x1
    b238:	e8 f3 5e ff ff       	call   1130 <exit@plt>
    b23d:	90                   	nop
    b23e:	be c7 01 00 00       	mov    esi,0x1c7
    b243:	48 8d 05 cf 3d 00 00 	lea    rax,[rip+0x3dcf]        # f019 <_IO_stdin_used+0x19>
    b24a:	48 89 c7             	mov    rdi,rax
    b24d:	b8 00 00 00 00       	mov    eax,0x0
    b252:	e8 99 5e ff ff       	call   10f0 <printf@plt>
    b257:	b8 00 00 00 00       	mov    eax,0x0
    b25c:	e8 0f 60 ff ff       	call   1270 <get_input>
    b261:	89 45 fc             	mov    DWORD PTR [rbp-0x4],eax
    b264:	81 7d fc 16 02 00 00 	cmp    DWORD PTR [rbp-0x4],0x216
    b26b:	75 05                	jne    b272 <main+0x9f5b>
    b26d:	e9 e0 1a 00 00       	jmp    cd52 <main+0xba3b>
    b272:	48 8d 05 af 3d 00 00 	lea    rax,[rip+0x3daf]        # f028 <_IO_stdin_used+0x28>
    b279:	48 89 c7             	mov    rdi,rax
    b27c:	e8 3f 5e ff ff       	call   10c0 <puts@plt>
    b281:	bf 01 00 00 00       	mov    edi,0x1
    b286:	e8 a5 5e ff ff       	call   1130 <exit@plt>
    b28b:	90                   	nop
    b28c:	be c8 01 00 00       	mov    esi,0x1c8
    b291:	48 8d 05 81 3d 00 00 	lea    rax,[rip+0x3d81]        # f019 <_IO_stdin_used+0x19>
    b298:	48 89 c7             	mov    rdi,rax
    b29b:	b8 00 00 00 00       	mov    eax,0x0
    b2a0:	e8 4b 5e ff ff       	call   10f0 <printf@plt>
    b2a5:	b8 00 00 00 00       	mov    eax,0x0
    b2aa:	e8 c1 5f ff ff       	call   1270 <get_input>
    b2af:	89 45 fc             	mov    DWORD PTR [rbp-0x4],eax
    b2b2:	81 7d fc b8 01 00 00 	cmp    DWORD PTR [rbp-0x4],0x1b8
    b2b9:	75 05                	jne    b2c0 <main+0x9fa9>
    b2bb:	e9 25 fa ff ff       	jmp    ace5 <main+0x99ce>
    b2c0:	48 8d 05 61 3d 00 00 	lea    rax,[rip+0x3d61]        # f028 <_IO_stdin_used+0x28>
    b2c7:	48 89 c7             	mov    rdi,rax
    b2ca:	e8 f1 5d ff ff       	call   10c0 <puts@plt>
    b2cf:	bf 01 00 00 00       	mov    edi,0x1
    b2d4:	e8 57 5e ff ff       	call   1130 <exit@plt>
    b2d9:	be c9 01 00 00       	mov    esi,0x1c9
    b2de:	48 8d 05 34 3d 00 00 	lea    rax,[rip+0x3d34]        # f019 <_IO_stdin_used+0x19>
    b2e5:	48 89 c7             	mov    rdi,rax
    b2e8:	b8 00 00 00 00       	mov    eax,0x0
    b2ed:	e8 fe 5d ff ff       	call   10f0 <printf@plt>
    b2f2:	b8 00 00 00 00       	mov    eax,0x0
    b2f7:	e8 74 5f ff ff       	call   1270 <get_input>
    b2fc:	89 45 fc             	mov    DWORD PTR [rbp-0x4],eax
    b2ff:	81 7d fc a2 01 00 00 	cmp    DWORD PTR [rbp-0x4],0x1a2
    b306:	75 05                	jne    b30d <main+0x9ff6>
    b308:	e9 32 f2 ff ff       	jmp    a53f <main+0x9228>
    b30d:	81 7d fc 86 01 00 00 	cmp    DWORD PTR [rbp-0x4],0x186
    b314:	75 05                	jne    b31b <main+0xa004>
    b316:	e9 13 e8 ff ff       	jmp    9b2e <main+0x8817>
    b31b:	48 8d 05 06 3d 00 00 	lea    rax,[rip+0x3d06]        # f028 <_IO_stdin_used+0x28>
    b322:	48 89 c7             	mov    rdi,rax
    b325:	e8 96 5d ff ff       	call   10c0 <puts@plt>
    b32a:	bf 01 00 00 00       	mov    edi,0x1
    b32f:	e8 fc 5d ff ff       	call   1130 <exit@plt>
    b334:	90                   	nop
    b335:	be ca 01 00 00       	mov    esi,0x1ca
    b33a:	48 8d 05 d8 3c 00 00 	lea    rax,[rip+0x3cd8]        # f019 <_IO_stdin_used+0x19>
    b341:	48 89 c7             	mov    rdi,rax
    b344:	b8 00 00 00 00       	mov    eax,0x0
    b349:	e8 a2 5d ff ff       	call   10f0 <printf@plt>
    b34e:	b8 00 00 00 00       	mov    eax,0x0
    b353:	e8 18 5f ff ff       	call   1270 <get_input>
    b358:	89 45 fc             	mov    DWORD PTR [rbp-0x4],eax
    b35b:	81 7d fc 4c 02 00 00 	cmp    DWORD PTR [rbp-0x4],0x24c
    b362:	75 05                	jne    b369 <main+0xa052>
    b364:	e9 76 2d 00 00       	jmp    e0df <main+0xcdc8>
    b369:	48 8d 05 b8 3c 00 00 	lea    rax,[rip+0x3cb8]        # f028 <_IO_stdin_used+0x28>
    b370:	48 89 c7             	mov    rdi,rax
    b373:	e8 48 5d ff ff       	call   10c0 <puts@plt>
    b378:	bf 01 00 00 00       	mov    edi,0x1
    b37d:	e8 ae 5d ff ff       	call   1130 <exit@plt>
    b382:	be cb 01 00 00       	mov    esi,0x1cb
    b387:	48 8d 05 8b 3c 00 00 	lea    rax,[rip+0x3c8b]        # f019 <_IO_stdin_used+0x19>
    b38e:	48 89 c7             	mov    rdi,rax
    b391:	b8 00 00 00 00       	mov    eax,0x0
    b396:	e8 55 5d ff ff       	call   10f0 <printf@plt>
    b39b:	b8 00 00 00 00       	mov    eax,0x0
    b3a0:	e8 cb 5e ff ff       	call   1270 <get_input>
    b3a5:	89 45 fc             	mov    DWORD PTR [rbp-0x4],eax
    b3a8:	81 7d fc 2d 01 00 00 	cmp    DWORD PTR [rbp-0x4],0x12d
    b3af:	0f 84 20 c8 ff ff    	je     7bd5 <main+0x68be>
    b3b5:	81 7d fc ab 01 00 00 	cmp    DWORD PTR [rbp-0x4],0x1ab
    b3bc:	75 05                	jne    b3c3 <main+0xa0ac>
    b3be:	e9 e7 f4 ff ff       	jmp    a8aa <main+0x9593>
    b3c3:	48 8d 05 5e 3c 00 00 	lea    rax,[rip+0x3c5e]        # f028 <_IO_stdin_used+0x28>
    b3ca:	48 89 c7             	mov    rdi,rax
    b3cd:	e8 ee 5c ff ff       	call   10c0 <puts@plt>
    b3d2:	bf 01 00 00 00       	mov    edi,0x1
    b3d7:	e8 54 5d ff ff       	call   1130 <exit@plt>
    b3dc:	be cc 01 00 00       	mov    esi,0x1cc
    b3e1:	48 8d 05 31 3c 00 00 	lea    rax,[rip+0x3c31]        # f019 <_IO_stdin_used+0x19>
    b3e8:	48 89 c7             	mov    rdi,rax
    b3eb:	b8 00 00 00 00       	mov    eax,0x0
    b3f0:	e8 fb 5c ff ff       	call   10f0 <printf@plt>
    b3f5:	b8 00 00 00 00       	mov    eax,0x0
    b3fa:	e8 71 5e ff ff       	call   1270 <get_input>
    b3ff:	89 45 fc             	mov    DWORD PTR [rbp-0x4],eax
    b402:	81 7d fc b1 01 00 00 	cmp    DWORD PTR [rbp-0x4],0x1b1
    b409:	75 05                	jne    b410 <main+0xa0f9>
    b40b:	e9 78 f6 ff ff       	jmp    aa88 <main+0x9771>
    b410:	81 7d fc d5 01 00 00 	cmp    DWORD PTR [rbp-0x4],0x1d5
    b417:	75 05                	jne    b41e <main+0xa107>
    b419:	e9 ed 02 00 00       	jmp    b70b <main+0xa3f4>
    b41e:	48 8d 05 03 3c 00 00 	lea    rax,[rip+0x3c03]        # f028 <_IO_stdin_used+0x28>
    b425:	48 89 c7             	mov    rdi,rax
    b428:	e8 93 5c ff ff       	call   10c0 <puts@plt>
    b42d:	bf 01 00 00 00       	mov    edi,0x1
    b432:	e8 f9 5c ff ff       	call   1130 <exit@plt>
    b437:	be cd 01 00 00       	mov    esi,0x1cd
    b43c:	48 8d 05 d6 3b 00 00 	lea    rax,[rip+0x3bd6]        # f019 <_IO_stdin_used+0x19>
    b443:	48 89 c7             	mov    rdi,rax
    b446:	b8 00 00 00 00       	mov    eax,0x0
    b44b:	e8 a0 5c ff ff       	call   10f0 <printf@plt>
    b450:	b8 00 00 00 00       	mov    eax,0x0
    b455:	e8 16 5e ff ff       	call   1270 <get_input>
    b45a:	89 45 fc             	mov    DWORD PTR [rbp-0x4],eax
    b45d:	83 7d fc 7d          	cmp    DWORD PTR [rbp-0x4],0x7d
    b461:	75 05                	jne    b468 <main+0xa151>
    b463:	e9 5d 8a ff ff       	jmp    3ec5 <main+0x2bae>
    b468:	81 7d fc 9a 01 00 00 	cmp    DWORD PTR [rbp-0x4],0x19a
    b46f:	0f 84 fa ed ff ff    	je     a26f <main+0x8f58>
    b475:	48 8d 05 ac 3b 00 00 	lea    rax,[rip+0x3bac]        # f028 <_IO_stdin_used+0x28>
    b47c:	48 89 c7             	mov    rdi,rax
    b47f:	e8 3c 5c ff ff       	call   10c0 <puts@plt>
    b484:	bf 01 00 00 00       	mov    edi,0x1
    b489:	e8 a2 5c ff ff       	call   1130 <exit@plt>
    b48e:	be ce 01 00 00       	mov    esi,0x1ce
    b493:	48 8d 05 7f 3b 00 00 	lea    rax,[rip+0x3b7f]        # f019 <_IO_stdin_used+0x19>
    b49a:	48 89 c7             	mov    rdi,rax
    b49d:	b8 00 00 00 00       	mov    eax,0x0
    b4a2:	e8 49 5c ff ff       	call   10f0 <printf@plt>
    b4a7:	b8 00 00 00 00       	mov    eax,0x0
    b4ac:	e8 bf 5d ff ff       	call   1270 <get_input>
    b4b1:	89 45 fc             	mov    DWORD PTR [rbp-0x4],eax
    b4b4:	81 7d fc 20 02 00 00 	cmp    DWORD PTR [rbp-0x4],0x220
    b4bb:	0f 84 06 1c 00 00    	je     d0c7 <main+0xbdb0>
    b4c1:	81 7d fc 29 02 00 00 	cmp    DWORD PTR [rbp-0x4],0x229
    b4c8:	75 05                	jne    b4cf <main+0xa1b8>
    b4ca:	e9 08 1f 00 00       	jmp    d3d7 <main+0xc0c0>
    b4cf:	48 8d 05 52 3b 00 00 	lea    rax,[rip+0x3b52]        # f028 <_IO_stdin_used+0x28>
    b4d6:	48 89 c7             	mov    rdi,rax
    b4d9:	e8 e2 5b ff ff       	call   10c0 <puts@plt>
    b4de:	bf 01 00 00 00       	mov    edi,0x1
    b4e3:	e8 48 5c ff ff       	call   1130 <exit@plt>
    b4e8:	90                   	nop
    b4e9:	be cf 01 00 00       	mov    esi,0x1cf
    b4ee:	48 8d 05 24 3b 00 00 	lea    rax,[rip+0x3b24]        # f019 <_IO_stdin_used+0x19>
    b4f5:	48 89 c7             	mov    rdi,rax
    b4f8:	b8 00 00 00 00       	mov    eax,0x0
    b4fd:	e8 ee 5b ff ff       	call   10f0 <printf@plt>
    b502:	b8 00 00 00 00       	mov    eax,0x0
    b507:	e8 64 5d ff ff       	call   1270 <get_input>
    b50c:	89 45 fc             	mov    DWORD PTR [rbp-0x4],eax
    b50f:	81 7d fc 02 02 00 00 	cmp    DWORD PTR [rbp-0x4],0x202
    b516:	75 05                	jne    b51d <main+0xa206>
    b518:	e9 4f 11 00 00       	jmp    c66c <main+0xb355>
    b51d:	48 8d 05 04 3b 00 00 	lea    rax,[rip+0x3b04]        # f028 <_IO_stdin_used+0x28>
    b524:	48 89 c7             	mov    rdi,rax
    b527:	e8 94 5b ff ff       	call   10c0 <puts@plt>
    b52c:	bf 01 00 00 00       	mov    edi,0x1
    b531:	e8 fa 5b ff ff       	call   1130 <exit@plt>
    b536:	be d0 01 00 00       	mov    esi,0x1d0
    b53b:	48 8d 05 d7 3a 00 00 	lea    rax,[rip+0x3ad7]        # f019 <_IO_stdin_used+0x19>
    b542:	48 89 c7             	mov    rdi,rax
    b545:	b8 00 00 00 00       	mov    eax,0x0
    b54a:	e8 a1 5b ff ff       	call   10f0 <printf@plt>
    b54f:	b8 00 00 00 00       	mov    eax,0x0
    b554:	e8 17 5d ff ff       	call   1270 <get_input>
    b559:	89 45 fc             	mov    DWORD PTR [rbp-0x4],eax
    b55c:	81 7d fc df 00 00 00 	cmp    DWORD PTR [rbp-0x4],0xdf
    b563:	75 05                	jne    b56a <main+0xa253>
    b565:	e9 7d ab ff ff       	jmp    60e7 <main+0x4dd0>
    b56a:	81 7d fc f4 01 00 00 	cmp    DWORD PTR [rbp-0x4],0x1f4
    b571:	75 05                	jne    b578 <main+0xa261>
    b573:	e9 3a 0c 00 00       	jmp    c1b2 <main+0xae9b>
    b578:	48 8d 05 a9 3a 00 00 	lea    rax,[rip+0x3aa9]        # f028 <_IO_stdin_used+0x28>
    b57f:	48 89 c7             	mov    rdi,rax
    b582:	e8 39 5b ff ff       	call   10c0 <puts@plt>
    b587:	bf 01 00 00 00       	mov    edi,0x1
    b58c:	e8 9f 5b ff ff       	call   1130 <exit@plt>
    b591:	be d1 01 00 00       	mov    esi,0x1d1
    b596:	48 8d 05 7c 3a 00 00 	lea    rax,[rip+0x3a7c]        # f019 <_IO_stdin_used+0x19>
    b59d:	48 89 c7             	mov    rdi,rax
    b5a0:	b8 00 00 00 00       	mov    eax,0x0
    b5a5:	e8 46 5b ff ff       	call   10f0 <printf@plt>
    b5aa:	b8 00 00 00 00       	mov    eax,0x0
    b5af:	e8 bc 5c ff ff       	call   1270 <get_input>
    b5b4:	89 45 fc             	mov    DWORD PTR [rbp-0x4],eax
    b5b7:	83 7d fc 4c          	cmp    DWORD PTR [rbp-0x4],0x4c
    b5bb:	75 05                	jne    b5c2 <main+0xa2ab>
    b5bd:	e9 57 77 ff ff       	jmp    2d19 <main+0x1a02>
    b5c2:	81 7d fc 9d 00 00 00 	cmp    DWORD PTR [rbp-0x4],0x9d
    b5c9:	75 05                	jne    b5d0 <main+0xa2b9>
    b5cb:	e9 21 94 ff ff       	jmp    49f1 <main+0x36da>
    b5d0:	48 8d 05 51 3a 00 00 	lea    rax,[rip+0x3a51]        # f028 <_IO_stdin_used+0x28>
    b5d7:	48 89 c7             	mov    rdi,rax
    b5da:	e8 e1 5a ff ff       	call   10c0 <puts@plt>
    b5df:	bf 01 00 00 00       	mov    edi,0x1
    b5e4:	e8 47 5b ff ff       	call   1130 <exit@plt>
    b5e9:	be d2 01 00 00       	mov    esi,0x1d2
    b5ee:	48 8d 05 24 3a 00 00 	lea    rax,[rip+0x3a24]        # f019 <_IO_stdin_used+0x19>
    b5f5:	48 89 c7             	mov    rdi,rax
    b5f8:	b8 00 00 00 00       	mov    eax,0x0
    b5fd:	e8 ee 5a ff ff       	call   10f0 <printf@plt>
    b602:	b8 00 00 00 00       	mov    eax,0x0
    b607:	e8 64 5c ff ff       	call   1270 <get_input>
    b60c:	89 45 fc             	mov    DWORD PTR [rbp-0x4],eax
    b60f:	83 7d fc 76          	cmp    DWORD PTR [rbp-0x4],0x76
    b613:	0f 84 15 86 ff ff    	je     3c2e <main+0x2917>
    b619:	81 7d fc d3 01 00 00 	cmp    DWORD PTR [rbp-0x4],0x1d3
    b620:	75 02                	jne    b624 <main+0xa30d>
    b622:	eb 26                	jmp    b64a <main+0xa333>
    b624:	81 7d fc b9 01 00 00 	cmp    DWORD PTR [rbp-0x4],0x1b9
    b62b:	0f 84 2a f7 ff ff    	je     ad5b <main+0x9a44>
    b631:	48 8d 05 f0 39 00 00 	lea    rax,[rip+0x39f0]        # f028 <_IO_stdin_used+0x28>
    b638:	48 89 c7             	mov    rdi,rax
    b63b:	e8 80 5a ff ff       	call   10c0 <puts@plt>
    b640:	bf 01 00 00 00       	mov    edi,0x1
    b645:	e8 e6 5a ff ff       	call   1130 <exit@plt>
    b64a:	be d3 01 00 00       	mov    esi,0x1d3
    b64f:	48 8d 05 c3 39 00 00 	lea    rax,[rip+0x39c3]        # f019 <_IO_stdin_used+0x19>
    b656:	48 89 c7             	mov    rdi,rax
    b659:	b8 00 00 00 00       	mov    eax,0x0
    b65e:	e8 8d 5a ff ff       	call   10f0 <printf@plt>
    b663:	b8 00 00 00 00       	mov    eax,0x0
    b668:	e8 03 5c ff ff       	call   1270 <get_input>
    b66d:	89 45 fc             	mov    DWORD PTR [rbp-0x4],eax
    b670:	81 7d fc d2 01 00 00 	cmp    DWORD PTR [rbp-0x4],0x1d2
    b677:	75 05                	jne    b67e <main+0xa367>
    b679:	e9 6b ff ff ff       	jmp    b5e9 <main+0xa2d2>
    b67e:	81 7d fc 6e 01 00 00 	cmp    DWORD PTR [rbp-0x4],0x16e
    b685:	75 05                	jne    b68c <main+0xa375>
    b687:	e9 1c dc ff ff       	jmp    92a8 <main+0x7f91>
    b68c:	83 7d fc 17          	cmp    DWORD PTR [rbp-0x4],0x17
    b690:	75 05                	jne    b697 <main+0xa380>
    b692:	e9 77 64 ff ff       	jmp    1b0e <main+0x7f7>
    b697:	48 8d 05 8a 39 00 00 	lea    rax,[rip+0x398a]        # f028 <_IO_stdin_used+0x28>
    b69e:	48 89 c7             	mov    rdi,rax
    b6a1:	e8 1a 5a ff ff       	call   10c0 <puts@plt>
    b6a6:	bf 01 00 00 00       	mov    edi,0x1
    b6ab:	e8 80 5a ff ff       	call   1130 <exit@plt>
    b6b0:	be d4 01 00 00       	mov    esi,0x1d4
    b6b5:	48 8d 05 5d 39 00 00 	lea    rax,[rip+0x395d]        # f019 <_IO_stdin_used+0x19>
    b6bc:	48 89 c7             	mov    rdi,rax
    b6bf:	b8 00 00 00 00       	mov    eax,0x0
    b6c4:	e8 27 5a ff ff       	call   10f0 <printf@plt>
    b6c9:	b8 00 00 00 00       	mov    eax,0x0
    b6ce:	e8 9d 5b ff ff       	call   1270 <get_input>
    b6d3:	89 45 fc             	mov    DWORD PTR [rbp-0x4],eax
    b6d6:	81 7d fc 43 02 00 00 	cmp    DWORD PTR [rbp-0x4],0x243
    b6dd:	75 05                	jne    b6e4 <main+0xa3cd>
    b6df:	e9 85 26 00 00       	jmp    dd69 <main+0xca52>
    b6e4:	81 7d fc c6 01 00 00 	cmp    DWORD PTR [rbp-0x4],0x1c6
    b6eb:	75 05                	jne    b6f2 <main+0xa3db>
    b6ed:	e9 f1 fa ff ff       	jmp    b1e3 <main+0x9ecc>
    b6f2:	48 8d 05 2f 39 00 00 	lea    rax,[rip+0x392f]        # f028 <_IO_stdin_used+0x28>
    b6f9:	48 89 c7             	mov    rdi,rax
    b6fc:	e8 bf 59 ff ff       	call   10c0 <puts@plt>
    b701:	bf 01 00 00 00       	mov    edi,0x1
    b706:	e8 25 5a ff ff       	call   1130 <exit@plt>
    b70b:	be d5 01 00 00       	mov    esi,0x1d5
    b710:	48 8d 05 02 39 00 00 	lea    rax,[rip+0x3902]        # f019 <_IO_stdin_used+0x19>
    b717:	48 89 c7             	mov    rdi,rax
    b71a:	b8 00 00 00 00       	mov    eax,0x0
    b71f:	e8 cc 59 ff ff       	call   10f0 <printf@plt>
    b724:	b8 00 00 00 00       	mov    eax,0x0
    b729:	e8 42 5b ff ff       	call   1270 <get_input>
    b72e:	89 45 fc             	mov    DWORD PTR [rbp-0x4],eax
    b731:	81 7d fc cc 01 00 00 	cmp    DWORD PTR [rbp-0x4],0x1cc
    b738:	75 05                	jne    b73f <main+0xa428>
    b73a:	e9 9d fc ff ff       	jmp    b3dc <main+0xa0c5>
    b73f:	81 7d fc 2f 01 00 00 	cmp    DWORD PTR [rbp-0x4],0x12f
    b746:	75 05                	jne    b74d <main+0xa436>
    b748:	e9 48 c5 ff ff       	jmp    7c95 <main+0x697e>
    b74d:	48 8d 05 d4 38 00 00 	lea    rax,[rip+0x38d4]        # f028 <_IO_stdin_used+0x28>
    b754:	48 89 c7             	mov    rdi,rax
    b757:	e8 64 59 ff ff       	call   10c0 <puts@plt>
    b75c:	bf 01 00 00 00       	mov    edi,0x1
    b761:	e8 ca 59 ff ff       	call   1130 <exit@plt>
    b766:	be d6 01 00 00       	mov    esi,0x1d6
    b76b:	48 8d 05 a7 38 00 00 	lea    rax,[rip+0x38a7]        # f019 <_IO_stdin_used+0x19>
    b772:	48 89 c7             	mov    rdi,rax
    b775:	b8 00 00 00 00       	mov    eax,0x0
    b77a:	e8 71 59 ff ff       	call   10f0 <printf@plt>
    b77f:	b8 00 00 00 00       	mov    eax,0x0
    b784:	e8 e7 5a ff ff       	call   1270 <get_input>
    b789:	89 45 fc             	mov    DWORD PTR [rbp-0x4],eax
    b78c:	81 7d fc d7 01 00 00 	cmp    DWORD PTR [rbp-0x4],0x1d7
    b793:	75 02                	jne    b797 <main+0xa480>
    b795:	eb 27                	jmp    b7be <main+0xa4a7>
    b797:	81 7d fc 6e 01 00 00 	cmp    DWORD PTR [rbp-0x4],0x16e
    b79e:	75 05                	jne    b7a5 <main+0xa48e>
    b7a0:	e9 03 db ff ff       	jmp    92a8 <main+0x7f91>
    b7a5:	48 8d 05 7c 38 00 00 	lea    rax,[rip+0x387c]        # f028 <_IO_stdin_used+0x28>
    b7ac:	48 89 c7             	mov    rdi,rax
    b7af:	e8 0c 59 ff ff       	call   10c0 <puts@plt>
    b7b4:	bf 01 00 00 00       	mov    edi,0x1
    b7b9:	e8 72 59 ff ff       	call   1130 <exit@plt>
    b7be:	be d7 01 00 00       	mov    esi,0x1d7
    b7c3:	48 8d 05 4f 38 00 00 	lea    rax,[rip+0x384f]        # f019 <_IO_stdin_used+0x19>
    b7ca:	48 89 c7             	mov    rdi,rax
    b7cd:	b8 00 00 00 00       	mov    eax,0x0
    b7d2:	e8 19 59 ff ff       	call   10f0 <printf@plt>
    b7d7:	b8 00 00 00 00       	mov    eax,0x0
    b7dc:	e8 8f 5a ff ff       	call   1270 <get_input>
    b7e1:	89 45 fc             	mov    DWORD PTR [rbp-0x4],eax
    b7e4:	81 7d fc e0 01 00 00 	cmp    DWORD PTR [rbp-0x4],0x1e0
    b7eb:	75 05                	jne    b7f2 <main+0xa4db>
    b7ed:	e9 da 02 00 00       	jmp    bacc <main+0xa7b5>
    b7f2:	81 7d fc d6 01 00 00 	cmp    DWORD PTR [rbp-0x4],0x1d6
    b7f9:	75 05                	jne    b800 <main+0xa4e9>
    b7fb:	e9 66 ff ff ff       	jmp    b766 <main+0xa44f>
    b800:	81 7d fc 6a 01 00 00 	cmp    DWORD PTR [rbp-0x4],0x16a
    b807:	0f 84 42 d9 ff ff    	je     914f <main+0x7e38>
    b80d:	48 8d 05 14 38 00 00 	lea    rax,[rip+0x3814]        # f028 <_IO_stdin_used+0x28>
    b814:	48 89 c7             	mov    rdi,rax
    b817:	e8 a4 58 ff ff       	call   10c0 <puts@plt>
    b81c:	bf 01 00 00 00       	mov    edi,0x1
    b821:	e8 0a 59 ff ff       	call   1130 <exit@plt>
    b826:	be d8 01 00 00       	mov    esi,0x1d8
    b82b:	48 8d 05 e7 37 00 00 	lea    rax,[rip+0x37e7]        # f019 <_IO_stdin_used+0x19>
    b832:	48 89 c7             	mov    rdi,rax
    b835:	b8 00 00 00 00       	mov    eax,0x0
    b83a:	e8 b1 58 ff ff       	call   10f0 <printf@plt>
    b83f:	b8 00 00 00 00       	mov    eax,0x0
    b844:	e8 27 5a ff ff       	call   1270 <get_input>
    b849:	89 45 fc             	mov    DWORD PTR [rbp-0x4],eax
    b84c:	81 7d fc 47 01 00 00 	cmp    DWORD PTR [rbp-0x4],0x147
    b853:	75 05                	jne    b85a <main+0xa543>
    b855:	e9 b8 cc ff ff       	jmp    8512 <main+0x71fb>
    b85a:	81 7d fc 89 01 00 00 	cmp    DWORD PTR [rbp-0x4],0x189
    b861:	75 05                	jne    b868 <main+0xa551>
    b863:	e9 d5 e3 ff ff       	jmp    9c3d <main+0x8926>
    b868:	48 8d 05 b9 37 00 00 	lea    rax,[rip+0x37b9]        # f028 <_IO_stdin_used+0x28>
    b86f:	48 89 c7             	mov    rdi,rax
    b872:	e8 49 58 ff ff       	call   10c0 <puts@plt>
    b877:	bf 01 00 00 00       	mov    edi,0x1
    b87c:	e8 af 58 ff ff       	call   1130 <exit@plt>
    b881:	90                   	nop
    b882:	be d9 01 00 00       	mov    esi,0x1d9
    b887:	48 8d 05 8b 37 00 00 	lea    rax,[rip+0x378b]        # f019 <_IO_stdin_used+0x19>
    b88e:	48 89 c7             	mov    rdi,rax
    b891:	b8 00 00 00 00       	mov    eax,0x0
    b896:	e8 55 58 ff ff       	call   10f0 <printf@plt>
    b89b:	b8 00 00 00 00       	mov    eax,0x0
    b8a0:	e8 cb 59 ff ff       	call   1270 <get_input>
    b8a5:	89 45 fc             	mov    DWORD PTR [rbp-0x4],eax
    b8a8:	81 7d fc c6 01 00 00 	cmp    DWORD PTR [rbp-0x4],0x1c6
    b8af:	75 05                	jne    b8b6 <main+0xa59f>
    b8b1:	e9 2d f9 ff ff       	jmp    b1e3 <main+0x9ecc>
    b8b6:	48 8d 05 6b 37 00 00 	lea    rax,[rip+0x376b]        # f028 <_IO_stdin_used+0x28>
    b8bd:	48 89 c7             	mov    rdi,rax
    b8c0:	e8 fb 57 ff ff       	call   10c0 <puts@plt>
    b8c5:	bf 01 00 00 00       	mov    edi,0x1
    b8ca:	e8 61 58 ff ff       	call   1130 <exit@plt>
    b8cf:	90                   	nop
    b8d0:	be da 01 00 00       	mov    esi,0x1da
    b8d5:	48 8d 05 3d 37 00 00 	lea    rax,[rip+0x373d]        # f019 <_IO_stdin_used+0x19>
    b8dc:	48 89 c7             	mov    rdi,rax
    b8df:	b8 00 00 00 00       	mov    eax,0x0
    b8e4:	e8 07 58 ff ff       	call   10f0 <printf@plt>
    b8e9:	b8 00 00 00 00       	mov    eax,0x0
    b8ee:	e8 7d 59 ff ff       	call   1270 <get_input>
    b8f3:	89 45 fc             	mov    DWORD PTR [rbp-0x4],eax
    b8f6:	81 7d fc ec 01 00 00 	cmp    DWORD PTR [rbp-0x4],0x1ec
    b8fd:	75 05                	jne    b904 <main+0xa5ed>
    b8ff:	e9 fa 05 00 00       	jmp    befe <main+0xabe7>
    b904:	48 8d 05 1d 37 00 00 	lea    rax,[rip+0x371d]        # f028 <_IO_stdin_used+0x28>
    b90b:	48 89 c7             	mov    rdi,rax
    b90e:	e8 ad 57 ff ff       	call   10c0 <puts@plt>
    b913:	bf 01 00 00 00       	mov    edi,0x1
    b918:	e8 13 58 ff ff       	call   1130 <exit@plt>
    b91d:	be db 01 00 00       	mov    esi,0x1db
    b922:	48 8d 05 f0 36 00 00 	lea    rax,[rip+0x36f0]        # f019 <_IO_stdin_used+0x19>
    b929:	48 89 c7             	mov    rdi,rax
    b92c:	b8 00 00 00 00       	mov    eax,0x0
    b931:	e8 ba 57 ff ff       	call   10f0 <printf@plt>
    b936:	b8 00 00 00 00       	mov    eax,0x0
    b93b:	e8 30 59 ff ff       	call   1270 <get_input>
    b940:	89 45 fc             	mov    DWORD PTR [rbp-0x4],eax
    b943:	81 7d fc b0 01 00 00 	cmp    DWORD PTR [rbp-0x4],0x1b0
    b94a:	0f 84 ea f0 ff ff    	je     aa3a <main+0x9723>
    b950:	81 7d fc 9f 00 00 00 	cmp    DWORD PTR [rbp-0x4],0x9f
    b957:	75 05                	jne    b95e <main+0xa647>
    b959:	e9 46 91 ff ff       	jmp    4aa4 <main+0x378d>
    b95e:	48 8d 05 c3 36 00 00 	lea    rax,[rip+0x36c3]        # f028 <_IO_stdin_used+0x28>
    b965:	48 89 c7             	mov    rdi,rax
    b968:	e8 53 57 ff ff       	call   10c0 <puts@plt>
    b96d:	bf 01 00 00 00       	mov    edi,0x1
    b972:	e8 b9 57 ff ff       	call   1130 <exit@plt>
    b977:	be dc 01 00 00       	mov    esi,0x1dc
    b97c:	48 8d 05 96 36 00 00 	lea    rax,[rip+0x3696]        # f019 <_IO_stdin_used+0x19>
    b983:	48 89 c7             	mov    rdi,rax
    b986:	b8 00 00 00 00       	mov    eax,0x0
    b98b:	e8 60 57 ff ff       	call   10f0 <printf@plt>
    b990:	b8 00 00 00 00       	mov    eax,0x0
    b995:	e8 d6 58 ff ff       	call   1270 <get_input>
    b99a:	89 45 fc             	mov    DWORD PTR [rbp-0x4],eax
    b99d:	81 7d fc ff 01 00 00 	cmp    DWORD PTR [rbp-0x4],0x1ff
    b9a4:	0f 84 d8 0b 00 00    	je     c582 <main+0xb26b>
    b9aa:	83 7d fc 3f          	cmp    DWORD PTR [rbp-0x4],0x3f
    b9ae:	75 05                	jne    b9b5 <main+0xa69e>
    b9b0:	e9 c4 6e ff ff       	jmp    2879 <main+0x1562>
    b9b5:	81 7d fc 40 01 00 00 	cmp    DWORD PTR [rbp-0x4],0x140
    b9bc:	75 05                	jne    b9c3 <main+0xa6ac>
    b9be:	e9 df c8 ff ff       	jmp    82a2 <main+0x6f8b>
    b9c3:	48 8d 05 5e 36 00 00 	lea    rax,[rip+0x365e]        # f028 <_IO_stdin_used+0x28>
    b9ca:	48 89 c7             	mov    rdi,rax
    b9cd:	e8 ee 56 ff ff       	call   10c0 <puts@plt>
    b9d2:	bf 01 00 00 00       	mov    edi,0x1
    b9d7:	e8 54 57 ff ff       	call   1130 <exit@plt>
    b9dc:	be dd 01 00 00       	mov    esi,0x1dd
    b9e1:	48 8d 05 31 36 00 00 	lea    rax,[rip+0x3631]        # f019 <_IO_stdin_used+0x19>
    b9e8:	48 89 c7             	mov    rdi,rax
    b9eb:	b8 00 00 00 00       	mov    eax,0x0
    b9f0:	e8 fb 56 ff ff       	call   10f0 <printf@plt>
    b9f5:	b8 00 00 00 00       	mov    eax,0x0
    b9fa:	e8 71 58 ff ff       	call   1270 <get_input>
    b9ff:	89 45 fc             	mov    DWORD PTR [rbp-0x4],eax
    ba02:	81 7d fc 15 02 00 00 	cmp    DWORD PTR [rbp-0x4],0x215
    ba09:	75 05                	jne    ba10 <main+0xa6f9>
    ba0b:	e9 da 12 00 00       	jmp    ccea <main+0xb9d3>
    ba10:	81 7d fc ce 00 00 00 	cmp    DWORD PTR [rbp-0x4],0xce
    ba17:	0f 84 da a0 ff ff    	je     5af7 <main+0x47e0>
    ba1d:	48 8d 05 04 36 00 00 	lea    rax,[rip+0x3604]        # f028 <_IO_stdin_used+0x28>
    ba24:	48 89 c7             	mov    rdi,rax
    ba27:	e8 94 56 ff ff       	call   10c0 <puts@plt>
    ba2c:	bf 01 00 00 00       	mov    edi,0x1
    ba31:	e8 fa 56 ff ff       	call   1130 <exit@plt>
    ba36:	90                   	nop
    ba37:	be de 01 00 00       	mov    esi,0x1de
    ba3c:	48 8d 05 d6 35 00 00 	lea    rax,[rip+0x35d6]        # f019 <_IO_stdin_used+0x19>
    ba43:	48 89 c7             	mov    rdi,rax
    ba46:	b8 00 00 00 00       	mov    eax,0x0
    ba4b:	e8 a0 56 ff ff       	call   10f0 <printf@plt>
    ba50:	b8 00 00 00 00       	mov    eax,0x0
    ba55:	e8 16 58 ff ff       	call   1270 <get_input>
    ba5a:	89 45 fc             	mov    DWORD PTR [rbp-0x4],eax
    ba5d:	83 7d fc 06          	cmp    DWORD PTR [rbp-0x4],0x6
    ba61:	75 05                	jne    ba68 <main+0xa751>
    ba63:	e9 b0 5a ff ff       	jmp    1518 <main+0x201>
    ba68:	48 8d 05 b9 35 00 00 	lea    rax,[rip+0x35b9]        # f028 <_IO_stdin_used+0x28>
    ba6f:	48 89 c7             	mov    rdi,rax
    ba72:	e8 49 56 ff ff       	call   10c0 <puts@plt>
    ba77:	bf 01 00 00 00       	mov    edi,0x1
    ba7c:	e8 af 56 ff ff       	call   1130 <exit@plt>
    ba81:	90                   	nop
    ba82:	be df 01 00 00       	mov    esi,0x1df
    ba87:	48 8d 05 8b 35 00 00 	lea    rax,[rip+0x358b]        # f019 <_IO_stdin_used+0x19>
    ba8e:	48 89 c7             	mov    rdi,rax
    ba91:	b8 00 00 00 00       	mov    eax,0x0
    ba96:	e8 55 56 ff ff       	call   10f0 <printf@plt>
    ba9b:	b8 00 00 00 00       	mov    eax,0x0
    baa0:	e8 cb 57 ff ff       	call   1270 <get_input>
    baa5:	89 45 fc             	mov    DWORD PTR [rbp-0x4],eax
    baa8:	83 7d fc 50          	cmp    DWORD PTR [rbp-0x4],0x50
    baac:	75 05                	jne    bab3 <main+0xa79c>
    baae:	e9 f2 73 ff ff       	jmp    2ea5 <main+0x1b8e>
    bab3:	48 8d 05 6e 35 00 00 	lea    rax,[rip+0x356e]        # f028 <_IO_stdin_used+0x28>
    baba:	48 89 c7             	mov    rdi,rax
    babd:	e8 fe 55 ff ff       	call   10c0 <puts@plt>
    bac2:	bf 01 00 00 00       	mov    edi,0x1
    bac7:	e8 64 56 ff ff       	call   1130 <exit@plt>
    bacc:	be e0 01 00 00       	mov    esi,0x1e0
    bad1:	48 8d 05 41 35 00 00 	lea    rax,[rip+0x3541]        # f019 <_IO_stdin_used+0x19>
    bad8:	48 89 c7             	mov    rdi,rax
    badb:	b8 00 00 00 00       	mov    eax,0x0
    bae0:	e8 0b 56 ff ff       	call   10f0 <printf@plt>
    bae5:	b8 00 00 00 00       	mov    eax,0x0
    baea:	e8 81 57 ff ff       	call   1270 <get_input>
    baef:	89 45 fc             	mov    DWORD PTR [rbp-0x4],eax
    baf2:	81 7d fc d7 01 00 00 	cmp    DWORD PTR [rbp-0x4],0x1d7
    baf9:	75 05                	jne    bb00 <main+0xa7e9>
    bafb:	e9 be fc ff ff       	jmp    b7be <main+0xa4a7>
    bb00:	81 7d fc af 01 00 00 	cmp    DWORD PTR [rbp-0x4],0x1af
    bb07:	0f 84 df ee ff ff    	je     a9ec <main+0x96d5>
    bb0d:	48 8d 05 14 35 00 00 	lea    rax,[rip+0x3514]        # f028 <_IO_stdin_used+0x28>
    bb14:	48 89 c7             	mov    rdi,rax
    bb17:	e8 a4 55 ff ff       	call   10c0 <puts@plt>
    bb1c:	bf 01 00 00 00       	mov    edi,0x1
    bb21:	e8 0a 56 ff ff       	call   1130 <exit@plt>
    bb26:	be e1 01 00 00       	mov    esi,0x1e1
    bb2b:	48 8d 05 e7 34 00 00 	lea    rax,[rip+0x34e7]        # f019 <_IO_stdin_used+0x19>
    bb32:	48 89 c7             	mov    rdi,rax
    bb35:	b8 00 00 00 00       	mov    eax,0x0
    bb3a:	e8 b1 55 ff ff       	call   10f0 <printf@plt>
    bb3f:	b8 00 00 00 00       	mov    eax,0x0
    bb44:	e8 27 57 ff ff       	call   1270 <get_input>
    bb49:	89 45 fc             	mov    DWORD PTR [rbp-0x4],eax
    bb4c:	83 7d fc 42          	cmp    DWORD PTR [rbp-0x4],0x42
    bb50:	75 05                	jne    bb57 <main+0xa840>
    bb52:	e9 23 6e ff ff       	jmp    297a <main+0x1663>
    bb57:	81 7d fc 1d 01 00 00 	cmp    DWORD PTR [rbp-0x4],0x11d
    bb5e:	75 05                	jne    bb65 <main+0xa84e>
    bb60:	e9 0c bb ff ff       	jmp    7671 <main+0x635a>
    bb65:	48 8d 05 bc 34 00 00 	lea    rax,[rip+0x34bc]        # f028 <_IO_stdin_used+0x28>
    bb6c:	48 89 c7             	mov    rdi,rax
    bb6f:	e8 4c 55 ff ff       	call   10c0 <puts@plt>
    bb74:	bf 01 00 00 00       	mov    edi,0x1
    bb79:	e8 b2 55 ff ff       	call   1130 <exit@plt>
    bb7e:	be e2 01 00 00       	mov    esi,0x1e2
    bb83:	48 8d 05 8f 34 00 00 	lea    rax,[rip+0x348f]        # f019 <_IO_stdin_used+0x19>
    bb8a:	48 89 c7             	mov    rdi,rax
    bb8d:	b8 00 00 00 00       	mov    eax,0x0
    bb92:	e8 59 55 ff ff       	call   10f0 <printf@plt>
    bb97:	b8 00 00 00 00       	mov    eax,0x0
    bb9c:	e8 cf 56 ff ff       	call   1270 <get_input>
    bba1:	89 45 fc             	mov    DWORD PTR [rbp-0x4],eax
    bba4:	81 7d fc a9 01 00 00 	cmp    DWORD PTR [rbp-0x4],0x1a9
    bbab:	75 05                	jne    bbb2 <main+0xa89b>
    bbad:	e9 2a ec ff ff       	jmp    a7dc <main+0x94c5>
    bbb2:	81 7d fc 93 01 00 00 	cmp    DWORD PTR [rbp-0x4],0x193
    bbb9:	0f 84 31 e4 ff ff    	je     9ff0 <main+0x8cd9>
    bbbf:	48 8d 05 62 34 00 00 	lea    rax,[rip+0x3462]        # f028 <_IO_stdin_used+0x28>
    bbc6:	48 89 c7             	mov    rdi,rax
    bbc9:	e8 f2 54 ff ff       	call   10c0 <puts@plt>
    bbce:	bf 01 00 00 00       	mov    edi,0x1
    bbd3:	e8 58 55 ff ff       	call   1130 <exit@plt>
    bbd8:	be e3 01 00 00       	mov    esi,0x1e3
    bbdd:	48 8d 05 35 34 00 00 	lea    rax,[rip+0x3435]        # f019 <_IO_stdin_used+0x19>
    bbe4:	48 89 c7             	mov    rdi,rax
    bbe7:	b8 00 00 00 00       	mov    eax,0x0
    bbec:	e8 ff 54 ff ff       	call   10f0 <printf@plt>
    bbf1:	b8 00 00 00 00       	mov    eax,0x0
    bbf6:	e8 75 56 ff ff       	call   1270 <get_input>
    bbfb:	89 45 fc             	mov    DWORD PTR [rbp-0x4],eax
    bbfe:	81 7d fc 8f 00 00 00 	cmp    DWORD PTR [rbp-0x4],0x8f
    bc05:	75 05                	jne    bc0c <main+0xa8f5>
    bc07:	e9 f4 88 ff ff       	jmp    4500 <main+0x31e9>
    bc0c:	81 7d fc 73 01 00 00 	cmp    DWORD PTR [rbp-0x4],0x173
    bc13:	75 05                	jne    bc1a <main+0xa903>
    bc15:	e9 62 d8 ff ff       	jmp    947c <main+0x8165>
    bc1a:	81 7d fc 88 01 00 00 	cmp    DWORD PTR [rbp-0x4],0x188
    bc21:	0f 84 c8 df ff ff    	je     9bef <main+0x88d8>
    bc27:	48 8d 05 fa 33 00 00 	lea    rax,[rip+0x33fa]        # f028 <_IO_stdin_used+0x28>
    bc2e:	48 89 c7             	mov    rdi,rax
    bc31:	e8 8a 54 ff ff       	call   10c0 <puts@plt>
    bc36:	bf 01 00 00 00       	mov    edi,0x1
    bc3b:	e8 f0 54 ff ff       	call   1130 <exit@plt>
    bc40:	90                   	nop
    bc41:	be e4 01 00 00       	mov    esi,0x1e4
    bc46:	48 8d 05 cc 33 00 00 	lea    rax,[rip+0x33cc]        # f019 <_IO_stdin_used+0x19>
    bc4d:	48 89 c7             	mov    rdi,rax
    bc50:	b8 00 00 00 00       	mov    eax,0x0
    bc55:	e8 96 54 ff ff       	call   10f0 <printf@plt>
    bc5a:	b8 00 00 00 00       	mov    eax,0x0
    bc5f:	e8 0c 56 ff ff       	call   1270 <get_input>
    bc64:	89 45 fc             	mov    DWORD PTR [rbp-0x4],eax
    bc67:	83 7d fc 43          	cmp    DWORD PTR [rbp-0x4],0x43
    bc6b:	75 05                	jne    bc72 <main+0xa95b>
    bc6d:	e9 71 6d ff ff       	jmp    29e3 <main+0x16cc>
    bc72:	48 8d 05 af 33 00 00 	lea    rax,[rip+0x33af]        # f028 <_IO_stdin_used+0x28>
    bc79:	48 89 c7             	mov    rdi,rax
    bc7c:	e8 3f 54 ff ff       	call   10c0 <puts@plt>
    bc81:	bf 01 00 00 00       	mov    edi,0x1
    bc86:	e8 a5 54 ff ff       	call   1130 <exit@plt>
    bc8b:	be e5 01 00 00       	mov    esi,0x1e5
    bc90:	48 8d 05 82 33 00 00 	lea    rax,[rip+0x3382]        # f019 <_IO_stdin_used+0x19>
    bc97:	48 89 c7             	mov    rdi,rax
    bc9a:	b8 00 00 00 00       	mov    eax,0x0
    bc9f:	e8 4c 54 ff ff       	call   10f0 <printf@plt>
    bca4:	b8 00 00 00 00       	mov    eax,0x0
    bca9:	e8 c2 55 ff ff       	call   1270 <get_input>
    bcae:	89 45 fc             	mov    DWORD PTR [rbp-0x4],eax
    bcb1:	81 7d fc 15 02 00 00 	cmp    DWORD PTR [rbp-0x4],0x215
    bcb8:	75 05                	jne    bcbf <main+0xa9a8>
    bcba:	e9 2b 10 00 00       	jmp    ccea <main+0xb9d3>
    bcbf:	81 7d fc 3a 01 00 00 	cmp    DWORD PTR [rbp-0x4],0x13a
    bcc6:	75 05                	jne    bccd <main+0xa9b6>
    bcc8:	e9 bc c3 ff ff       	jmp    8089 <main+0x6d72>
    bccd:	48 8d 05 54 33 00 00 	lea    rax,[rip+0x3354]        # f028 <_IO_stdin_used+0x28>
    bcd4:	48 89 c7             	mov    rdi,rax
    bcd7:	e8 e4 53 ff ff       	call   10c0 <puts@plt>
    bcdc:	bf 01 00 00 00       	mov    edi,0x1
    bce1:	e8 4a 54 ff ff       	call   1130 <exit@plt>
    bce6:	90                   	nop
    bce7:	be e6 01 00 00       	mov    esi,0x1e6
    bcec:	48 8d 05 26 33 00 00 	lea    rax,[rip+0x3326]        # f019 <_IO_stdin_used+0x19>
    bcf3:	48 89 c7             	mov    rdi,rax
    bcf6:	b8 00 00 00 00       	mov    eax,0x0
    bcfb:	e8 f0 53 ff ff       	call   10f0 <printf@plt>
    bd00:	b8 00 00 00 00       	mov    eax,0x0
    bd05:	e8 66 55 ff ff       	call   1270 <get_input>
    bd0a:	89 45 fc             	mov    DWORD PTR [rbp-0x4],eax
    bd0d:	81 7d fc 44 01 00 00 	cmp    DWORD PTR [rbp-0x4],0x144
    bd14:	75 05                	jne    bd1b <main+0xaa04>
    bd16:	e9 f7 c6 ff ff       	jmp    8412 <main+0x70fb>
    bd1b:	48 8d 05 06 33 00 00 	lea    rax,[rip+0x3306]        # f028 <_IO_stdin_used+0x28>
    bd22:	48 89 c7             	mov    rdi,rax
    bd25:	e8 96 53 ff ff       	call   10c0 <puts@plt>
    bd2a:	bf 01 00 00 00       	mov    edi,0x1
    bd2f:	e8 fc 53 ff ff       	call   1130 <exit@plt>
    bd34:	be e7 01 00 00       	mov    esi,0x1e7
    bd39:	48 8d 05 d9 32 00 00 	lea    rax,[rip+0x32d9]        # f019 <_IO_stdin_used+0x19>
    bd40:	48 89 c7             	mov    rdi,rax
    bd43:	b8 00 00 00 00       	mov    eax,0x0
    bd48:	e8 a3 53 ff ff       	call   10f0 <printf@plt>
    bd4d:	b8 00 00 00 00       	mov    eax,0x0
    bd52:	e8 19 55 ff ff       	call   1270 <get_input>
    bd57:	89 45 fc             	mov    DWORD PTR [rbp-0x4],eax
    bd5a:	81 7d fc e5 00 00 00 	cmp    DWORD PTR [rbp-0x4],0xe5
    bd61:	0f 84 84 a5 ff ff    	je     62eb <main+0x4fd4>
    bd67:	81 7d fc 99 00 00 00 	cmp    DWORD PTR [rbp-0x4],0x99
    bd6e:	75 05                	jne    bd75 <main+0xaa5e>
    bd70:	e9 15 8b ff ff       	jmp    488a <main+0x3573>
    bd75:	48 8d 05 ac 32 00 00 	lea    rax,[rip+0x32ac]        # f028 <_IO_stdin_used+0x28>
    bd7c:	48 89 c7             	mov    rdi,rax
    bd7f:	e8 3c 53 ff ff       	call   10c0 <puts@plt>
    bd84:	bf 01 00 00 00       	mov    edi,0x1
    bd89:	e8 a2 53 ff ff       	call   1130 <exit@plt>
    bd8e:	be e8 01 00 00       	mov    esi,0x1e8
    bd93:	48 8d 05 7f 32 00 00 	lea    rax,[rip+0x327f]        # f019 <_IO_stdin_used+0x19>
    bd9a:	48 89 c7             	mov    rdi,rax
    bd9d:	b8 00 00 00 00       	mov    eax,0x0
    bda2:	e8 49 53 ff ff       	call   10f0 <printf@plt>
    bda7:	b8 00 00 00 00       	mov    eax,0x0
    bdac:	e8 bf 54 ff ff       	call   1270 <get_input>
    bdb1:	89 45 fc             	mov    DWORD PTR [rbp-0x4],eax
    bdb4:	83 7d fc 46          	cmp    DWORD PTR [rbp-0x4],0x46
    bdb8:	75 05                	jne    bdbf <main+0xaaa8>
    bdba:	e9 30 6d ff ff       	jmp    2aef <main+0x17d8>
    bdbf:	81 7d fc c4 01 00 00 	cmp    DWORD PTR [rbp-0x4],0x1c4
    bdc6:	75 05                	jne    bdcd <main+0xaab6>
    bdc8:	e9 4b f3 ff ff       	jmp    b118 <main+0x9e01>
    bdcd:	48 8d 05 54 32 00 00 	lea    rax,[rip+0x3254]        # f028 <_IO_stdin_used+0x28>
    bdd4:	48 89 c7             	mov    rdi,rax
    bdd7:	e8 e4 52 ff ff       	call   10c0 <puts@plt>
    bddc:	bf 01 00 00 00       	mov    edi,0x1
    bde1:	e8 4a 53 ff ff       	call   1130 <exit@plt>
    bde6:	be e9 01 00 00       	mov    esi,0x1e9
    bdeb:	48 8d 05 27 32 00 00 	lea    rax,[rip+0x3227]        # f019 <_IO_stdin_used+0x19>
    bdf2:	48 89 c7             	mov    rdi,rax
    bdf5:	b8 00 00 00 00       	mov    eax,0x0
    bdfa:	e8 f1 52 ff ff       	call   10f0 <printf@plt>
    bdff:	b8 00 00 00 00       	mov    eax,0x0
    be04:	e8 67 54 ff ff       	call   1270 <get_input>
    be09:	89 45 fc             	mov    DWORD PTR [rbp-0x4],eax
    be0c:	81 7d fc 2a 01 00 00 	cmp    DWORD PTR [rbp-0x4],0x12a
    be13:	75 05                	jne    be1a <main+0xab03>
    be15:	e9 b7 bc ff ff       	jmp    7ad1 <main+0x67ba>
    be1a:	81 7d fc 80 00 00 00 	cmp    DWORD PTR [rbp-0x4],0x80
    be21:	75 05                	jne    be28 <main+0xab11>
    be23:	e9 9e 81 ff ff       	jmp    3fc6 <main+0x2caf>
    be28:	48 8d 05 f9 31 00 00 	lea    rax,[rip+0x31f9]        # f028 <_IO_stdin_used+0x28>
    be2f:	48 89 c7             	mov    rdi,rax
    be32:	e8 89 52 ff ff       	call   10c0 <puts@plt>
    be37:	bf 01 00 00 00       	mov    edi,0x1
    be3c:	e8 ef 52 ff ff       	call   1130 <exit@plt>
    be41:	be ea 01 00 00       	mov    esi,0x1ea
    be46:	48 8d 05 cc 31 00 00 	lea    rax,[rip+0x31cc]        # f019 <_IO_stdin_used+0x19>
    be4d:	48 89 c7             	mov    rdi,rax
    be50:	b8 00 00 00 00       	mov    eax,0x0
    be55:	e8 96 52 ff ff       	call   10f0 <printf@plt>
    be5a:	b8 00 00 00 00       	mov    eax,0x0
    be5f:	e8 0c 54 ff ff       	call   1270 <get_input>
    be64:	89 45 fc             	mov    DWORD PTR [rbp-0x4],eax
    be67:	81 7d fc 12 02 00 00 	cmp    DWORD PTR [rbp-0x4],0x212
    be6e:	75 05                	jne    be75 <main+0xab5e>
    be70:	e9 69 0d 00 00       	jmp    cbde <main+0xb8c7>
    be75:	81 7d fc 7a 01 00 00 	cmp    DWORD PTR [rbp-0x4],0x17a
    be7c:	75 05                	jne    be83 <main+0xab6c>
    be7e:	e9 61 d8 ff ff       	jmp    96e4 <main+0x83cd>
    be83:	83 7d fc 03          	cmp    DWORD PTR [rbp-0x4],0x3
    be87:	0f 84 89 55 ff ff    	je     1416 <main+0xff>
    be8d:	48 8d 05 94 31 00 00 	lea    rax,[rip+0x3194]        # f028 <_IO_stdin_used+0x28>
    be94:	48 89 c7             	mov    rdi,rax
    be97:	e8 24 52 ff ff       	call   10c0 <puts@plt>
    be9c:	bf 01 00 00 00       	mov    edi,0x1
    bea1:	e8 8a 52 ff ff       	call   1130 <exit@plt>
    bea6:	be eb 01 00 00       	mov    esi,0x1eb
    beab:	48 8d 05 67 31 00 00 	lea    rax,[rip+0x3167]        # f019 <_IO_stdin_used+0x19>
    beb2:	48 89 c7             	mov    rdi,rax
    beb5:	b8 00 00 00 00       	mov    eax,0x0
    beba:	e8 31 52 ff ff       	call   10f0 <printf@plt>
    bebf:	b8 00 00 00 00       	mov    eax,0x0
    bec4:	e8 a7 53 ff ff       	call   1270 <get_input>
    bec9:	89 45 fc             	mov    DWORD PTR [rbp-0x4],eax
    becc:	81 7d fc eb 00 00 00 	cmp    DWORD PTR [rbp-0x4],0xeb
    bed3:	75 05                	jne    beda <main+0xabc3>
    bed5:	e9 0f a6 ff ff       	jmp    64e9 <main+0x51d2>
    beda:	83 7d fc 1a          	cmp    DWORD PTR [rbp-0x4],0x1a
    bede:	75 05                	jne    bee5 <main+0xabce>
    bee0:	e9 35 5d ff ff       	jmp    1c1a <main+0x903>
    bee5:	48 8d 05 3c 31 00 00 	lea    rax,[rip+0x313c]        # f028 <_IO_stdin_used+0x28>
    beec:	48 89 c7             	mov    rdi,rax
    beef:	e8 cc 51 ff ff       	call   10c0 <puts@plt>
    bef4:	bf 01 00 00 00       	mov    edi,0x1
    bef9:	e8 32 52 ff ff       	call   1130 <exit@plt>
    befe:	be ec 01 00 00       	mov    esi,0x1ec
    bf03:	48 8d 05 0f 31 00 00 	lea    rax,[rip+0x310f]        # f019 <_IO_stdin_used+0x19>
    bf0a:	48 89 c7             	mov    rdi,rax
    bf0d:	b8 00 00 00 00       	mov    eax,0x0
    bf12:	e8 d9 51 ff ff       	call   10f0 <printf@plt>
    bf17:	b8 00 00 00 00       	mov    eax,0x0
    bf1c:	e8 4f 53 ff ff       	call   1270 <get_input>
    bf21:	89 45 fc             	mov    DWORD PTR [rbp-0x4],eax
    bf24:	81 7d fc fc 01 00 00 	cmp    DWORD PTR [rbp-0x4],0x1fc
    bf2b:	75 05                	jne    bf32 <main+0xac1b>
    bf2d:	e9 4c 05 00 00       	jmp    c47e <main+0xb167>
    bf32:	81 7d fc da 01 00 00 	cmp    DWORD PTR [rbp-0x4],0x1da
    bf39:	0f 84 90 f9 ff ff    	je     b8cf <main+0xa5b8>
    bf3f:	48 8d 05 e2 30 00 00 	lea    rax,[rip+0x30e2]        # f028 <_IO_stdin_used+0x28>
    bf46:	48 89 c7             	mov    rdi,rax
    bf49:	e8 72 51 ff ff       	call   10c0 <puts@plt>
    bf4e:	bf 01 00 00 00       	mov    edi,0x1
    bf53:	e8 d8 51 ff ff       	call   1130 <exit@plt>
    bf58:	90                   	nop
    bf59:	be ed 01 00 00       	mov    esi,0x1ed
    bf5e:	48 8d 05 b4 30 00 00 	lea    rax,[rip+0x30b4]        # f019 <_IO_stdin_used+0x19>
    bf65:	48 89 c7             	mov    rdi,rax
    bf68:	b8 00 00 00 00       	mov    eax,0x0
    bf6d:	e8 7e 51 ff ff       	call   10f0 <printf@plt>
    bf72:	b8 00 00 00 00       	mov    eax,0x0
    bf77:	e8 f4 52 ff ff       	call   1270 <get_input>
    bf7c:	89 45 fc             	mov    DWORD PTR [rbp-0x4],eax
    bf7f:	81 7d fc 3b 02 00 00 	cmp    DWORD PTR [rbp-0x4],0x23b
    bf86:	75 05                	jne    bf8d <main+0xac76>
    bf88:	e9 10 1b 00 00       	jmp    da9d <main+0xc786>
    bf8d:	48 8d 05 94 30 00 00 	lea    rax,[rip+0x3094]        # f028 <_IO_stdin_used+0x28>
    bf94:	48 89 c7             	mov    rdi,rax
    bf97:	e8 24 51 ff ff       	call   10c0 <puts@plt>
    bf9c:	bf 01 00 00 00       	mov    edi,0x1
    bfa1:	e8 8a 51 ff ff       	call   1130 <exit@plt>
    bfa6:	90                   	nop
    bfa7:	be ee 01 00 00       	mov    esi,0x1ee
    bfac:	48 8d 05 66 30 00 00 	lea    rax,[rip+0x3066]        # f019 <_IO_stdin_used+0x19>
    bfb3:	48 89 c7             	mov    rdi,rax
    bfb6:	b8 00 00 00 00       	mov    eax,0x0
    bfbb:	e8 30 51 ff ff       	call   10f0 <printf@plt>
    bfc0:	b8 00 00 00 00       	mov    eax,0x0
    bfc5:	e8 a6 52 ff ff       	call   1270 <get_input>
    bfca:	89 45 fc             	mov    DWORD PTR [rbp-0x4],eax
    bfcd:	81 7d fc 52 02 00 00 	cmp    DWORD PTR [rbp-0x4],0x252
    bfd4:	75 05                	jne    bfdb <main+0xacc4>
    bfd6:	e9 46 23 00 00       	jmp    e321 <main+0xd00a>
    bfdb:	48 8d 05 46 30 00 00 	lea    rax,[rip+0x3046]        # f028 <_IO_stdin_used+0x28>
    bfe2:	48 89 c7             	mov    rdi,rax
    bfe5:	e8 d6 50 ff ff       	call   10c0 <puts@plt>
    bfea:	bf 01 00 00 00       	mov    edi,0x1
    bfef:	e8 3c 51 ff ff       	call   1130 <exit@plt>
    bff4:	be ef 01 00 00       	mov    esi,0x1ef
    bff9:	48 8d 05 19 30 00 00 	lea    rax,[rip+0x3019]        # f019 <_IO_stdin_used+0x19>
    c000:	48 89 c7             	mov    rdi,rax
    c003:	b8 00 00 00 00       	mov    eax,0x0
    c008:	e8 e3 50 ff ff       	call   10f0 <printf@plt>
    c00d:	b8 00 00 00 00       	mov    eax,0x0
    c012:	e8 59 52 ff ff       	call   1270 <get_input>
    c017:	89 45 fc             	mov    DWORD PTR [rbp-0x4],eax
    c01a:	81 7d fc 33 01 00 00 	cmp    DWORD PTR [rbp-0x4],0x133
    c021:	75 05                	jne    c028 <main+0xad11>
    c023:	e9 e3 bd ff ff       	jmp    7e0b <main+0x6af4>
    c028:	81 7d fc a7 01 00 00 	cmp    DWORD PTR [rbp-0x4],0x1a7
    c02f:	75 05                	jne    c036 <main+0xad1f>
    c031:	e9 f2 e6 ff ff       	jmp    a728 <main+0x9411>
    c036:	83 7d fc 2a          	cmp    DWORD PTR [rbp-0x4],0x2a
    c03a:	75 05                	jne    c041 <main+0xad2a>
    c03c:	e9 63 61 ff ff       	jmp    21a4 <main+0xe8d>
    c041:	48 8d 05 e0 2f 00 00 	lea    rax,[rip+0x2fe0]        # f028 <_IO_stdin_used+0x28>
    c048:	48 89 c7             	mov    rdi,rax
    c04b:	e8 70 50 ff ff       	call   10c0 <puts@plt>
    c050:	bf 01 00 00 00       	mov    edi,0x1
    c055:	e8 d6 50 ff ff       	call   1130 <exit@plt>
    c05a:	be f0 01 00 00       	mov    esi,0x1f0
    c05f:	48 8d 05 b3 2f 00 00 	lea    rax,[rip+0x2fb3]        # f019 <_IO_stdin_used+0x19>
    c066:	48 89 c7             	mov    rdi,rax
    c069:	b8 00 00 00 00       	mov    eax,0x0
    c06e:	e8 7d 50 ff ff       	call   10f0 <printf@plt>
    c073:	b8 00 00 00 00       	mov    eax,0x0
    c078:	e8 f3 51 ff ff       	call   1270 <get_input>
    c07d:	89 45 fc             	mov    DWORD PTR [rbp-0x4],eax
    c080:	81 7d fc 97 01 00 00 	cmp    DWORD PTR [rbp-0x4],0x197
    c087:	75 05                	jne    c08e <main+0xad77>
    c089:	e9 c8 e0 ff ff       	jmp    a156 <main+0x8e3f>
    c08e:	81 7d fc 16 01 00 00 	cmp    DWORD PTR [rbp-0x4],0x116
    c095:	0f 84 61 b3 ff ff    	je     73fc <main+0x60e5>
    c09b:	48 8d 05 86 2f 00 00 	lea    rax,[rip+0x2f86]        # f028 <_IO_stdin_used+0x28>
    c0a2:	48 89 c7             	mov    rdi,rax
    c0a5:	e8 16 50 ff ff       	call   10c0 <puts@plt>
    c0aa:	bf 01 00 00 00       	mov    edi,0x1
    c0af:	e8 7c 50 ff ff       	call   1130 <exit@plt>
    c0b4:	90                   	nop
    c0b5:	be f1 01 00 00       	mov    esi,0x1f1
    c0ba:	48 8d 05 58 2f 00 00 	lea    rax,[rip+0x2f58]        # f019 <_IO_stdin_used+0x19>
    c0c1:	48 89 c7             	mov    rdi,rax
    c0c4:	b8 00 00 00 00       	mov    eax,0x0
    c0c9:	e8 22 50 ff ff       	call   10f0 <printf@plt>
    c0ce:	b8 00 00 00 00       	mov    eax,0x0
    c0d3:	e8 98 51 ff ff       	call   1270 <get_input>
    c0d8:	89 45 fc             	mov    DWORD PTR [rbp-0x4],eax
    c0db:	81 7d fc b5 01 00 00 	cmp    DWORD PTR [rbp-0x4],0x1b5
    c0e2:	75 05                	jne    c0e9 <main+0xadd2>
    c0e4:	e9 f2 ea ff ff       	jmp    abdb <main+0x98c4>
    c0e9:	48 8d 05 38 2f 00 00 	lea    rax,[rip+0x2f38]        # f028 <_IO_stdin_used+0x28>
    c0f0:	48 89 c7             	mov    rdi,rax
    c0f3:	e8 c8 4f ff ff       	call   10c0 <puts@plt>
    c0f8:	bf 01 00 00 00       	mov    edi,0x1
    c0fd:	e8 2e 50 ff ff       	call   1130 <exit@plt>
    c102:	be f2 01 00 00       	mov    esi,0x1f2
    c107:	48 8d 05 0b 2f 00 00 	lea    rax,[rip+0x2f0b]        # f019 <_IO_stdin_used+0x19>
    c10e:	48 89 c7             	mov    rdi,rax
    c111:	b8 00 00 00 00       	mov    eax,0x0
    c116:	e8 d5 4f ff ff       	call   10f0 <printf@plt>
    c11b:	b8 00 00 00 00       	mov    eax,0x0
    c120:	e8 4b 51 ff ff       	call   1270 <get_input>
    c125:	89 45 fc             	mov    DWORD PTR [rbp-0x4],eax
    c128:	81 7d fc 0f 02 00 00 	cmp    DWORD PTR [rbp-0x4],0x20f
    c12f:	75 05                	jne    c136 <main+0xae1f>
    c131:	e9 7c 09 00 00       	jmp    cab2 <main+0xb79b>
    c136:	81 7d fc 84 01 00 00 	cmp    DWORD PTR [rbp-0x4],0x184
    c13d:	75 05                	jne    c144 <main+0xae2d>
    c13f:	e9 37 d9 ff ff       	jmp    9a7b <main+0x8764>
    c144:	48 8d 05 dd 2e 00 00 	lea    rax,[rip+0x2edd]        # f028 <_IO_stdin_used+0x28>
    c14b:	48 89 c7             	mov    rdi,rax
    c14e:	e8 6d 4f ff ff       	call   10c0 <puts@plt>
    c153:	bf 01 00 00 00       	mov    edi,0x1
    c158:	e8 d3 4f ff ff       	call   1130 <exit@plt>
    c15d:	be f3 01 00 00       	mov    esi,0x1f3
    c162:	48 8d 05 b0 2e 00 00 	lea    rax,[rip+0x2eb0]        # f019 <_IO_stdin_used+0x19>
    c169:	48 89 c7             	mov    rdi,rax
    c16c:	b8 00 00 00 00       	mov    eax,0x0
    c171:	e8 7a 4f ff ff       	call   10f0 <printf@plt>
    c176:	b8 00 00 00 00       	mov    eax,0x0
    c17b:	e8 f0 50 ff ff       	call   1270 <get_input>
    c180:	89 45 fc             	mov    DWORD PTR [rbp-0x4],eax
    c183:	83 7d fc 7b          	cmp    DWORD PTR [rbp-0x4],0x7b
    c187:	75 05                	jne    c18e <main+0xae77>
    c189:	e9 84 7c ff ff       	jmp    3e12 <main+0x2afb>
    c18e:	83 7d fc 69          	cmp    DWORD PTR [rbp-0x4],0x69
    c192:	75 05                	jne    c199 <main+0xae82>
    c194:	e9 ea 75 ff ff       	jmp    3783 <main+0x246c>
    c199:	48 8d 05 88 2e 00 00 	lea    rax,[rip+0x2e88]        # f028 <_IO_stdin_used+0x28>
    c1a0:	48 89 c7             	mov    rdi,rax
    c1a3:	e8 18 4f ff ff       	call   10c0 <puts@plt>
    c1a8:	bf 01 00 00 00       	mov    edi,0x1
    c1ad:	e8 7e 4f ff ff       	call   1130 <exit@plt>
    c1b2:	be f4 01 00 00       	mov    esi,0x1f4
    c1b7:	48 8d 05 5b 2e 00 00 	lea    rax,[rip+0x2e5b]        # f019 <_IO_stdin_used+0x19>
    c1be:	48 89 c7             	mov    rdi,rax
    c1c1:	b8 00 00 00 00       	mov    eax,0x0
    c1c6:	e8 25 4f ff ff       	call   10f0 <printf@plt>
    c1cb:	b8 00 00 00 00       	mov    eax,0x0
    c1d0:	e8 9b 50 ff ff       	call   1270 <get_input>
    c1d5:	89 45 fc             	mov    DWORD PTR [rbp-0x4],eax
    c1d8:	81 7d fc d0 01 00 00 	cmp    DWORD PTR [rbp-0x4],0x1d0
    c1df:	75 05                	jne    c1e6 <main+0xaecf>
    c1e1:	e9 50 f3 ff ff       	jmp    b536 <main+0xa21f>
    c1e6:	81 7d fc ee 00 00 00 	cmp    DWORD PTR [rbp-0x4],0xee
    c1ed:	75 05                	jne    c1f4 <main+0xaedd>
    c1ef:	e9 13 a4 ff ff       	jmp    6607 <main+0x52f0>
    c1f4:	48 8d 05 2d 2e 00 00 	lea    rax,[rip+0x2e2d]        # f028 <_IO_stdin_used+0x28>
    c1fb:	48 89 c7             	mov    rdi,rax
    c1fe:	e8 bd 4e ff ff       	call   10c0 <puts@plt>
    c203:	bf 01 00 00 00       	mov    edi,0x1
    c208:	e8 23 4f ff ff       	call   1130 <exit@plt>
    c20d:	90                   	nop
    c20e:	be f5 01 00 00       	mov    esi,0x1f5
    c213:	48 8d 05 ff 2d 00 00 	lea    rax,[rip+0x2dff]        # f019 <_IO_stdin_used+0x19>
    c21a:	48 89 c7             	mov    rdi,rax
    c21d:	b8 00 00 00 00       	mov    eax,0x0
    c222:	e8 c9 4e ff ff       	call   10f0 <printf@plt>
    c227:	b8 00 00 00 00       	mov    eax,0x0
    c22c:	e8 3f 50 ff ff       	call   1270 <get_input>
    c231:	89 45 fc             	mov    DWORD PTR [rbp-0x4],eax
    c234:	81 7d fc 84 00 00 00 	cmp    DWORD PTR [rbp-0x4],0x84
    c23b:	75 05                	jne    c242 <main+0xaf2b>
    c23d:	e9 f7 7e ff ff       	jmp    4139 <main+0x2e22>
    c242:	48 8d 05 df 2d 00 00 	lea    rax,[rip+0x2ddf]        # f028 <_IO_stdin_used+0x28>
    c249:	48 89 c7             	mov    rdi,rax
    c24c:	e8 6f 4e ff ff       	call   10c0 <puts@plt>
    c251:	bf 01 00 00 00       	mov    edi,0x1
    c256:	e8 d5 4e ff ff       	call   1130 <exit@plt>
    c25b:	be f6 01 00 00       	mov    esi,0x1f6
    c260:	48 8d 05 b2 2d 00 00 	lea    rax,[rip+0x2db2]        # f019 <_IO_stdin_used+0x19>
    c267:	48 89 c7             	mov    rdi,rax
    c26a:	b8 00 00 00 00       	mov    eax,0x0
    c26f:	e8 7c 4e ff ff       	call   10f0 <printf@plt>
    c274:	b8 00 00 00 00       	mov    eax,0x0
    c279:	e8 f2 4f ff ff       	call   1270 <get_input>
    c27e:	89 45 fc             	mov    DWORD PTR [rbp-0x4],eax
    c281:	81 7d fc 8d 01 00 00 	cmp    DWORD PTR [rbp-0x4],0x18d
    c288:	75 05                	jne    c28f <main+0xaf78>
    c28a:	e9 21 db ff ff       	jmp    9db0 <main+0x8a99>
    c28f:	83 7d fc 3b          	cmp    DWORD PTR [rbp-0x4],0x3b
    c293:	0f 84 92 64 ff ff    	je     272b <main+0x1414>
    c299:	48 8d 05 88 2d 00 00 	lea    rax,[rip+0x2d88]        # f028 <_IO_stdin_used+0x28>
    c2a0:	48 89 c7             	mov    rdi,rax
    c2a3:	e8 18 4e ff ff       	call   10c0 <puts@plt>
    c2a8:	bf 01 00 00 00       	mov    edi,0x1
    c2ad:	e8 7e 4e ff ff       	call   1130 <exit@plt>
    c2b2:	be f7 01 00 00       	mov    esi,0x1f7
    c2b7:	48 8d 05 5b 2d 00 00 	lea    rax,[rip+0x2d5b]        # f019 <_IO_stdin_used+0x19>
    c2be:	48 89 c7             	mov    rdi,rax
    c2c1:	b8 00 00 00 00       	mov    eax,0x0
    c2c6:	e8 25 4e ff ff       	call   10f0 <printf@plt>
    c2cb:	b8 00 00 00 00       	mov    eax,0x0
    c2d0:	e8 9b 4f ff ff       	call   1270 <get_input>
    c2d5:	89 45 fc             	mov    DWORD PTR [rbp-0x4],eax
    c2d8:	83 7d fc 47          	cmp    DWORD PTR [rbp-0x4],0x47
    c2dc:	75 05                	jne    c2e3 <main+0xafcc>
    c2de:	e9 67 68 ff ff       	jmp    2b4a <main+0x1833>
    c2e3:	81 7d fc 11 02 00 00 	cmp    DWORD PTR [rbp-0x4],0x211
    c2ea:	75 05                	jne    c2f1 <main+0xafda>
    c2ec:	e9 92 08 00 00       	jmp    cb83 <main+0xb86c>
    c2f1:	83 7d fc 7c          	cmp    DWORD PTR [rbp-0x4],0x7c
    c2f5:	75 05                	jne    c2fc <main+0xafe5>
    c2f7:	e9 6e 7b ff ff       	jmp    3e6a <main+0x2b53>
    c2fc:	48 8d 05 25 2d 00 00 	lea    rax,[rip+0x2d25]        # f028 <_IO_stdin_used+0x28>
    c303:	48 89 c7             	mov    rdi,rax
    c306:	e8 b5 4d ff ff       	call   10c0 <puts@plt>
    c30b:	bf 01 00 00 00       	mov    edi,0x1
    c310:	e8 1b 4e ff ff       	call   1130 <exit@plt>
    c315:	90                   	nop
    c316:	be f8 01 00 00       	mov    esi,0x1f8
    c31b:	48 8d 05 f7 2c 00 00 	lea    rax,[rip+0x2cf7]        # f019 <_IO_stdin_used+0x19>
    c322:	48 89 c7             	mov    rdi,rax
    c325:	b8 00 00 00 00       	mov    eax,0x0
    c32a:	e8 c1 4d ff ff       	call   10f0 <printf@plt>
    c32f:	b8 00 00 00 00       	mov    eax,0x0
    c334:	e8 37 4f ff ff       	call   1270 <get_input>
    c339:	89 45 fc             	mov    DWORD PTR [rbp-0x4],eax
    c33c:	81 7d fc d6 00 00 00 	cmp    DWORD PTR [rbp-0x4],0xd6
    c343:	75 05                	jne    c34a <main+0xb033>
    c345:	e9 5a 9a ff ff       	jmp    5da4 <main+0x4a8d>
    c34a:	48 8d 05 d7 2c 00 00 	lea    rax,[rip+0x2cd7]        # f028 <_IO_stdin_used+0x28>
    c351:	48 89 c7             	mov    rdi,rax
    c354:	e8 67 4d ff ff       	call   10c0 <puts@plt>
    c359:	bf 01 00 00 00       	mov    edi,0x1
    c35e:	e8 cd 4d ff ff       	call   1130 <exit@plt>
    c363:	be f9 01 00 00       	mov    esi,0x1f9
    c368:	48 8d 05 aa 2c 00 00 	lea    rax,[rip+0x2caa]        # f019 <_IO_stdin_used+0x19>
    c36f:	48 89 c7             	mov    rdi,rax
    c372:	b8 00 00 00 00       	mov    eax,0x0
    c377:	e8 74 4d ff ff       	call   10f0 <printf@plt>
    c37c:	b8 00 00 00 00       	mov    eax,0x0
    c381:	e8 ea 4e ff ff       	call   1270 <get_input>
    c386:	89 45 fc             	mov    DWORD PTR [rbp-0x4],eax
    c389:	81 7d fc 34 02 00 00 	cmp    DWORD PTR [rbp-0x4],0x234
    c390:	75 05                	jne    c397 <main+0xb080>
    c392:	e9 75 14 00 00       	jmp    d80c <main+0xc4f5>
    c397:	83 7d fc 24          	cmp    DWORD PTR [rbp-0x4],0x24
    c39b:	75 05                	jne    c3a2 <main+0xb08b>
    c39d:	e9 00 5c ff ff       	jmp    1fa2 <main+0xc8b>
    c3a2:	48 8d 05 7f 2c 00 00 	lea    rax,[rip+0x2c7f]        # f028 <_IO_stdin_used+0x28>
    c3a9:	48 89 c7             	mov    rdi,rax
    c3ac:	e8 0f 4d ff ff       	call   10c0 <puts@plt>
    c3b1:	bf 01 00 00 00       	mov    edi,0x1
    c3b6:	e8 75 4d ff ff       	call   1130 <exit@plt>
    c3bb:	be fa 01 00 00       	mov    esi,0x1fa
    c3c0:	48 8d 05 52 2c 00 00 	lea    rax,[rip+0x2c52]        # f019 <_IO_stdin_used+0x19>
    c3c7:	48 89 c7             	mov    rdi,rax
    c3ca:	b8 00 00 00 00       	mov    eax,0x0
    c3cf:	e8 1c 4d ff ff       	call   10f0 <printf@plt>
    c3d4:	b8 00 00 00 00       	mov    eax,0x0
    c3d9:	e8 92 4e ff ff       	call   1270 <get_input>
    c3de:	89 45 fc             	mov    DWORD PTR [rbp-0x4],eax
    c3e1:	81 7d fc 53 02 00 00 	cmp    DWORD PTR [rbp-0x4],0x253
    c3e8:	75 05                	jne    c3ef <main+0xb0d8>
    c3ea:	e9 99 1f 00 00       	jmp    e388 <main+0xd071>
    c3ef:	81 7d fc 3b 02 00 00 	cmp    DWORD PTR [rbp-0x4],0x23b
    c3f6:	75 05                	jne    c3fd <main+0xb0e6>
    c3f8:	e9 a0 16 00 00       	jmp    da9d <main+0xc786>
    c3fd:	81 7d fc b1 00 00 00 	cmp    DWORD PTR [rbp-0x4],0xb1
    c404:	0f 84 e0 8c ff ff    	je     50ea <main+0x3dd3>
    c40a:	48 8d 05 17 2c 00 00 	lea    rax,[rip+0x2c17]        # f028 <_IO_stdin_used+0x28>
    c411:	48 89 c7             	mov    rdi,rax
    c414:	e8 a7 4c ff ff       	call   10c0 <puts@plt>
    c419:	bf 01 00 00 00       	mov    edi,0x1
    c41e:	e8 0d 4d ff ff       	call   1130 <exit@plt>
    c423:	be fb 01 00 00       	mov    esi,0x1fb
    c428:	48 8d 05 ea 2b 00 00 	lea    rax,[rip+0x2bea]        # f019 <_IO_stdin_used+0x19>
    c42f:	48 89 c7             	mov    rdi,rax
    c432:	b8 00 00 00 00       	mov    eax,0x0
    c437:	e8 b4 4c ff ff       	call   10f0 <printf@plt>
    c43c:	b8 00 00 00 00       	mov    eax,0x0
    c441:	e8 2a 4e ff ff       	call   1270 <get_input>
    c446:	89 45 fc             	mov    DWORD PTR [rbp-0x4],eax
    c449:	81 7d fc 0d 02 00 00 	cmp    DWORD PTR [rbp-0x4],0x20d
    c450:	75 05                	jne    c457 <main+0xb140>
    c452:	e9 b2 05 00 00       	jmp    ca09 <main+0xb6f2>
    c457:	81 7d fc 3d 02 00 00 	cmp    DWORD PTR [rbp-0x4],0x23d
    c45e:	75 05                	jne    c465 <main+0xb14e>
    c460:	e9 ee 16 00 00       	jmp    db53 <main+0xc83c>
    c465:	48 8d 05 bc 2b 00 00 	lea    rax,[rip+0x2bbc]        # f028 <_IO_stdin_used+0x28>
    c46c:	48 89 c7             	mov    rdi,rax
    c46f:	e8 4c 4c ff ff       	call   10c0 <puts@plt>
    c474:	bf 01 00 00 00       	mov    edi,0x1
    c479:	e8 b2 4c ff ff       	call   1130 <exit@plt>
    c47e:	be fc 01 00 00       	mov    esi,0x1fc
    c483:	48 8d 05 8f 2b 00 00 	lea    rax,[rip+0x2b8f]        # f019 <_IO_stdin_used+0x19>
    c48a:	48 89 c7             	mov    rdi,rax
    c48d:	b8 00 00 00 00       	mov    eax,0x0
    c492:	e8 59 4c ff ff       	call   10f0 <printf@plt>
    c497:	b8 00 00 00 00       	mov    eax,0x0
    c49c:	e8 cf 4d ff ff       	call   1270 <get_input>
    c4a1:	89 45 fc             	mov    DWORD PTR [rbp-0x4],eax
    c4a4:	81 7d fc dc 00 00 00 	cmp    DWORD PTR [rbp-0x4],0xdc
    c4ab:	75 05                	jne    c4b2 <main+0xb19b>
    c4ad:	e9 1b 9b ff ff       	jmp    5fcd <main+0x4cb6>
    c4b2:	81 7d fc ec 01 00 00 	cmp    DWORD PTR [rbp-0x4],0x1ec
    c4b9:	75 05                	jne    c4c0 <main+0xb1a9>
    c4bb:	e9 3e fa ff ff       	jmp    befe <main+0xabe7>
    c4c0:	48 8d 05 61 2b 00 00 	lea    rax,[rip+0x2b61]        # f028 <_IO_stdin_used+0x28>
    c4c7:	48 89 c7             	mov    rdi,rax
    c4ca:	e8 f1 4b ff ff       	call   10c0 <puts@plt>
    c4cf:	bf 01 00 00 00       	mov    edi,0x1
    c4d4:	e8 57 4c ff ff       	call   1130 <exit@plt>
    c4d9:	90                   	nop
    c4da:	be fd 01 00 00       	mov    esi,0x1fd
    c4df:	48 8d 05 33 2b 00 00 	lea    rax,[rip+0x2b33]        # f019 <_IO_stdin_used+0x19>
    c4e6:	48 89 c7             	mov    rdi,rax
    c4e9:	b8 00 00 00 00       	mov    eax,0x0
    c4ee:	e8 fd 4b ff ff       	call   10f0 <printf@plt>
    c4f3:	b8 00 00 00 00       	mov    eax,0x0
    c4f8:	e8 73 4d ff ff       	call   1270 <get_input>
    c4fd:	89 45 fc             	mov    DWORD PTR [rbp-0x4],eax
    c500:	81 7d fc 9c 01 00 00 	cmp    DWORD PTR [rbp-0x4],0x19c
    c507:	75 05                	jne    c50e <main+0xb1f7>
    c509:	e9 17 de ff ff       	jmp    a325 <main+0x900e>
    c50e:	48 8d 05 13 2b 00 00 	lea    rax,[rip+0x2b13]        # f028 <_IO_stdin_used+0x28>
    c515:	48 89 c7             	mov    rdi,rax
    c518:	e8 a3 4b ff ff       	call   10c0 <puts@plt>
    c51d:	bf 01 00 00 00       	mov    edi,0x1
    c522:	e8 09 4c ff ff       	call   1130 <exit@plt>
    c527:	be fe 01 00 00       	mov    esi,0x1fe
    c52c:	48 8d 05 e6 2a 00 00 	lea    rax,[rip+0x2ae6]        # f019 <_IO_stdin_used+0x19>
    c533:	48 89 c7             	mov    rdi,rax
    c536:	b8 00 00 00 00       	mov    eax,0x0
    c53b:	e8 b0 4b ff ff       	call   10f0 <printf@plt>
    c540:	b8 00 00 00 00       	mov    eax,0x0
    c545:	e8 26 4d ff ff       	call   1270 <get_input>
    c54a:	89 45 fc             	mov    DWORD PTR [rbp-0x4],eax
    c54d:	81 7d fc a2 01 00 00 	cmp    DWORD PTR [rbp-0x4],0x1a2
    c554:	75 05                	jne    c55b <main+0xb244>
    c556:	e9 e4 df ff ff       	jmp    a53f <main+0x9228>
    c55b:	81 7d fc b9 00 00 00 	cmp    DWORD PTR [rbp-0x4],0xb9
    c562:	75 05                	jne    c569 <main+0xb252>
    c564:	e9 34 8e ff ff       	jmp    539d <main+0x4086>
    c569:	48 8d 05 b8 2a 00 00 	lea    rax,[rip+0x2ab8]        # f028 <_IO_stdin_used+0x28>
    c570:	48 89 c7             	mov    rdi,rax
    c573:	e8 48 4b ff ff       	call   10c0 <puts@plt>
    c578:	bf 01 00 00 00       	mov    edi,0x1
    c57d:	e8 ae 4b ff ff       	call   1130 <exit@plt>
    c582:	90                   	nop
    c583:	be ff 01 00 00       	mov    esi,0x1ff
    c588:	48 8d 05 8a 2a 00 00 	lea    rax,[rip+0x2a8a]        # f019 <_IO_stdin_used+0x19>
    c58f:	48 89 c7             	mov    rdi,rax
    c592:	b8 00 00 00 00       	mov    eax,0x0
    c597:	e8 54 4b ff ff       	call   10f0 <printf@plt>
    c59c:	b8 00 00 00 00       	mov    eax,0x0
    c5a1:	e8 ca 4c ff ff       	call   1270 <get_input>
    c5a6:	89 45 fc             	mov    DWORD PTR [rbp-0x4],eax
    c5a9:	81 7d fc dc 01 00 00 	cmp    DWORD PTR [rbp-0x4],0x1dc
    c5b0:	75 05                	jne    c5b7 <main+0xb2a0>
    c5b2:	e9 c0 f3 ff ff       	jmp    b977 <main+0xa660>
    c5b7:	48 8d 05 6a 2a 00 00 	lea    rax,[rip+0x2a6a]        # f028 <_IO_stdin_used+0x28>
    c5be:	48 89 c7             	mov    rdi,rax
    c5c1:	e8 fa 4a ff ff       	call   10c0 <puts@plt>
    c5c6:	bf 01 00 00 00       	mov    edi,0x1
    c5cb:	e8 60 4b ff ff       	call   1130 <exit@plt>
    c5d0:	90                   	nop
    c5d1:	be 00 02 00 00       	mov    esi,0x200
    c5d6:	48 8d 05 3c 2a 00 00 	lea    rax,[rip+0x2a3c]        # f019 <_IO_stdin_used+0x19>
    c5dd:	48 89 c7             	mov    rdi,rax
    c5e0:	b8 00 00 00 00       	mov    eax,0x0
    c5e5:	e8 06 4b ff ff       	call   10f0 <printf@plt>
    c5ea:	b8 00 00 00 00       	mov    eax,0x0
    c5ef:	e8 7c 4c ff ff       	call   1270 <get_input>
    c5f4:	89 45 fc             	mov    DWORD PTR [rbp-0x4],eax
    c5f7:	81 7d fc 4b 02 00 00 	cmp    DWORD PTR [rbp-0x4],0x24b
    c5fe:	75 05                	jne    c605 <main+0xb2ee>
    c600:	e9 68 1a 00 00       	jmp    e06d <main+0xcd56>
    c605:	48 8d 05 1c 2a 00 00 	lea    rax,[rip+0x2a1c]        # f028 <_IO_stdin_used+0x28>
    c60c:	48 89 c7             	mov    rdi,rax
    c60f:	e8 ac 4a ff ff       	call   10c0 <puts@plt>
    c614:	bf 01 00 00 00       	mov    edi,0x1
    c619:	e8 12 4b ff ff       	call   1130 <exit@plt>
    c61e:	90                   	nop
    c61f:	be 01 02 00 00       	mov    esi,0x201
    c624:	48 8d 05 ee 29 00 00 	lea    rax,[rip+0x29ee]        # f019 <_IO_stdin_used+0x19>
    c62b:	48 89 c7             	mov    rdi,rax
    c62e:	b8 00 00 00 00       	mov    eax,0x0
    c633:	e8 b8 4a ff ff       	call   10f0 <printf@plt>
    c638:	b8 00 00 00 00       	mov    eax,0x0
    c63d:	e8 2e 4c ff ff       	call   1270 <get_input>
    c642:	89 45 fc             	mov    DWORD PTR [rbp-0x4],eax
    c645:	81 7d fc 1d 02 00 00 	cmp    DWORD PTR [rbp-0x4],0x21d
    c64c:	75 05                	jne    c653 <main+0xb33c>
    c64e:	e9 63 09 00 00       	jmp    cfb6 <main+0xbc9f>
    c653:	48 8d 05 ce 29 00 00 	lea    rax,[rip+0x29ce]        # f028 <_IO_stdin_used+0x28>
    c65a:	48 89 c7             	mov    rdi,rax
    c65d:	e8 5e 4a ff ff       	call   10c0 <puts@plt>
    c662:	bf 01 00 00 00       	mov    edi,0x1
    c667:	e8 c4 4a ff ff       	call   1130 <exit@plt>
    c66c:	be 02 02 00 00       	mov    esi,0x202
    c671:	48 8d 05 a1 29 00 00 	lea    rax,[rip+0x29a1]        # f019 <_IO_stdin_used+0x19>
    c678:	48 89 c7             	mov    rdi,rax
    c67b:	b8 00 00 00 00       	mov    eax,0x0
    c680:	e8 6b 4a ff ff       	call   10f0 <printf@plt>
    c685:	b8 00 00 00 00       	mov    eax,0x0
    c68a:	e8 e1 4b ff ff       	call   1270 <get_input>
    c68f:	89 45 fc             	mov    DWORD PTR [rbp-0x4],eax
    c692:	83 7d fc 49          	cmp    DWORD PTR [rbp-0x4],0x49
    c696:	75 05                	jne    c69d <main+0xb386>
    c698:	e9 63 65 ff ff       	jmp    2c00 <main+0x18e9>
    c69d:	81 7d fc cf 01 00 00 	cmp    DWORD PTR [rbp-0x4],0x1cf
    c6a4:	0f 84 3e ee ff ff    	je     b4e8 <main+0xa1d1>
    c6aa:	48 8d 05 77 29 00 00 	lea    rax,[rip+0x2977]        # f028 <_IO_stdin_used+0x28>
    c6b1:	48 89 c7             	mov    rdi,rax
    c6b4:	e8 07 4a ff ff       	call   10c0 <puts@plt>
    c6b9:	bf 01 00 00 00       	mov    edi,0x1
    c6be:	e8 6d 4a ff ff       	call   1130 <exit@plt>
    c6c3:	90                   	nop
    c6c4:	be 03 02 00 00       	mov    esi,0x203
    c6c9:	48 8d 05 49 29 00 00 	lea    rax,[rip+0x2949]        # f019 <_IO_stdin_used+0x19>
    c6d0:	48 89 c7             	mov    rdi,rax
    c6d3:	b8 00 00 00 00       	mov    eax,0x0
    c6d8:	e8 13 4a ff ff       	call   10f0 <printf@plt>
    c6dd:	b8 00 00 00 00       	mov    eax,0x0
    c6e2:	e8 89 4b ff ff       	call   1270 <get_input>
    c6e7:	89 45 fc             	mov    DWORD PTR [rbp-0x4],eax
    c6ea:	81 7d fc d9 00 00 00 	cmp    DWORD PTR [rbp-0x4],0xd9
    c6f1:	75 05                	jne    c6f8 <main+0xb3e1>
    c6f3:	e9 b9 97 ff ff       	jmp    5eb1 <main+0x4b9a>
    c6f8:	48 8d 05 29 29 00 00 	lea    rax,[rip+0x2929]        # f028 <_IO_stdin_used+0x28>
    c6ff:	48 89 c7             	mov    rdi,rax
    c702:	e8 b9 49 ff ff       	call   10c0 <puts@plt>
    c707:	bf 01 00 00 00       	mov    edi,0x1
    c70c:	e8 1f 4a ff ff       	call   1130 <exit@plt>
    c711:	90                   	nop
    c712:	be 04 02 00 00       	mov    esi,0x204
    c717:	48 8d 05 fb 28 00 00 	lea    rax,[rip+0x28fb]        # f019 <_IO_stdin_used+0x19>
    c71e:	48 89 c7             	mov    rdi,rax
    c721:	b8 00 00 00 00       	mov    eax,0x0
    c726:	e8 c5 49 ff ff       	call   10f0 <printf@plt>
    c72b:	b8 00 00 00 00       	mov    eax,0x0
    c730:	e8 3b 4b ff ff       	call   1270 <get_input>
    c735:	89 45 fc             	mov    DWORD PTR [rbp-0x4],eax
    c738:	83 7d fc 55          	cmp    DWORD PTR [rbp-0x4],0x55
    c73c:	75 05                	jne    c743 <main+0xb42c>
    c73e:	e9 23 69 ff ff       	jmp    3066 <main+0x1d4f>
    c743:	48 8d 05 de 28 00 00 	lea    rax,[rip+0x28de]        # f028 <_IO_stdin_used+0x28>
    c74a:	48 89 c7             	mov    rdi,rax
    c74d:	e8 6e 49 ff ff       	call   10c0 <puts@plt>
    c752:	bf 01 00 00 00       	mov    edi,0x1
    c757:	e8 d4 49 ff ff       	call   1130 <exit@plt>
    c75c:	90                   	nop
    c75d:	be 05 02 00 00       	mov    esi,0x205
    c762:	48 8d 05 b0 28 00 00 	lea    rax,[rip+0x28b0]        # f019 <_IO_stdin_used+0x19>
    c769:	48 89 c7             	mov    rdi,rax
    c76c:	b8 00 00 00 00       	mov    eax,0x0
    c771:	e8 7a 49 ff ff       	call   10f0 <printf@plt>
    c776:	b8 00 00 00 00       	mov    eax,0x0
    c77b:	e8 f0 4a ff ff       	call   1270 <get_input>
    c780:	89 45 fc             	mov    DWORD PTR [rbp-0x4],eax
    c783:	81 7d fc 16 02 00 00 	cmp    DWORD PTR [rbp-0x4],0x216
    c78a:	75 05                	jne    c791 <main+0xb47a>
    c78c:	e9 c1 05 00 00       	jmp    cd52 <main+0xba3b>
    c791:	48 8d 05 90 28 00 00 	lea    rax,[rip+0x2890]        # f028 <_IO_stdin_used+0x28>
    c798:	48 89 c7             	mov    rdi,rax
    c79b:	e8 20 49 ff ff       	call   10c0 <puts@plt>
    c7a0:	bf 01 00 00 00       	mov    edi,0x1
    c7a5:	e8 86 49 ff ff       	call   1130 <exit@plt>
    c7aa:	be 06 02 00 00       	mov    esi,0x206
    c7af:	48 8d 05 63 28 00 00 	lea    rax,[rip+0x2863]        # f019 <_IO_stdin_used+0x19>
    c7b6:	48 89 c7             	mov    rdi,rax
    c7b9:	b8 00 00 00 00       	mov    eax,0x0
    c7be:	e8 2d 49 ff ff       	call   10f0 <printf@plt>
    c7c3:	b8 00 00 00 00       	mov    eax,0x0
    c7c8:	e8 a3 4a ff ff       	call   1270 <get_input>
    c7cd:	89 45 fc             	mov    DWORD PTR [rbp-0x4],eax
    c7d0:	81 7d fc 98 01 00 00 	cmp    DWORD PTR [rbp-0x4],0x198
    c7d7:	75 05                	jne    c7de <main+0xb4c7>
    c7d9:	e9 db d9 ff ff       	jmp    a1b9 <main+0x8ea2>
    c7de:	81 7d fc ca 00 00 00 	cmp    DWORD PTR [rbp-0x4],0xca
    c7e5:	75 05                	jne    c7ec <main+0xb4d5>
    c7e7:	e9 a7 91 ff ff       	jmp    5993 <main+0x467c>
    c7ec:	81 7d fc 08 02 00 00 	cmp    DWORD PTR [rbp-0x4],0x208
    c7f3:	75 02                	jne    c7f7 <main+0xb4e0>
    c7f5:	eb 67                	jmp    c85e <main+0xb547>
    c7f7:	48 8d 05 2a 28 00 00 	lea    rax,[rip+0x282a]        # f028 <_IO_stdin_used+0x28>
    c7fe:	48 89 c7             	mov    rdi,rax
    c801:	e8 ba 48 ff ff       	call   10c0 <puts@plt>
    c806:	bf 01 00 00 00       	mov    edi,0x1
    c80b:	e8 20 49 ff ff       	call   1130 <exit@plt>
    c810:	90                   	nop
    c811:	be 07 02 00 00       	mov    esi,0x207
    c816:	48 8d 05 fc 27 00 00 	lea    rax,[rip+0x27fc]        # f019 <_IO_stdin_used+0x19>
    c81d:	48 89 c7             	mov    rdi,rax
    c820:	b8 00 00 00 00       	mov    eax,0x0
    c825:	e8 c6 48 ff ff       	call   10f0 <printf@plt>
    c82a:	b8 00 00 00 00       	mov    eax,0x0
    c82f:	e8 3c 4a ff ff       	call   1270 <get_input>
    c834:	89 45 fc             	mov    DWORD PTR [rbp-0x4],eax
    c837:	81 7d fc 22 01 00 00 	cmp    DWORD PTR [rbp-0x4],0x122
    c83e:	75 05                	jne    c845 <main+0xb52e>
    c840:	e9 d9 af ff ff       	jmp    781e <main+0x6507>
    c845:	48 8d 05 dc 27 00 00 	lea    rax,[rip+0x27dc]        # f028 <_IO_stdin_used+0x28>
    c84c:	48 89 c7             	mov    rdi,rax
    c84f:	e8 6c 48 ff ff       	call   10c0 <puts@plt>
    c854:	bf 01 00 00 00       	mov    edi,0x1
    c859:	e8 d2 48 ff ff       	call   1130 <exit@plt>
    c85e:	be 08 02 00 00       	mov    esi,0x208
    c863:	48 8d 05 af 27 00 00 	lea    rax,[rip+0x27af]        # f019 <_IO_stdin_used+0x19>
    c86a:	48 89 c7             	mov    rdi,rax
    c86d:	b8 00 00 00 00       	mov    eax,0x0
    c872:	e8 79 48 ff ff       	call   10f0 <printf@plt>
    c877:	b8 00 00 00 00       	mov    eax,0x0
    c87c:	e8 ef 49 ff ff       	call   1270 <get_input>
    c881:	89 45 fc             	mov    DWORD PTR [rbp-0x4],eax
    c884:	81 7d fc 06 02 00 00 	cmp    DWORD PTR [rbp-0x4],0x206
    c88b:	75 05                	jne    c892 <main+0xb57b>
    c88d:	e9 18 ff ff ff       	jmp    c7aa <main+0xb493>
    c892:	81 7d fc 1e 02 00 00 	cmp    DWORD PTR [rbp-0x4],0x21e
    c899:	0f 84 7f 07 00 00    	je     d01e <main+0xbd07>
    c89f:	81 7d fc 99 01 00 00 	cmp    DWORD PTR [rbp-0x4],0x199
    c8a6:	0f 84 75 d9 ff ff    	je     a221 <main+0x8f0a>
    c8ac:	48 8d 05 75 27 00 00 	lea    rax,[rip+0x2775]        # f028 <_IO_stdin_used+0x28>
    c8b3:	48 89 c7             	mov    rdi,rax
    c8b6:	e8 05 48 ff ff       	call   10c0 <puts@plt>
    c8bb:	bf 01 00 00 00       	mov    edi,0x1
    c8c0:	e8 6b 48 ff ff       	call   1130 <exit@plt>
    c8c5:	be 09 02 00 00       	mov    esi,0x209
    c8ca:	48 8d 05 48 27 00 00 	lea    rax,[rip+0x2748]        # f019 <_IO_stdin_used+0x19>
    c8d1:	48 89 c7             	mov    rdi,rax
    c8d4:	b8 00 00 00 00       	mov    eax,0x0
    c8d9:	e8 12 48 ff ff       	call   10f0 <printf@plt>
    c8de:	b8 00 00 00 00       	mov    eax,0x0
    c8e3:	e8 88 49 ff ff       	call   1270 <get_input>
    c8e8:	89 45 fc             	mov    DWORD PTR [rbp-0x4],eax
    c8eb:	81 7d fc 0f 02 00 00 	cmp    DWORD PTR [rbp-0x4],0x20f
    c8f2:	75 05                	jne    c8f9 <main+0xb5e2>
    c8f4:	e9 b9 01 00 00       	jmp    cab2 <main+0xb79b>
    c8f9:	81 7d fc 57 01 00 00 	cmp    DWORD PTR [rbp-0x4],0x157
    c900:	0f 84 f1 c1 ff ff    	je     8af7 <main+0x77e0>
    c906:	48 8d 05 1b 27 00 00 	lea    rax,[rip+0x271b]        # f028 <_IO_stdin_used+0x28>
    c90d:	48 89 c7             	mov    rdi,rax
    c910:	e8 ab 47 ff ff       	call   10c0 <puts@plt>
    c915:	bf 01 00 00 00       	mov    edi,0x1
    c91a:	e8 11 48 ff ff       	call   1130 <exit@plt>
    c91f:	90                   	nop
    c920:	be 0a 02 00 00       	mov    esi,0x20a
    c925:	48 8d 05 ed 26 00 00 	lea    rax,[rip+0x26ed]        # f019 <_IO_stdin_used+0x19>
    c92c:	48 89 c7             	mov    rdi,rax
    c92f:	b8 00 00 00 00       	mov    eax,0x0
    c934:	e8 b7 47 ff ff       	call   10f0 <printf@plt>
    c939:	b8 00 00 00 00       	mov    eax,0x0
    c93e:	e8 2d 49 ff ff       	call   1270 <get_input>
    c943:	89 45 fc             	mov    DWORD PTR [rbp-0x4],eax
    c946:	81 7d fc ab 00 00 00 	cmp    DWORD PTR [rbp-0x4],0xab
    c94d:	75 05                	jne    c954 <main+0xb63d>
    c94f:	e9 62 85 ff ff       	jmp    4eb6 <main+0x3b9f>
    c954:	48 8d 05 cd 26 00 00 	lea    rax,[rip+0x26cd]        # f028 <_IO_stdin_used+0x28>
    c95b:	48 89 c7             	mov    rdi,rax
    c95e:	e8 5d 47 ff ff       	call   10c0 <puts@plt>
    c963:	bf 01 00 00 00       	mov    edi,0x1
    c968:	e8 c3 47 ff ff       	call   1130 <exit@plt>
    c96d:	90                   	nop
    c96e:	be 0b 02 00 00       	mov    esi,0x20b
    c973:	48 8d 05 9f 26 00 00 	lea    rax,[rip+0x269f]        # f019 <_IO_stdin_used+0x19>
    c97a:	48 89 c7             	mov    rdi,rax
    c97d:	b8 00 00 00 00       	mov    eax,0x0
    c982:	e8 69 47 ff ff       	call   10f0 <printf@plt>
    c987:	b8 00 00 00 00       	mov    eax,0x0
    c98c:	e8 df 48 ff ff       	call   1270 <get_input>
    c991:	89 45 fc             	mov    DWORD PTR [rbp-0x4],eax
    c994:	81 7d fc 8b 01 00 00 	cmp    DWORD PTR [rbp-0x4],0x18b
    c99b:	75 05                	jne    c9a2 <main+0xb68b>
    c99d:	e9 4e d3 ff ff       	jmp    9cf0 <main+0x89d9>
    c9a2:	48 8d 05 7f 26 00 00 	lea    rax,[rip+0x267f]        # f028 <_IO_stdin_used+0x28>
    c9a9:	48 89 c7             	mov    rdi,rax
    c9ac:	e8 0f 47 ff ff       	call   10c0 <puts@plt>
    c9b1:	bf 01 00 00 00       	mov    edi,0x1
    c9b6:	e8 75 47 ff ff       	call   1130 <exit@plt>
    c9bb:	90                   	nop
    c9bc:	be 0c 02 00 00       	mov    esi,0x20c
    c9c1:	48 8d 05 51 26 00 00 	lea    rax,[rip+0x2651]        # f019 <_IO_stdin_used+0x19>
    c9c8:	48 89 c7             	mov    rdi,rax
    c9cb:	b8 00 00 00 00       	mov    eax,0x0
    c9d0:	e8 1b 47 ff ff       	call   10f0 <printf@plt>
    c9d5:	b8 00 00 00 00       	mov    eax,0x0
    c9da:	e8 91 48 ff ff       	call   1270 <get_input>
    c9df:	89 45 fc             	mov    DWORD PTR [rbp-0x4],eax
    c9e2:	81 7d fc aa 01 00 00 	cmp    DWORD PTR [rbp-0x4],0x1aa
    c9e9:	75 05                	jne    c9f0 <main+0xb6d9>
    c9eb:	e9 52 de ff ff       	jmp    a842 <main+0x952b>
    c9f0:	48 8d 05 31 26 00 00 	lea    rax,[rip+0x2631]        # f028 <_IO_stdin_used+0x28>
    c9f7:	48 89 c7             	mov    rdi,rax
    c9fa:	e8 c1 46 ff ff       	call   10c0 <puts@plt>
    c9ff:	bf 01 00 00 00       	mov    edi,0x1
    ca04:	e8 27 47 ff ff       	call   1130 <exit@plt>
    ca09:	be 0d 02 00 00       	mov    esi,0x20d
    ca0e:	48 8d 05 04 26 00 00 	lea    rax,[rip+0x2604]        # f019 <_IO_stdin_used+0x19>
    ca15:	48 89 c7             	mov    rdi,rax
    ca18:	b8 00 00 00 00       	mov    eax,0x0
    ca1d:	e8 ce 46 ff ff       	call   10f0 <printf@plt>
    ca22:	b8 00 00 00 00       	mov    eax,0x0
    ca27:	e8 44 48 ff ff       	call   1270 <get_input>
    ca2c:	89 45 fc             	mov    DWORD PTR [rbp-0x4],eax
    ca2f:	81 7d fc 45 02 00 00 	cmp    DWORD PTR [rbp-0x4],0x245
    ca36:	75 05                	jne    ca3d <main+0xb726>
    ca38:	e9 f0 13 00 00       	jmp    de2d <main+0xcb16>
    ca3d:	81 7d fc fb 01 00 00 	cmp    DWORD PTR [rbp-0x4],0x1fb
    ca44:	75 05                	jne    ca4b <main+0xb734>
    ca46:	e9 d8 f9 ff ff       	jmp    c423 <main+0xb10c>
    ca4b:	48 8d 05 d6 25 00 00 	lea    rax,[rip+0x25d6]        # f028 <_IO_stdin_used+0x28>
    ca52:	48 89 c7             	mov    rdi,rax
    ca55:	e8 66 46 ff ff       	call   10c0 <puts@plt>
    ca5a:	bf 01 00 00 00       	mov    edi,0x1
    ca5f:	e8 cc 46 ff ff       	call   1130 <exit@plt>
    ca64:	90                   	nop
    ca65:	be 0e 02 00 00       	mov    esi,0x20e
    ca6a:	48 8d 05 a8 25 00 00 	lea    rax,[rip+0x25a8]        # f019 <_IO_stdin_used+0x19>
    ca71:	48 89 c7             	mov    rdi,rax
    ca74:	b8 00 00 00 00       	mov    eax,0x0
    ca79:	e8 72 46 ff ff       	call   10f0 <printf@plt>
    ca7e:	b8 00 00 00 00       	mov    eax,0x0
    ca83:	e8 e8 47 ff ff       	call   1270 <get_input>
    ca88:	89 45 fc             	mov    DWORD PTR [rbp-0x4],eax
    ca8b:	81 7d fc f2 00 00 00 	cmp    DWORD PTR [rbp-0x4],0xf2
    ca92:	75 05                	jne    ca99 <main+0xb782>
    ca94:	e9 c0 9c ff ff       	jmp    6759 <main+0x5442>
    ca99:	48 8d 05 88 25 00 00 	lea    rax,[rip+0x2588]        # f028 <_IO_stdin_used+0x28>
    caa0:	48 89 c7             	mov    rdi,rax
    caa3:	e8 18 46 ff ff       	call   10c0 <puts@plt>
    caa8:	bf 01 00 00 00       	mov    edi,0x1
    caad:	e8 7e 46 ff ff       	call   1130 <exit@plt>
    cab2:	be 0f 02 00 00       	mov    esi,0x20f
    cab7:	48 8d 05 5b 25 00 00 	lea    rax,[rip+0x255b]        # f019 <_IO_stdin_used+0x19>
    cabe:	48 89 c7             	mov    rdi,rax
    cac1:	b8 00 00 00 00       	mov    eax,0x0
    cac6:	e8 25 46 ff ff       	call   10f0 <printf@plt>
    cacb:	b8 00 00 00 00       	mov    eax,0x0
    cad0:	e8 9b 47 ff ff       	call   1270 <get_input>
    cad5:	89 45 fc             	mov    DWORD PTR [rbp-0x4],eax
    cad8:	81 7d fc 3e 02 00 00 	cmp    DWORD PTR [rbp-0x4],0x23e
    cadf:	75 05                	jne    cae6 <main+0xb7cf>
    cae1:	e9 e3 10 00 00       	jmp    dbc9 <main+0xc8b2>
    cae6:	81 7d fc 09 02 00 00 	cmp    DWORD PTR [rbp-0x4],0x209
    caed:	75 05                	jne    caf4 <main+0xb7dd>
    caef:	e9 d1 fd ff ff       	jmp    c8c5 <main+0xb5ae>
    caf4:	81 7d fc f2 01 00 00 	cmp    DWORD PTR [rbp-0x4],0x1f2
    cafb:	75 05                	jne    cb02 <main+0xb7eb>
    cafd:	e9 00 f6 ff ff       	jmp    c102 <main+0xadeb>
    cb02:	48 8d 05 1f 25 00 00 	lea    rax,[rip+0x251f]        # f028 <_IO_stdin_used+0x28>
    cb09:	48 89 c7             	mov    rdi,rax
    cb0c:	e8 af 45 ff ff       	call   10c0 <puts@plt>
    cb11:	bf 01 00 00 00       	mov    edi,0x1
    cb16:	e8 15 46 ff ff       	call   1130 <exit@plt>
    cb1b:	be 10 02 00 00       	mov    esi,0x210
    cb20:	48 8d 05 f2 24 00 00 	lea    rax,[rip+0x24f2]        # f019 <_IO_stdin_used+0x19>
    cb27:	48 89 c7             	mov    rdi,rax
    cb2a:	b8 00 00 00 00       	mov    eax,0x0
    cb2f:	e8 bc 45 ff ff       	call   10f0 <printf@plt>
    cb34:	b8 00 00 00 00       	mov    eax,0x0
    cb39:	e8 32 47 ff ff       	call   1270 <get_input>
    cb3e:	89 45 fc             	mov    DWORD PTR [rbp-0x4],eax
    cb41:	81 7d fc a8 00 00 00 	cmp    DWORD PTR [rbp-0x4],0xa8
    cb48:	75 05                	jne    cb4f <main+0xb838>
    cb4a:	e9 48 82 ff ff       	jmp    4d97 <main+0x3a80>
    cb4f:	81 7d fc 21 01 00 00 	cmp    DWORD PTR [rbp-0x4],0x121
    cb56:	0f 84 74 ac ff ff    	je     77d0 <main+0x64b9>
    cb5c:	81 7d fc 24 02 00 00 	cmp    DWORD PTR [rbp-0x4],0x224
    cb63:	75 05                	jne    cb6a <main+0xb853>
    cb65:	e9 c4 06 00 00       	jmp    d22e <main+0xbf17>
    cb6a:	48 8d 05 b7 24 00 00 	lea    rax,[rip+0x24b7]        # f028 <_IO_stdin_used+0x28>
    cb71:	48 89 c7             	mov    rdi,rax
    cb74:	e8 47 45 ff ff       	call   10c0 <puts@plt>
    cb79:	bf 01 00 00 00       	mov    edi,0x1
    cb7e:	e8 ad 45 ff ff       	call   1130 <exit@plt>
    cb83:	be 11 02 00 00       	mov    esi,0x211
    cb88:	48 8d 05 8a 24 00 00 	lea    rax,[rip+0x248a]        # f019 <_IO_stdin_used+0x19>
    cb8f:	48 89 c7             	mov    rdi,rax
    cb92:	b8 00 00 00 00       	mov    eax,0x0
    cb97:	e8 54 45 ff ff       	call   10f0 <printf@plt>
    cb9c:	b8 00 00 00 00       	mov    eax,0x0
    cba1:	e8 ca 46 ff ff       	call   1270 <get_input>
    cba6:	89 45 fc             	mov    DWORD PTR [rbp-0x4],eax
    cba9:	81 7d fc c5 01 00 00 	cmp    DWORD PTR [rbp-0x4],0x1c5
    cbb0:	75 05                	jne    cbb7 <main+0xb8a0>
    cbb2:	e9 d5 e5 ff ff       	jmp    b18c <main+0x9e75>
    cbb7:	81 7d fc f7 01 00 00 	cmp    DWORD PTR [rbp-0x4],0x1f7
    cbbe:	75 05                	jne    cbc5 <main+0xb8ae>
    cbc0:	e9 ed f6 ff ff       	jmp    c2b2 <main+0xaf9b>
    cbc5:	48 8d 05 5c 24 00 00 	lea    rax,[rip+0x245c]        # f028 <_IO_stdin_used+0x28>
    cbcc:	48 89 c7             	mov    rdi,rax
    cbcf:	e8 ec 44 ff ff       	call   10c0 <puts@plt>
    cbd4:	bf 01 00 00 00       	mov    edi,0x1
    cbd9:	e8 52 45 ff ff       	call   1130 <exit@plt>
    cbde:	be 12 02 00 00       	mov    esi,0x212
    cbe3:	48 8d 05 2f 24 00 00 	lea    rax,[rip+0x242f]        # f019 <_IO_stdin_used+0x19>
    cbea:	48 89 c7             	mov    rdi,rax
    cbed:	b8 00 00 00 00       	mov    eax,0x0
    cbf2:	e8 f9 44 ff ff       	call   10f0 <printf@plt>
    cbf7:	b8 00 00 00 00       	mov    eax,0x0
    cbfc:	e8 6f 46 ff ff       	call   1270 <get_input>
    cc01:	89 45 fc             	mov    DWORD PTR [rbp-0x4],eax
    cc04:	81 7d fc a8 00 00 00 	cmp    DWORD PTR [rbp-0x4],0xa8
    cc0b:	75 05                	jne    cc12 <main+0xb8fb>
    cc0d:	e9 85 81 ff ff       	jmp    4d97 <main+0x3a80>
    cc12:	81 7d fc ea 01 00 00 	cmp    DWORD PTR [rbp-0x4],0x1ea
    cc19:	75 05                	jne    cc20 <main+0xb909>
    cc1b:	e9 21 f2 ff ff       	jmp    be41 <main+0xab2a>
    cc20:	81 7d fc bf 00 00 00 	cmp    DWORD PTR [rbp-0x4],0xbf
    cc27:	75 05                	jne    cc2e <main+0xb917>
    cc29:	e9 9e 89 ff ff       	jmp    55cc <main+0x42b5>
    cc2e:	48 8d 05 f3 23 00 00 	lea    rax,[rip+0x23f3]        # f028 <_IO_stdin_used+0x28>
    cc35:	48 89 c7             	mov    rdi,rax
    cc38:	e8 83 44 ff ff       	call   10c0 <puts@plt>
    cc3d:	bf 01 00 00 00       	mov    edi,0x1
    cc42:	e8 e9 44 ff ff       	call   1130 <exit@plt>
    cc47:	be 13 02 00 00       	mov    esi,0x213
    cc4c:	48 8d 05 c6 23 00 00 	lea    rax,[rip+0x23c6]        # f019 <_IO_stdin_used+0x19>
    cc53:	48 89 c7             	mov    rdi,rax
    cc56:	b8 00 00 00 00       	mov    eax,0x0
    cc5b:	e8 90 44 ff ff       	call   10f0 <printf@plt>
    cc60:	b8 00 00 00 00       	mov    eax,0x0
    cc65:	e8 06 46 ff ff       	call   1270 <get_input>
    cc6a:	89 45 fc             	mov    DWORD PTR [rbp-0x4],eax
    cc6d:	83 7d fc 52          	cmp    DWORD PTR [rbp-0x4],0x52
    cc71:	75 05                	jne    cc78 <main+0xb961>
    cc73:	e9 e3 62 ff ff       	jmp    2f5b <main+0x1c44>
    cc78:	81 7d fc 7d 01 00 00 	cmp    DWORD PTR [rbp-0x4],0x17d
    cc7f:	75 05                	jne    cc86 <main+0xb96f>
    cc81:	e9 5b cb ff ff       	jmp    97e1 <main+0x84ca>
    cc86:	48 8d 05 9b 23 00 00 	lea    rax,[rip+0x239b]        # f028 <_IO_stdin_used+0x28>
    cc8d:	48 89 c7             	mov    rdi,rax
    cc90:	e8 2b 44 ff ff       	call   10c0 <puts@plt>
    cc95:	bf 01 00 00 00       	mov    edi,0x1
    cc9a:	e8 91 44 ff ff       	call   1130 <exit@plt>
    cc9f:	90                   	nop
    cca0:	be 14 02 00 00       	mov    esi,0x214
    cca5:	48 8d 05 6d 23 00 00 	lea    rax,[rip+0x236d]        # f019 <_IO_stdin_used+0x19>
    ccac:	48 89 c7             	mov    rdi,rax
    ccaf:	b8 00 00 00 00       	mov    eax,0x0
    ccb4:	e8 37 44 ff ff       	call   10f0 <printf@plt>
    ccb9:	b8 00 00 00 00       	mov    eax,0x0
    ccbe:	e8 ad 45 ff ff       	call   1270 <get_input>
    ccc3:	89 45 fc             	mov    DWORD PTR [rbp-0x4],eax
    ccc6:	83 7d fc 0a          	cmp    DWORD PTR [rbp-0x4],0xa
    ccca:	75 05                	jne    ccd1 <main+0xb9ba>
    cccc:	e9 a9 49 ff ff       	jmp    167a <main+0x363>
    ccd1:	48 8d 05 50 23 00 00 	lea    rax,[rip+0x2350]        # f028 <_IO_stdin_used+0x28>
    ccd8:	48 89 c7             	mov    rdi,rax
    ccdb:	e8 e0 43 ff ff       	call   10c0 <puts@plt>
    cce0:	bf 01 00 00 00       	mov    edi,0x1
    cce5:	e8 46 44 ff ff       	call   1130 <exit@plt>
    ccea:	be 15 02 00 00       	mov    esi,0x215
    ccef:	48 8d 05 23 23 00 00 	lea    rax,[rip+0x2323]        # f019 <_IO_stdin_used+0x19>
    ccf6:	48 89 c7             	mov    rdi,rax
    ccf9:	b8 00 00 00 00       	mov    eax,0x0
    ccfe:	e8 ed 43 ff ff       	call   10f0 <printf@plt>
    cd03:	b8 00 00 00 00       	mov    eax,0x0
    cd08:	e8 63 45 ff ff       	call   1270 <get_input>
    cd0d:	89 45 fc             	mov    DWORD PTR [rbp-0x4],eax
    cd10:	81 7d fc dd 01 00 00 	cmp    DWORD PTR [rbp-0x4],0x1dd
    cd17:	75 05                	jne    cd1e <main+0xba07>
    cd19:	e9 be ec ff ff       	jmp    b9dc <main+0xa6c5>
    cd1e:	81 7d fc b3 01 00 00 	cmp    DWORD PTR [rbp-0x4],0x1b3
    cd25:	0f 84 14 de ff ff    	je     ab3f <main+0x9828>
    cd2b:	81 7d fc e5 01 00 00 	cmp    DWORD PTR [rbp-0x4],0x1e5
    cd32:	75 05                	jne    cd39 <main+0xba22>
    cd34:	e9 52 ef ff ff       	jmp    bc8b <main+0xa974>
    cd39:	48 8d 05 e8 22 00 00 	lea    rax,[rip+0x22e8]        # f028 <_IO_stdin_used+0x28>
    cd40:	48 89 c7             	mov    rdi,rax
    cd43:	e8 78 43 ff ff       	call   10c0 <puts@plt>
    cd48:	bf 01 00 00 00       	mov    edi,0x1
    cd4d:	e8 de 43 ff ff       	call   1130 <exit@plt>
    cd52:	be 16 02 00 00       	mov    esi,0x216
    cd57:	48 8d 05 bb 22 00 00 	lea    rax,[rip+0x22bb]        # f019 <_IO_stdin_used+0x19>
    cd5e:	48 89 c7             	mov    rdi,rax
    cd61:	b8 00 00 00 00       	mov    eax,0x0
    cd66:	e8 85 43 ff ff       	call   10f0 <printf@plt>
    cd6b:	b8 00 00 00 00       	mov    eax,0x0
    cd70:	e8 fb 44 ff ff       	call   1270 <get_input>
    cd75:	89 45 fc             	mov    DWORD PTR [rbp-0x4],eax
    cd78:	81 7d fc 05 02 00 00 	cmp    DWORD PTR [rbp-0x4],0x205
    cd7f:	0f 84 d7 f9 ff ff    	je     c75c <main+0xb445>
    cd85:	81 7d fc c7 01 00 00 	cmp    DWORD PTR [rbp-0x4],0x1c7
    cd8c:	0f 84 ab e4 ff ff    	je     b23d <main+0x9f26>
    cd92:	83 7d fc 1d          	cmp    DWORD PTR [rbp-0x4],0x1d
    cd96:	75 05                	jne    cd9d <main+0xba86>
    cd98:	e9 8e 4f ff ff       	jmp    1d2b <main+0xa14>
    cd9d:	48 8d 05 84 22 00 00 	lea    rax,[rip+0x2284]        # f028 <_IO_stdin_used+0x28>
    cda4:	48 89 c7             	mov    rdi,rax
    cda7:	e8 14 43 ff ff       	call   10c0 <puts@plt>
    cdac:	bf 01 00 00 00       	mov    edi,0x1
    cdb1:	e8 7a 43 ff ff       	call   1130 <exit@plt>
    cdb6:	90                   	nop
    cdb7:	be 17 02 00 00       	mov    esi,0x217
    cdbc:	48 8d 05 56 22 00 00 	lea    rax,[rip+0x2256]        # f019 <_IO_stdin_used+0x19>
    cdc3:	48 89 c7             	mov    rdi,rax
    cdc6:	b8 00 00 00 00       	mov    eax,0x0
    cdcb:	e8 20 43 ff ff       	call   10f0 <printf@plt>
    cdd0:	b8 00 00 00 00       	mov    eax,0x0
    cdd5:	e8 96 44 ff ff       	call   1270 <get_input>
    cdda:	89 45 fc             	mov    DWORD PTR [rbp-0x4],eax
    cddd:	83 7d fc 75          	cmp    DWORD PTR [rbp-0x4],0x75
    cde1:	75 05                	jne    cde8 <main+0xbad1>
    cde3:	e9 ec 6d ff ff       	jmp    3bd4 <main+0x28bd>
    cde8:	48 8d 05 39 22 00 00 	lea    rax,[rip+0x2239]        # f028 <_IO_stdin_used+0x28>
    cdef:	48 89 c7             	mov    rdi,rax
    cdf2:	e8 c9 42 ff ff       	call   10c0 <puts@plt>
    cdf7:	bf 01 00 00 00       	mov    edi,0x1
    cdfc:	e8 2f 43 ff ff       	call   1130 <exit@plt>
    ce01:	be 18 02 00 00       	mov    esi,0x218
    ce06:	48 8d 05 0c 22 00 00 	lea    rax,[rip+0x220c]        # f019 <_IO_stdin_used+0x19>
    ce0d:	48 89 c7             	mov    rdi,rax
    ce10:	b8 00 00 00 00       	mov    eax,0x0
    ce15:	e8 d6 42 ff ff       	call   10f0 <printf@plt>
    ce1a:	b8 00 00 00 00       	mov    eax,0x0
    ce1f:	e8 4c 44 ff ff       	call   1270 <get_input>
    ce24:	89 45 fc             	mov    DWORD PTR [rbp-0x4],eax
    ce27:	83 7d fc 68          	cmp    DWORD PTR [rbp-0x4],0x68
    ce2b:	75 05                	jne    ce32 <main+0xbb1b>
    ce2d:	e9 eb 68 ff ff       	jmp    371d <main+0x2406>
    ce32:	81 7d fc 01 01 00 00 	cmp    DWORD PTR [rbp-0x4],0x101
    ce39:	75 05                	jne    ce40 <main+0xbb29>
    ce3b:	e9 80 9e ff ff       	jmp    6cc0 <main+0x59a9>
    ce40:	48 8d 05 e1 21 00 00 	lea    rax,[rip+0x21e1]        # f028 <_IO_stdin_used+0x28>
    ce47:	48 89 c7             	mov    rdi,rax
    ce4a:	e8 71 42 ff ff       	call   10c0 <puts@plt>
    ce4f:	bf 01 00 00 00       	mov    edi,0x1
    ce54:	e8 d7 42 ff ff       	call   1130 <exit@plt>
    ce59:	be 19 02 00 00       	mov    esi,0x219
    ce5e:	48 8d 05 b4 21 00 00 	lea    rax,[rip+0x21b4]        # f019 <_IO_stdin_used+0x19>
    ce65:	48 89 c7             	mov    rdi,rax
    ce68:	b8 00 00 00 00       	mov    eax,0x0
    ce6d:	e8 7e 42 ff ff       	call   10f0 <printf@plt>
    ce72:	b8 00 00 00 00       	mov    eax,0x0
    ce77:	e8 f4 43 ff ff       	call   1270 <get_input>
    ce7c:	89 45 fc             	mov    DWORD PTR [rbp-0x4],eax
    ce7f:	81 7d fc 29 02 00 00 	cmp    DWORD PTR [rbp-0x4],0x229
    ce86:	75 05                	jne    ce8d <main+0xbb76>
    ce88:	e9 4a 05 00 00       	jmp    d3d7 <main+0xc0c0>
    ce8d:	81 7d fc 7f 01 00 00 	cmp    DWORD PTR [rbp-0x4],0x17f
    ce94:	75 05                	jne    ce9b <main+0xbb84>
    ce96:	e9 14 ca ff ff       	jmp    98af <main+0x8598>
    ce9b:	48 8d 05 86 21 00 00 	lea    rax,[rip+0x2186]        # f028 <_IO_stdin_used+0x28>
    cea2:	48 89 c7             	mov    rdi,rax
    cea5:	e8 16 42 ff ff       	call   10c0 <puts@plt>
    ceaa:	bf 01 00 00 00       	mov    edi,0x1
    ceaf:	e8 7c 42 ff ff       	call   1130 <exit@plt>
    ceb4:	90                   	nop
    ceb5:	be 1a 02 00 00       	mov    esi,0x21a
    ceba:	48 8d 05 58 21 00 00 	lea    rax,[rip+0x2158]        # f019 <_IO_stdin_used+0x19>
    cec1:	48 89 c7             	mov    rdi,rax
    cec4:	b8 00 00 00 00       	mov    eax,0x0
    cec9:	e8 22 42 ff ff       	call   10f0 <printf@plt>
    cece:	b8 00 00 00 00       	mov    eax,0x0
    ced3:	e8 98 43 ff ff       	call   1270 <get_input>
    ced8:	89 45 fc             	mov    DWORD PTR [rbp-0x4],eax
    cedb:	81 7d fc 53 02 00 00 	cmp    DWORD PTR [rbp-0x4],0x253
    cee2:	75 05                	jne    cee9 <main+0xbbd2>
    cee4:	e9 9f 14 00 00       	jmp    e388 <main+0xd071>
    cee9:	48 8d 05 38 21 00 00 	lea    rax,[rip+0x2138]        # f028 <_IO_stdin_used+0x28>
    cef0:	48 89 c7             	mov    rdi,rax
    cef3:	e8 c8 41 ff ff       	call   10c0 <puts@plt>
    cef8:	bf 01 00 00 00       	mov    edi,0x1
    cefd:	e8 2e 42 ff ff       	call   1130 <exit@plt>
    cf02:	90                   	nop
    cf03:	be 1b 02 00 00       	mov    esi,0x21b
    cf08:	48 8d 05 0a 21 00 00 	lea    rax,[rip+0x210a]        # f019 <_IO_stdin_used+0x19>
    cf0f:	48 89 c7             	mov    rdi,rax
    cf12:	b8 00 00 00 00       	mov    eax,0x0
    cf17:	e8 d4 41 ff ff       	call   10f0 <printf@plt>
    cf1c:	b8 00 00 00 00       	mov    eax,0x0
    cf21:	e8 4a 43 ff ff       	call   1270 <get_input>
    cf26:	89 45 fc             	mov    DWORD PTR [rbp-0x4],eax
    cf29:	81 7d fc 2c 02 00 00 	cmp    DWORD PTR [rbp-0x4],0x22c
    cf30:	75 05                	jne    cf37 <main+0xbc20>
    cf32:	e9 e1 05 00 00       	jmp    d518 <main+0xc201>
    cf37:	48 8d 05 ea 20 00 00 	lea    rax,[rip+0x20ea]        # f028 <_IO_stdin_used+0x28>
    cf3e:	48 89 c7             	mov    rdi,rax
    cf41:	e8 7a 41 ff ff       	call   10c0 <puts@plt>
    cf46:	bf 01 00 00 00       	mov    edi,0x1
    cf4b:	e8 e0 41 ff ff       	call   1130 <exit@plt>
    cf50:	be 1c 02 00 00       	mov    esi,0x21c
    cf55:	48 8d 05 bd 20 00 00 	lea    rax,[rip+0x20bd]        # f019 <_IO_stdin_used+0x19>
    cf5c:	48 89 c7             	mov    rdi,rax
    cf5f:	b8 00 00 00 00       	mov    eax,0x0
    cf64:	e8 87 41 ff ff       	call   10f0 <printf@plt>
    cf69:	b8 00 00 00 00       	mov    eax,0x0
    cf6e:	e8 fd 42 ff ff       	call   1270 <get_input>
    cf73:	89 45 fc             	mov    DWORD PTR [rbp-0x4],eax
    cf76:	81 7d fc 9b 01 00 00 	cmp    DWORD PTR [rbp-0x4],0x19b
    cf7d:	75 05                	jne    cf84 <main+0xbc6d>
    cf7f:	e9 39 d3 ff ff       	jmp    a2bd <main+0x8fa6>
    cf84:	81 7d fc 70 01 00 00 	cmp    DWORD PTR [rbp-0x4],0x170
    cf8b:	75 05                	jne    cf92 <main+0xbc7b>
    cf8d:	e9 d0 c3 ff ff       	jmp    9362 <main+0x804b>
    cf92:	83 7d fc 50          	cmp    DWORD PTR [rbp-0x4],0x50
    cf96:	75 05                	jne    cf9d <main+0xbc86>
    cf98:	e9 08 5f ff ff       	jmp    2ea5 <main+0x1b8e>
    cf9d:	48 8d 05 84 20 00 00 	lea    rax,[rip+0x2084]        # f028 <_IO_stdin_used+0x28>
    cfa4:	48 89 c7             	mov    rdi,rax
    cfa7:	e8 14 41 ff ff       	call   10c0 <puts@plt>
    cfac:	bf 01 00 00 00       	mov    edi,0x1
    cfb1:	e8 7a 41 ff ff       	call   1130 <exit@plt>
    cfb6:	be 1d 02 00 00       	mov    esi,0x21d
    cfbb:	48 8d 05 57 20 00 00 	lea    rax,[rip+0x2057]        # f019 <_IO_stdin_used+0x19>
    cfc2:	48 89 c7             	mov    rdi,rax
    cfc5:	b8 00 00 00 00       	mov    eax,0x0
    cfca:	e8 21 41 ff ff       	call   10f0 <printf@plt>
    cfcf:	b8 00 00 00 00       	mov    eax,0x0
    cfd4:	e8 97 42 ff ff       	call   1270 <get_input>
    cfd9:	89 45 fc             	mov    DWORD PTR [rbp-0x4],eax
    cfdc:	81 7d fc 01 02 00 00 	cmp    DWORD PTR [rbp-0x4],0x201
    cfe3:	0f 84 35 f6 ff ff    	je     c61e <main+0xb307>
    cfe9:	81 7d fc 5c 02 00 00 	cmp    DWORD PTR [rbp-0x4],0x25c
    cff0:	75 05                	jne    cff7 <main+0xbce0>
    cff2:	e9 b1 16 00 00       	jmp    e6a8 <main+0xd391>
    cff7:	81 7d fc 40 01 00 00 	cmp    DWORD PTR [rbp-0x4],0x140
    cffe:	75 05                	jne    d005 <main+0xbcee>
    d000:	e9 9d b2 ff ff       	jmp    82a2 <main+0x6f8b>
    d005:	48 8d 05 1c 20 00 00 	lea    rax,[rip+0x201c]        # f028 <_IO_stdin_used+0x28>
    d00c:	48 89 c7             	mov    rdi,rax
    d00f:	e8 ac 40 ff ff       	call   10c0 <puts@plt>
    d014:	bf 01 00 00 00       	mov    edi,0x1
    d019:	e8 12 41 ff ff       	call   1130 <exit@plt>
    d01e:	90                   	nop
    d01f:	be 1e 02 00 00       	mov    esi,0x21e
    d024:	48 8d 05 ee 1f 00 00 	lea    rax,[rip+0x1fee]        # f019 <_IO_stdin_used+0x19>
    d02b:	48 89 c7             	mov    rdi,rax
    d02e:	b8 00 00 00 00       	mov    eax,0x0
    d033:	e8 b8 40 ff ff       	call   10f0 <printf@plt>
    d038:	b8 00 00 00 00       	mov    eax,0x0
    d03d:	e8 2e 42 ff ff       	call   1270 <get_input>
    d042:	89 45 fc             	mov    DWORD PTR [rbp-0x4],eax
    d045:	81 7d fc 08 02 00 00 	cmp    DWORD PTR [rbp-0x4],0x208
    d04c:	75 05                	jne    d053 <main+0xbd3c>
    d04e:	e9 0b f8 ff ff       	jmp    c85e <main+0xb547>
    d053:	48 8d 05 ce 1f 00 00 	lea    rax,[rip+0x1fce]        # f028 <_IO_stdin_used+0x28>
    d05a:	48 89 c7             	mov    rdi,rax
    d05d:	e8 5e 40 ff ff       	call   10c0 <puts@plt>
    d062:	bf 01 00 00 00       	mov    edi,0x1
    d067:	e8 c4 40 ff ff       	call   1130 <exit@plt>
    d06c:	be 1f 02 00 00       	mov    esi,0x21f
    d071:	48 8d 05 a1 1f 00 00 	lea    rax,[rip+0x1fa1]        # f019 <_IO_stdin_used+0x19>
    d078:	48 89 c7             	mov    rdi,rax
    d07b:	b8 00 00 00 00       	mov    eax,0x0
    d080:	e8 6b 40 ff ff       	call   10f0 <printf@plt>
    d085:	b8 00 00 00 00       	mov    eax,0x0
    d08a:	e8 e1 41 ff ff       	call   1270 <get_input>
    d08f:	89 45 fc             	mov    DWORD PTR [rbp-0x4],eax
    d092:	81 7d fc 6d 01 00 00 	cmp    DWORD PTR [rbp-0x4],0x16d
    d099:	75 05                	jne    d0a0 <main+0xbd89>
    d09b:	e9 a2 c1 ff ff       	jmp    9242 <main+0x7f2b>
    d0a0:	81 7d fc 2c 01 00 00 	cmp    DWORD PTR [rbp-0x4],0x12c
    d0a7:	75 05                	jne    d0ae <main+0xbd97>
    d0a9:	e9 cc aa ff ff       	jmp    7b7a <main+0x6863>
    d0ae:	48 8d 05 73 1f 00 00 	lea    rax,[rip+0x1f73]        # f028 <_IO_stdin_used+0x28>
    d0b5:	48 89 c7             	mov    rdi,rax
    d0b8:	e8 03 40 ff ff       	call   10c0 <puts@plt>
    d0bd:	bf 01 00 00 00       	mov    edi,0x1
    d0c2:	e8 69 40 ff ff       	call   1130 <exit@plt>
    d0c7:	90                   	nop
    d0c8:	be 20 02 00 00       	mov    esi,0x220
    d0cd:	48 8d 05 45 1f 00 00 	lea    rax,[rip+0x1f45]        # f019 <_IO_stdin_used+0x19>
    d0d4:	48 89 c7             	mov    rdi,rax
    d0d7:	b8 00 00 00 00       	mov    eax,0x0
    d0dc:	e8 0f 40 ff ff       	call   10f0 <printf@plt>
    d0e1:	b8 00 00 00 00       	mov    eax,0x0
    d0e6:	e8 85 41 ff ff       	call   1270 <get_input>
    d0eb:	89 45 fc             	mov    DWORD PTR [rbp-0x4],eax
    d0ee:	81 7d fc ce 01 00 00 	cmp    DWORD PTR [rbp-0x4],0x1ce
    d0f5:	75 05                	jne    d0fc <main+0xbde5>
    d0f7:	e9 92 e3 ff ff       	jmp    b48e <main+0xa177>
    d0fc:	48 8d 05 25 1f 00 00 	lea    rax,[rip+0x1f25]        # f028 <_IO_stdin_used+0x28>
    d103:	48 89 c7             	mov    rdi,rax
    d106:	e8 b5 3f ff ff       	call   10c0 <puts@plt>
    d10b:	bf 01 00 00 00       	mov    edi,0x1
    d110:	e8 1b 40 ff ff       	call   1130 <exit@plt>
    d115:	be 21 02 00 00       	mov    esi,0x221
    d11a:	48 8d 05 f8 1e 00 00 	lea    rax,[rip+0x1ef8]        # f019 <_IO_stdin_used+0x19>
    d121:	48 89 c7             	mov    rdi,rax
    d124:	b8 00 00 00 00       	mov    eax,0x0
    d129:	e8 c2 3f ff ff       	call   10f0 <printf@plt>
    d12e:	b8 00 00 00 00       	mov    eax,0x0
    d133:	e8 38 41 ff ff       	call   1270 <get_input>
    d138:	89 45 fc             	mov    DWORD PTR [rbp-0x4],eax
    d13b:	81 7d fc 61 02 00 00 	cmp    DWORD PTR [rbp-0x4],0x261
    d142:	75 05                	jne    d149 <main+0xbe32>
    d144:	e9 3b 17 00 00       	jmp    e884 <main+0xd56d>
    d149:	83 7d fc 13          	cmp    DWORD PTR [rbp-0x4],0x13
    d14d:	75 05                	jne    d154 <main+0xbe3d>
    d14f:	e9 4f 48 ff ff       	jmp    19a3 <main+0x68c>
    d154:	48 8d 05 cd 1e 00 00 	lea    rax,[rip+0x1ecd]        # f028 <_IO_stdin_used+0x28>
    d15b:	48 89 c7             	mov    rdi,rax
    d15e:	e8 5d 3f ff ff       	call   10c0 <puts@plt>
    d163:	bf 01 00 00 00       	mov    edi,0x1
    d168:	e8 c3 3f ff ff       	call   1130 <exit@plt>
    d16d:	be 22 02 00 00       	mov    esi,0x222
    d172:	48 8d 05 a0 1e 00 00 	lea    rax,[rip+0x1ea0]        # f019 <_IO_stdin_used+0x19>
    d179:	48 89 c7             	mov    rdi,rax
    d17c:	b8 00 00 00 00       	mov    eax,0x0
    d181:	e8 6a 3f ff ff       	call   10f0 <printf@plt>
    d186:	b8 00 00 00 00       	mov    eax,0x0
    d18b:	e8 e0 40 ff ff       	call   1270 <get_input>
    d190:	89 45 fc             	mov    DWORD PTR [rbp-0x4],eax
    d193:	81 7d fc 66 01 00 00 	cmp    DWORD PTR [rbp-0x4],0x166
    d19a:	75 05                	jne    d1a1 <main+0xbe8a>
    d19c:	e9 52 be ff ff       	jmp    8ff3 <main+0x7cdc>
    d1a1:	83 7d fc 09          	cmp    DWORD PTR [rbp-0x4],0x9
    d1a5:	75 05                	jne    d1ac <main+0xbe95>
    d1a7:	e9 65 44 ff ff       	jmp    1611 <main+0x2fa>
    d1ac:	81 7d fc 97 00 00 00 	cmp    DWORD PTR [rbp-0x4],0x97
    d1b3:	75 05                	jne    d1ba <main+0xbea3>
    d1b5:	e9 0c 76 ff ff       	jmp    47c6 <main+0x34af>
    d1ba:	81 7d fc d5 00 00 00 	cmp    DWORD PTR [rbp-0x4],0xd5
    d1c1:	0f 84 8f 8b ff ff    	je     5d56 <main+0x4a3f>
    d1c7:	48 8d 05 5a 1e 00 00 	lea    rax,[rip+0x1e5a]        # f028 <_IO_stdin_used+0x28>
    d1ce:	48 89 c7             	mov    rdi,rax
    d1d1:	e8 ea 3e ff ff       	call   10c0 <puts@plt>
    d1d6:	bf 01 00 00 00       	mov    edi,0x1
    d1db:	e8 50 3f ff ff       	call   1130 <exit@plt>
    d1e0:	90                   	nop
    d1e1:	be 23 02 00 00       	mov    esi,0x223
    d1e6:	48 8d 05 2c 1e 00 00 	lea    rax,[rip+0x1e2c]        # f019 <_IO_stdin_used+0x19>
    d1ed:	48 89 c7             	mov    rdi,rax
    d1f0:	b8 00 00 00 00       	mov    eax,0x0
    d1f5:	e8 f6 3e ff ff       	call   10f0 <printf@plt>
    d1fa:	b8 00 00 00 00       	mov    eax,0x0
    d1ff:	e8 6c 40 ff ff       	call   1270 <get_input>
    d204:	89 45 fc             	mov    DWORD PTR [rbp-0x4],eax
    d207:	81 7d fc 72 01 00 00 	cmp    DWORD PTR [rbp-0x4],0x172
    d20e:	75 05                	jne    d215 <main+0xbefe>
    d210:	e9 10 c2 ff ff       	jmp    9425 <main+0x810e>
    d215:	48 8d 05 0c 1e 00 00 	lea    rax,[rip+0x1e0c]        # f028 <_IO_stdin_used+0x28>
    d21c:	48 89 c7             	mov    rdi,rax
    d21f:	e8 9c 3e ff ff       	call   10c0 <puts@plt>
    d224:	bf 01 00 00 00       	mov    edi,0x1
    d229:	e8 02 3f ff ff       	call   1130 <exit@plt>
    d22e:	be 24 02 00 00       	mov    esi,0x224
    d233:	48 8d 05 df 1d 00 00 	lea    rax,[rip+0x1ddf]        # f019 <_IO_stdin_used+0x19>
    d23a:	48 89 c7             	mov    rdi,rax
    d23d:	b8 00 00 00 00       	mov    eax,0x0
    d242:	e8 a9 3e ff ff       	call   10f0 <printf@plt>
    d247:	b8 00 00 00 00       	mov    eax,0x0
    d24c:	e8 1f 40 ff ff       	call   1270 <get_input>
    d251:	89 45 fc             	mov    DWORD PTR [rbp-0x4],eax
    d254:	81 7d fc 10 02 00 00 	cmp    DWORD PTR [rbp-0x4],0x210
    d25b:	75 05                	jne    d262 <main+0xbf4b>
    d25d:	e9 b9 f8 ff ff       	jmp    cb1b <main+0xb804>
    d262:	81 7d fc 92 01 00 00 	cmp    DWORD PTR [rbp-0x4],0x192
    d269:	75 05                	jne    d270 <main+0xbf59>
    d26b:	e9 17 cd ff ff       	jmp    9f87 <main+0x8c70>
    d270:	48 8d 05 b1 1d 00 00 	lea    rax,[rip+0x1db1]        # f028 <_IO_stdin_used+0x28>
    d277:	48 89 c7             	mov    rdi,rax
    d27a:	e8 41 3e ff ff       	call   10c0 <puts@plt>
    d27f:	bf 01 00 00 00       	mov    edi,0x1
    d284:	e8 a7 3e ff ff       	call   1130 <exit@plt>
    d289:	be 25 02 00 00       	mov    esi,0x225
    d28e:	48 8d 05 84 1d 00 00 	lea    rax,[rip+0x1d84]        # f019 <_IO_stdin_used+0x19>
    d295:	48 89 c7             	mov    rdi,rax
    d298:	b8 00 00 00 00       	mov    eax,0x0
    d29d:	e8 4e 3e ff ff       	call   10f0 <printf@plt>
    d2a2:	b8 00 00 00 00       	mov    eax,0x0
    d2a7:	e8 c4 3f ff ff       	call   1270 <get_input>
    d2ac:	89 45 fc             	mov    DWORD PTR [rbp-0x4],eax
    d2af:	81 7d fc dd 00 00 00 	cmp    DWORD PTR [rbp-0x4],0xdd
    d2b6:	75 05                	jne    d2bd <main+0xbfa6>
    d2b8:	e9 68 8d ff ff       	jmp    6025 <main+0x4d0e>
    d2bd:	81 7d fc 3c 01 00 00 	cmp    DWORD PTR [rbp-0x4],0x13c
    d2c4:	75 05                	jne    d2cb <main+0xbfb4>
    d2c6:	e9 72 ae ff ff       	jmp    813d <main+0x6e26>
    d2cb:	48 8d 05 56 1d 00 00 	lea    rax,[rip+0x1d56]        # f028 <_IO_stdin_used+0x28>
    d2d2:	48 89 c7             	mov    rdi,rax
    d2d5:	e8 e6 3d ff ff       	call   10c0 <puts@plt>
    d2da:	bf 01 00 00 00       	mov    edi,0x1
    d2df:	e8 4c 3e ff ff       	call   1130 <exit@plt>
    d2e4:	be 26 02 00 00       	mov    esi,0x226
    d2e9:	48 8d 05 29 1d 00 00 	lea    rax,[rip+0x1d29]        # f019 <_IO_stdin_used+0x19>
    d2f0:	48 89 c7             	mov    rdi,rax
    d2f3:	b8 00 00 00 00       	mov    eax,0x0
    d2f8:	e8 f3 3d ff ff       	call   10f0 <printf@plt>
    d2fd:	b8 00 00 00 00       	mov    eax,0x0
    d302:	e8 69 3f ff ff       	call   1270 <get_input>
    d307:	89 45 fc             	mov    DWORD PTR [rbp-0x4],eax
    d30a:	81 7d fc cc 00 00 00 	cmp    DWORD PTR [rbp-0x4],0xcc
    d311:	75 05                	jne    d318 <main+0xc001>
    d313:	e9 29 87 ff ff       	jmp    5a41 <main+0x472a>
    d318:	83 7d fc 05          	cmp    DWORD PTR [rbp-0x4],0x5
    d31c:	0f 84 a8 41 ff ff    	je     14ca <main+0x1b3>
    d322:	48 8d 05 ff 1c 00 00 	lea    rax,[rip+0x1cff]        # f028 <_IO_stdin_used+0x28>
    d329:	48 89 c7             	mov    rdi,rax
    d32c:	e8 8f 3d ff ff       	call   10c0 <puts@plt>
    d331:	bf 01 00 00 00       	mov    edi,0x1
    d336:	e8 f5 3d ff ff       	call   1130 <exit@plt>
    d33b:	90                   	nop
    d33c:	be 27 02 00 00       	mov    esi,0x227
    d341:	48 8d 05 d1 1c 00 00 	lea    rax,[rip+0x1cd1]        # f019 <_IO_stdin_used+0x19>
    d348:	48 89 c7             	mov    rdi,rax
    d34b:	b8 00 00 00 00       	mov    eax,0x0
    d350:	e8 9b 3d ff ff       	call   10f0 <printf@plt>
    d355:	b8 00 00 00 00       	mov    eax,0x0
    d35a:	e8 11 3f ff ff       	call   1270 <get_input>
    d35f:	89 45 fc             	mov    DWORD PTR [rbp-0x4],eax
    d362:	81 7d fc 1c 01 00 00 	cmp    DWORD PTR [rbp-0x4],0x11c
    d369:	75 05                	jne    d370 <main+0xc059>
    d36b:	e9 9c a2 ff ff       	jmp    760c <main+0x62f5>
    d370:	48 8d 05 b1 1c 00 00 	lea    rax,[rip+0x1cb1]        # f028 <_IO_stdin_used+0x28>
    d377:	48 89 c7             	mov    rdi,rax
    d37a:	e8 41 3d ff ff       	call   10c0 <puts@plt>
    d37f:	bf 01 00 00 00       	mov    edi,0x1
    d384:	e8 a7 3d ff ff       	call   1130 <exit@plt>
    d389:	90                   	nop
    d38a:	be 28 02 00 00       	mov    esi,0x228
    d38f:	48 8d 05 83 1c 00 00 	lea    rax,[rip+0x1c83]        # f019 <_IO_stdin_used+0x19>
    d396:	48 89 c7             	mov    rdi,rax
    d399:	b8 00 00 00 00       	mov    eax,0x0
    d39e:	e8 4d 3d ff ff       	call   10f0 <printf@plt>
    d3a3:	b8 00 00 00 00       	mov    eax,0x0
    d3a8:	e8 c3 3e ff ff       	call   1270 <get_input>
    d3ad:	89 45 fc             	mov    DWORD PTR [rbp-0x4],eax
    d3b0:	81 7d fc f9 00 00 00 	cmp    DWORD PTR [rbp-0x4],0xf9
    d3b7:	75 05                	jne    d3be <main+0xc0a7>
    d3b9:	e9 17 96 ff ff       	jmp    69d5 <main+0x56be>
    d3be:	48 8d 05 63 1c 00 00 	lea    rax,[rip+0x1c63]        # f028 <_IO_stdin_used+0x28>
    d3c5:	48 89 c7             	mov    rdi,rax
    d3c8:	e8 f3 3c ff ff       	call   10c0 <puts@plt>
    d3cd:	bf 01 00 00 00       	mov    edi,0x1
    d3d2:	e8 59 3d ff ff       	call   1130 <exit@plt>
    d3d7:	be 29 02 00 00       	mov    esi,0x229
    d3dc:	48 8d 05 36 1c 00 00 	lea    rax,[rip+0x1c36]        # f019 <_IO_stdin_used+0x19>
    d3e3:	48 89 c7             	mov    rdi,rax
    d3e6:	b8 00 00 00 00       	mov    eax,0x0
    d3eb:	e8 00 3d ff ff       	call   10f0 <printf@plt>
    d3f0:	b8 00 00 00 00       	mov    eax,0x0
    d3f5:	e8 76 3e ff ff       	call   1270 <get_input>
    d3fa:	89 45 fc             	mov    DWORD PTR [rbp-0x4],eax
    d3fd:	81 7d fc ce 01 00 00 	cmp    DWORD PTR [rbp-0x4],0x1ce
    d404:	75 05                	jne    d40b <main+0xc0f4>
    d406:	e9 83 e0 ff ff       	jmp    b48e <main+0xa177>
    d40b:	81 7d fc 19 02 00 00 	cmp    DWORD PTR [rbp-0x4],0x219
    d412:	75 05                	jne    d419 <main+0xc102>
    d414:	e9 40 fa ff ff       	jmp    ce59 <main+0xbb42>
    d419:	48 8d 05 08 1c 00 00 	lea    rax,[rip+0x1c08]        # f028 <_IO_stdin_used+0x28>
    d420:	48 89 c7             	mov    rdi,rax
    d423:	e8 98 3c ff ff       	call   10c0 <puts@plt>
    d428:	bf 01 00 00 00       	mov    edi,0x1
    d42d:	e8 fe 3c ff ff       	call   1130 <exit@plt>
    d432:	be 2a 02 00 00       	mov    esi,0x22a
    d437:	48 8d 05 db 1b 00 00 	lea    rax,[rip+0x1bdb]        # f019 <_IO_stdin_used+0x19>
    d43e:	48 89 c7             	mov    rdi,rax
    d441:	b8 00 00 00 00       	mov    eax,0x0
    d446:	e8 a5 3c ff ff       	call   10f0 <printf@plt>
    d44b:	b8 00 00 00 00       	mov    eax,0x0
    d450:	e8 1b 3e ff ff       	call   1270 <get_input>
    d455:	89 45 fc             	mov    DWORD PTR [rbp-0x4],eax
    d458:	81 7d fc 37 01 00 00 	cmp    DWORD PTR [rbp-0x4],0x137
    d45f:	75 05                	jne    d466 <main+0xc14f>
    d461:	e9 07 ab ff ff       	jmp    7f6d <main+0x6c56>
    d466:	81 7d fc 07 01 00 00 	cmp    DWORD PTR [rbp-0x4],0x107
    d46d:	75 05                	jne    d474 <main+0xc15d>
    d46f:	e9 3d 9a ff ff       	jmp    6eb1 <main+0x5b9a>
    d474:	81 7d fc 91 01 00 00 	cmp    DWORD PTR [rbp-0x4],0x191
    d47b:	75 05                	jne    d482 <main+0xc16b>
    d47d:	e9 ad ca ff ff       	jmp    9f2f <main+0x8c18>
    d482:	83 7d fc 23          	cmp    DWORD PTR [rbp-0x4],0x23
    d486:	0f 84 c8 4a ff ff    	je     1f54 <main+0xc3d>
    d48c:	48 8d 05 95 1b 00 00 	lea    rax,[rip+0x1b95]        # f028 <_IO_stdin_used+0x28>
    d493:	48 89 c7             	mov    rdi,rax
    d496:	e8 25 3c ff ff       	call   10c0 <puts@plt>
    d49b:	bf 01 00 00 00       	mov    edi,0x1
    d4a0:	e8 8b 3c ff ff       	call   1130 <exit@plt>
    d4a5:	be 2b 02 00 00       	mov    esi,0x22b
    d4aa:	48 8d 05 68 1b 00 00 	lea    rax,[rip+0x1b68]        # f019 <_IO_stdin_used+0x19>
    d4b1:	48 89 c7             	mov    rdi,rax
    d4b4:	b8 00 00 00 00       	mov    eax,0x0
    d4b9:	e8 32 3c ff ff       	call   10f0 <printf@plt>
    d4be:	b8 00 00 00 00       	mov    eax,0x0
    d4c3:	e8 a8 3d ff ff       	call   1270 <get_input>
    d4c8:	89 45 fc             	mov    DWORD PTR [rbp-0x4],eax
    d4cb:	81 7d fc 8e 00 00 00 	cmp    DWORD PTR [rbp-0x4],0x8e
    d4d2:	75 05                	jne    d4d9 <main+0xc1c2>
    d4d4:	e9 b1 6f ff ff       	jmp    448a <main+0x3173>
    d4d9:	81 7d fc 44 01 00 00 	cmp    DWORD PTR [rbp-0x4],0x144
    d4e0:	75 05                	jne    d4e7 <main+0xc1d0>
    d4e2:	e9 2b af ff ff       	jmp    8412 <main+0x70fb>
    d4e7:	81 7d fc a9 00 00 00 	cmp    DWORD PTR [rbp-0x4],0xa9
    d4ee:	75 05                	jne    d4f5 <main+0xc1de>
    d4f0:	e9 0b 79 ff ff       	jmp    4e00 <main+0x3ae9>
    d4f5:	83 7d fc 33          	cmp    DWORD PTR [rbp-0x4],0x33
    d4f9:	0f 84 7f 4f ff ff    	je     247e <main+0x1167>
    d4ff:	48 8d 05 22 1b 00 00 	lea    rax,[rip+0x1b22]        # f028 <_IO_stdin_used+0x28>
    d506:	48 89 c7             	mov    rdi,rax
    d509:	e8 b2 3b ff ff       	call   10c0 <puts@plt>
    d50e:	bf 01 00 00 00       	mov    edi,0x1
    d513:	e8 18 3c ff ff       	call   1130 <exit@plt>
    d518:	be 2c 02 00 00       	mov    esi,0x22c
    d51d:	48 8d 05 f5 1a 00 00 	lea    rax,[rip+0x1af5]        # f019 <_IO_stdin_used+0x19>
    d524:	48 89 c7             	mov    rdi,rax
    d527:	b8 00 00 00 00       	mov    eax,0x0
    d52c:	e8 bf 3b ff ff       	call   10f0 <printf@plt>
    d531:	b8 00 00 00 00       	mov    eax,0x0
    d536:	e8 35 3d ff ff       	call   1270 <get_input>
    d53b:	89 45 fc             	mov    DWORD PTR [rbp-0x4],eax
    d53e:	83 7d fc 11          	cmp    DWORD PTR [rbp-0x4],0x11
    d542:	75 05                	jne    d549 <main+0xc232>
    d544:	e9 99 43 ff ff       	jmp    18e2 <main+0x5cb>
    d549:	83 7d fc 5d          	cmp    DWORD PTR [rbp-0x4],0x5d
    d54d:	75 05                	jne    d554 <main+0xc23d>
    d54f:	e9 e7 5d ff ff       	jmp    333b <main+0x2024>
    d554:	81 7d fc 1b 02 00 00 	cmp    DWORD PTR [rbp-0x4],0x21b
    d55b:	0f 84 a1 f9 ff ff    	je     cf02 <main+0xbbeb>
    d561:	48 8d 05 c0 1a 00 00 	lea    rax,[rip+0x1ac0]        # f028 <_IO_stdin_used+0x28>
    d568:	48 89 c7             	mov    rdi,rax
    d56b:	e8 50 3b ff ff       	call   10c0 <puts@plt>
    d570:	bf 01 00 00 00       	mov    edi,0x1
    d575:	e8 b6 3b ff ff       	call   1130 <exit@plt>
    d57a:	90                   	nop
    d57b:	be 2d 02 00 00       	mov    esi,0x22d
    d580:	48 8d 05 92 1a 00 00 	lea    rax,[rip+0x1a92]        # f019 <_IO_stdin_used+0x19>
    d587:	48 89 c7             	mov    rdi,rax
    d58a:	b8 00 00 00 00       	mov    eax,0x0
    d58f:	e8 5c 3b ff ff       	call   10f0 <printf@plt>
    d594:	b8 00 00 00 00       	mov    eax,0x0
    d599:	e8 d2 3c ff ff       	call   1270 <get_input>
    d59e:	89 45 fc             	mov    DWORD PTR [rbp-0x4],eax
    d5a1:	81 7d fc 89 00 00 00 	cmp    DWORD PTR [rbp-0x4],0x89
    d5a8:	75 05                	jne    d5af <main+0xc298>
    d5aa:	e9 20 6d ff ff       	jmp    42cf <main+0x2fb8>
    d5af:	48 8d 05 72 1a 00 00 	lea    rax,[rip+0x1a72]        # f028 <_IO_stdin_used+0x28>
    d5b6:	48 89 c7             	mov    rdi,rax
    d5b9:	e8 02 3b ff ff       	call   10c0 <puts@plt>
    d5be:	bf 01 00 00 00       	mov    edi,0x1
    d5c3:	e8 68 3b ff ff       	call   1130 <exit@plt>
    d5c8:	be 2e 02 00 00       	mov    esi,0x22e
    d5cd:	48 8d 05 45 1a 00 00 	lea    rax,[rip+0x1a45]        # f019 <_IO_stdin_used+0x19>
    d5d4:	48 89 c7             	mov    rdi,rax
    d5d7:	b8 00 00 00 00       	mov    eax,0x0
    d5dc:	e8 0f 3b ff ff       	call   10f0 <printf@plt>
    d5e1:	b8 00 00 00 00       	mov    eax,0x0
    d5e6:	e8 85 3c ff ff       	call   1270 <get_input>
    d5eb:	89 45 fc             	mov    DWORD PTR [rbp-0x4],eax
    d5ee:	81 7d fc db 00 00 00 	cmp    DWORD PTR [rbp-0x4],0xdb
    d5f5:	75 05                	jne    d5fc <main+0xc2e5>
    d5f7:	e9 6b 89 ff ff       	jmp    5f67 <main+0x4c50>
    d5fc:	81 7d fc 50 02 00 00 	cmp    DWORD PTR [rbp-0x4],0x250
    d603:	75 05                	jne    d60a <main+0xc2f3>
    d605:	e9 47 0c 00 00       	jmp    e251 <main+0xcf3a>
    d60a:	83 7d fc 1d          	cmp    DWORD PTR [rbp-0x4],0x1d
    d60e:	75 05                	jne    d615 <main+0xc2fe>
    d610:	e9 16 47 ff ff       	jmp    1d2b <main+0xa14>
    d615:	48 8d 05 0c 1a 00 00 	lea    rax,[rip+0x1a0c]        # f028 <_IO_stdin_used+0x28>
    d61c:	48 89 c7             	mov    rdi,rax
    d61f:	e8 9c 3a ff ff       	call   10c0 <puts@plt>
    d624:	bf 01 00 00 00       	mov    edi,0x1
    d629:	e8 02 3b ff ff       	call   1130 <exit@plt>
    d62e:	be 2f 02 00 00       	mov    esi,0x22f
    d633:	48 8d 05 df 19 00 00 	lea    rax,[rip+0x19df]        # f019 <_IO_stdin_used+0x19>
    d63a:	48 89 c7             	mov    rdi,rax
    d63d:	b8 00 00 00 00       	mov    eax,0x0
    d642:	e8 a9 3a ff ff       	call   10f0 <printf@plt>
    d647:	b8 00 00 00 00       	mov    eax,0x0
    d64c:	e8 1f 3c ff ff       	call   1270 <get_input>
    d651:	89 45 fc             	mov    DWORD PTR [rbp-0x4],eax
    d654:	81 7d fc a5 01 00 00 	cmp    DWORD PTR [rbp-0x4],0x1a5
    d65b:	75 05                	jne    d662 <main+0xc34b>
    d65d:	e9 02 d0 ff ff       	jmp    a664 <main+0x934d>
    d662:	83 7d fc 48          	cmp    DWORD PTR [rbp-0x4],0x48
    d666:	75 05                	jne    d66d <main+0xc356>
    d668:	e9 38 55 ff ff       	jmp    2ba5 <main+0x188e>
    d66d:	48 8d 05 b4 19 00 00 	lea    rax,[rip+0x19b4]        # f028 <_IO_stdin_used+0x28>
    d674:	48 89 c7             	mov    rdi,rax
    d677:	e8 44 3a ff ff       	call   10c0 <puts@plt>
    d67c:	bf 01 00 00 00       	mov    edi,0x1
    d681:	e8 aa 3a ff ff       	call   1130 <exit@plt>
    d686:	be 30 02 00 00       	mov    esi,0x230
    d68b:	48 8d 05 87 19 00 00 	lea    rax,[rip+0x1987]        # f019 <_IO_stdin_used+0x19>
    d692:	48 89 c7             	mov    rdi,rax
    d695:	b8 00 00 00 00       	mov    eax,0x0
    d69a:	e8 51 3a ff ff       	call   10f0 <printf@plt>
    d69f:	b8 00 00 00 00       	mov    eax,0x0
    d6a4:	e8 c7 3b ff ff       	call   1270 <get_input>
    d6a9:	89 45 fc             	mov    DWORD PTR [rbp-0x4],eax
    d6ac:	81 7d fc 1b 01 00 00 	cmp    DWORD PTR [rbp-0x4],0x11b
    d6b3:	0f 84 05 9f ff ff    	je     75be <main+0x62a7>
    d6b9:	81 7d fc 63 01 00 00 	cmp    DWORD PTR [rbp-0x4],0x163
    d6c0:	0f 84 29 b8 ff ff    	je     8eef <main+0x7bd8>
    d6c6:	81 7d fc 54 02 00 00 	cmp    DWORD PTR [rbp-0x4],0x254
    d6cd:	75 05                	jne    d6d4 <main+0xc3bd>
    d6cf:	e9 1c 0d 00 00       	jmp    e3f0 <main+0xd0d9>
    d6d4:	48 8d 05 4d 19 00 00 	lea    rax,[rip+0x194d]        # f028 <_IO_stdin_used+0x28>
    d6db:	48 89 c7             	mov    rdi,rax
    d6de:	e8 dd 39 ff ff       	call   10c0 <puts@plt>
    d6e3:	bf 01 00 00 00       	mov    edi,0x1
    d6e8:	e8 43 3a ff ff       	call   1130 <exit@plt>
    d6ed:	be 31 02 00 00       	mov    esi,0x231
    d6f2:	48 8d 05 20 19 00 00 	lea    rax,[rip+0x1920]        # f019 <_IO_stdin_used+0x19>
    d6f9:	48 89 c7             	mov    rdi,rax
    d6fc:	b8 00 00 00 00       	mov    eax,0x0
    d701:	e8 ea 39 ff ff       	call   10f0 <printf@plt>
    d706:	b8 00 00 00 00       	mov    eax,0x0
    d70b:	e8 60 3b ff ff       	call   1270 <get_input>
    d710:	89 45 fc             	mov    DWORD PTR [rbp-0x4],eax
    d713:	81 7d fc 51 02 00 00 	cmp    DWORD PTR [rbp-0x4],0x251
    d71a:	75 05                	jne    d721 <main+0xc40a>
    d71c:	e9 8a 0b 00 00       	jmp    e2ab <main+0xcf94>
    d721:	81 7d fc aa 00 00 00 	cmp    DWORD PTR [rbp-0x4],0xaa
    d728:	75 05                	jne    d72f <main+0xc418>
    d72a:	e9 2c 77 ff ff       	jmp    4e5b <main+0x3b44>
    d72f:	48 8d 05 f2 18 00 00 	lea    rax,[rip+0x18f2]        # f028 <_IO_stdin_used+0x28>
    d736:	48 89 c7             	mov    rdi,rax
    d739:	e8 82 39 ff ff       	call   10c0 <puts@plt>
    d73e:	bf 01 00 00 00       	mov    edi,0x1
    d743:	e8 e8 39 ff ff       	call   1130 <exit@plt>
    d748:	be 32 02 00 00       	mov    esi,0x232
    d74d:	48 8d 05 c5 18 00 00 	lea    rax,[rip+0x18c5]        # f019 <_IO_stdin_used+0x19>
    d754:	48 89 c7             	mov    rdi,rax
    d757:	b8 00 00 00 00       	mov    eax,0x0
    d75c:	e8 8f 39 ff ff       	call   10f0 <printf@plt>
    d761:	b8 00 00 00 00       	mov    eax,0x0
    d766:	e8 05 3b ff ff       	call   1270 <get_input>
    d76b:	89 45 fc             	mov    DWORD PTR [rbp-0x4],eax
    d76e:	81 7d fc a3 00 00 00 	cmp    DWORD PTR [rbp-0x4],0xa3
    d775:	75 05                	jne    d77c <main+0xc465>
    d777:	e9 84 74 ff ff       	jmp    4c00 <main+0x38e9>
    d77c:	81 7d fc 4e 02 00 00 	cmp    DWORD PTR [rbp-0x4],0x24e
    d783:	75 05                	jne    d78a <main+0xc473>
    d785:	e9 04 0a 00 00       	jmp    e18e <main+0xce77>
    d78a:	81 7d fc 49 02 00 00 	cmp    DWORD PTR [rbp-0x4],0x249
    d791:	75 05                	jne    d798 <main+0xc481>
    d793:	e9 22 08 00 00       	jmp    dfba <main+0xcca3>
    d798:	48 8d 05 89 18 00 00 	lea    rax,[rip+0x1889]        # f028 <_IO_stdin_used+0x28>
    d79f:	48 89 c7             	mov    rdi,rax
    d7a2:	e8 19 39 ff ff       	call   10c0 <puts@plt>
    d7a7:	bf 01 00 00 00       	mov    edi,0x1
    d7ac:	e8 7f 39 ff ff       	call   1130 <exit@plt>
    d7b1:	be 33 02 00 00       	mov    esi,0x233
    d7b6:	48 8d 05 5c 18 00 00 	lea    rax,[rip+0x185c]        # f019 <_IO_stdin_used+0x19>
    d7bd:	48 89 c7             	mov    rdi,rax
    d7c0:	b8 00 00 00 00       	mov    eax,0x0
    d7c5:	e8 26 39 ff ff       	call   10f0 <printf@plt>
    d7ca:	b8 00 00 00 00       	mov    eax,0x0
    d7cf:	e8 9c 3a ff ff       	call   1270 <get_input>
    d7d4:	89 45 fc             	mov    DWORD PTR [rbp-0x4],eax
    d7d7:	81 7d fc d7 00 00 00 	cmp    DWORD PTR [rbp-0x4],0xd7
    d7de:	75 05                	jne    d7e5 <main+0xc4ce>
    d7e0:	e9 19 86 ff ff       	jmp    5dfe <main+0x4ae7>
    d7e5:	81 7d fc 82 00 00 00 	cmp    DWORD PTR [rbp-0x4],0x82
    d7ec:	75 05                	jne    d7f3 <main+0xc4dc>
    d7ee:	e9 86 68 ff ff       	jmp    4079 <main+0x2d62>
    d7f3:	48 8d 05 2e 18 00 00 	lea    rax,[rip+0x182e]        # f028 <_IO_stdin_used+0x28>
    d7fa:	48 89 c7             	mov    rdi,rax
    d7fd:	e8 be 38 ff ff       	call   10c0 <puts@plt>
    d802:	bf 01 00 00 00       	mov    edi,0x1
    d807:	e8 24 39 ff ff       	call   1130 <exit@plt>
    d80c:	be 34 02 00 00       	mov    esi,0x234
    d811:	48 8d 05 01 18 00 00 	lea    rax,[rip+0x1801]        # f019 <_IO_stdin_used+0x19>
    d818:	48 89 c7             	mov    rdi,rax
    d81b:	b8 00 00 00 00       	mov    eax,0x0
    d820:	e8 cb 38 ff ff       	call   10f0 <printf@plt>
    d825:	b8 00 00 00 00       	mov    eax,0x0
    d82a:	e8 41 3a ff ff       	call   1270 <get_input>
    d82f:	89 45 fc             	mov    DWORD PTR [rbp-0x4],eax
    d832:	81 7d fc ed 00 00 00 	cmp    DWORD PTR [rbp-0x4],0xed
    d839:	75 05                	jne    d840 <main+0xc529>
    d83b:	e9 6c 8d ff ff       	jmp    65ac <main+0x5295>
    d840:	81 7d fc 62 02 00 00 	cmp    DWORD PTR [rbp-0x4],0x262
    d847:	75 05                	jne    d84e <main+0xc537>
    d849:	e9 8e 10 00 00       	jmp    e8dc <main+0xd5c5>
    d84e:	81 7d fc f9 01 00 00 	cmp    DWORD PTR [rbp-0x4],0x1f9
    d855:	75 05                	jne    d85c <main+0xc545>
    d857:	e9 07 eb ff ff       	jmp    c363 <main+0xb04c>
    d85c:	48 8d 05 c5 17 00 00 	lea    rax,[rip+0x17c5]        # f028 <_IO_stdin_used+0x28>
    d863:	48 89 c7             	mov    rdi,rax
    d866:	e8 55 38 ff ff       	call   10c0 <puts@plt>
    d86b:	bf 01 00 00 00       	mov    edi,0x1
    d870:	e8 bb 38 ff ff       	call   1130 <exit@plt>
    d875:	90                   	nop
    d876:	be 35 02 00 00       	mov    esi,0x235
    d87b:	48 8d 05 97 17 00 00 	lea    rax,[rip+0x1797]        # f019 <_IO_stdin_used+0x19>
    d882:	48 89 c7             	mov    rdi,rax
    d885:	b8 00 00 00 00       	mov    eax,0x0
    d88a:	e8 61 38 ff ff       	call   10f0 <printf@plt>
    d88f:	b8 00 00 00 00       	mov    eax,0x0
    d894:	e8 d7 39 ff ff       	call   1270 <get_input>
    d899:	89 45 fc             	mov    DWORD PTR [rbp-0x4],eax
    d89c:	81 7d fc 4f 02 00 00 	cmp    DWORD PTR [rbp-0x4],0x24f
    d8a3:	75 05                	jne    d8aa <main+0xc593>
    d8a5:	e9 3f 09 00 00       	jmp    e1e9 <main+0xced2>
    d8aa:	48 8d 05 77 17 00 00 	lea    rax,[rip+0x1777]        # f028 <_IO_stdin_used+0x28>
    d8b1:	48 89 c7             	mov    rdi,rax
    d8b4:	e8 07 38 ff ff       	call   10c0 <puts@plt>
    d8b9:	bf 01 00 00 00       	mov    edi,0x1
    d8be:	e8 6d 38 ff ff       	call   1130 <exit@plt>
    d8c3:	be 36 02 00 00       	mov    esi,0x236
    d8c8:	48 8d 05 4a 17 00 00 	lea    rax,[rip+0x174a]        # f019 <_IO_stdin_used+0x19>
    d8cf:	48 89 c7             	mov    rdi,rax
    d8d2:	b8 00 00 00 00       	mov    eax,0x0
    d8d7:	e8 14 38 ff ff       	call   10f0 <printf@plt>
    d8dc:	b8 00 00 00 00       	mov    eax,0x0
    d8e1:	e8 8a 39 ff ff       	call   1270 <get_input>
    d8e6:	89 45 fc             	mov    DWORD PTR [rbp-0x4],eax
    d8e9:	81 7d fc 0d 01 00 00 	cmp    DWORD PTR [rbp-0x4],0x10d
    d8f0:	75 05                	jne    d8f7 <main+0xc5e0>
    d8f2:	e9 cf 97 ff ff       	jmp    70c6 <main+0x5daf>
    d8f7:	81 7d fc a5 01 00 00 	cmp    DWORD PTR [rbp-0x4],0x1a5
    d8fe:	75 05                	jne    d905 <main+0xc5ee>
    d900:	e9 5f cd ff ff       	jmp    a664 <main+0x934d>
    d905:	81 7d fc 4d 01 00 00 	cmp    DWORD PTR [rbp-0x4],0x14d
    d90c:	75 05                	jne    d913 <main+0xc5fc>
    d90e:	e9 42 ae ff ff       	jmp    8755 <main+0x743e>
    d913:	48 8d 05 0e 17 00 00 	lea    rax,[rip+0x170e]        # f028 <_IO_stdin_used+0x28>
    d91a:	48 89 c7             	mov    rdi,rax
    d91d:	e8 9e 37 ff ff       	call   10c0 <puts@plt>
    d922:	bf 01 00 00 00       	mov    edi,0x1
    d927:	e8 04 38 ff ff       	call   1130 <exit@plt>
    d92c:	be 37 02 00 00       	mov    esi,0x237
    d931:	48 8d 05 e1 16 00 00 	lea    rax,[rip+0x16e1]        # f019 <_IO_stdin_used+0x19>
    d938:	48 89 c7             	mov    rdi,rax
    d93b:	b8 00 00 00 00       	mov    eax,0x0
    d940:	e8 ab 37 ff ff       	call   10f0 <printf@plt>
    d945:	b8 00 00 00 00       	mov    eax,0x0
    d94a:	e8 21 39 ff ff       	call   1270 <get_input>
    d94f:	89 45 fc             	mov    DWORD PTR [rbp-0x4],eax
    d952:	83 7d fc 19          	cmp    DWORD PTR [rbp-0x4],0x19
    d956:	75 05                	jne    d95d <main+0xc646>
    d958:	e9 57 42 ff ff       	jmp    1bb4 <main+0x89d>
    d95d:	81 7d fc 4c 01 00 00 	cmp    DWORD PTR [rbp-0x4],0x14c
    d964:	75 05                	jne    d96b <main+0xc654>
    d966:	e9 8f ad ff ff       	jmp    86fa <main+0x73e3>
    d96b:	81 7d fc 9f 00 00 00 	cmp    DWORD PTR [rbp-0x4],0x9f
    d972:	75 05                	jne    d979 <main+0xc662>
    d974:	e9 2b 71 ff ff       	jmp    4aa4 <main+0x378d>
    d979:	48 8d 05 a8 16 00 00 	lea    rax,[rip+0x16a8]        # f028 <_IO_stdin_used+0x28>
    d980:	48 89 c7             	mov    rdi,rax
    d983:	e8 38 37 ff ff       	call   10c0 <puts@plt>
    d988:	bf 01 00 00 00       	mov    edi,0x1
    d98d:	e8 9e 37 ff ff       	call   1130 <exit@plt>
    d992:	be 38 02 00 00       	mov    esi,0x238
    d997:	48 8d 05 7b 16 00 00 	lea    rax,[rip+0x167b]        # f019 <_IO_stdin_used+0x19>
    d99e:	48 89 c7             	mov    rdi,rax
    d9a1:	b8 00 00 00 00       	mov    eax,0x0
    d9a6:	e8 45 37 ff ff       	call   10f0 <printf@plt>
    d9ab:	b8 00 00 00 00       	mov    eax,0x0
    d9b0:	e8 bb 38 ff ff       	call   1270 <get_input>
    d9b5:	89 45 fc             	mov    DWORD PTR [rbp-0x4],eax
    d9b8:	81 7d fc e1 00 00 00 	cmp    DWORD PTR [rbp-0x4],0xe1
    d9bf:	75 05                	jne    d9c6 <main+0xc6af>
    d9c1:	e9 d6 87 ff ff       	jmp    619c <main+0x4e85>
    d9c6:	83 7d fc 5e          	cmp    DWORD PTR [rbp-0x4],0x5e
    d9ca:	75 05                	jne    d9d1 <main+0xc6ba>
    d9cc:	e9 d2 59 ff ff       	jmp    33a3 <main+0x208c>
    d9d1:	48 8d 05 50 16 00 00 	lea    rax,[rip+0x1650]        # f028 <_IO_stdin_used+0x28>
    d9d8:	48 89 c7             	mov    rdi,rax
    d9db:	e8 e0 36 ff ff       	call   10c0 <puts@plt>
    d9e0:	bf 01 00 00 00       	mov    edi,0x1
    d9e5:	e8 46 37 ff ff       	call   1130 <exit@plt>
    d9ea:	be 39 02 00 00       	mov    esi,0x239
    d9ef:	48 8d 05 23 16 00 00 	lea    rax,[rip+0x1623]        # f019 <_IO_stdin_used+0x19>
    d9f6:	48 89 c7             	mov    rdi,rax
    d9f9:	b8 00 00 00 00       	mov    eax,0x0
    d9fe:	e8 ed 36 ff ff       	call   10f0 <printf@plt>
    da03:	b8 00 00 00 00       	mov    eax,0x0
    da08:	e8 63 38 ff ff       	call   1270 <get_input>
    da0d:	89 45 fc             	mov    DWORD PTR [rbp-0x4],eax
    da10:	81 7d fc 87 01 00 00 	cmp    DWORD PTR [rbp-0x4],0x187
    da17:	75 05                	jne    da1e <main+0xc707>
    da19:	e9 6b c1 ff ff       	jmp    9b89 <main+0x8872>
    da1e:	81 7d fc 65 02 00 00 	cmp    DWORD PTR [rbp-0x4],0x265
    da25:	75 05                	jne    da2c <main+0xc715>
    da27:	e9 c1 0f 00 00       	jmp    e9ed <main+0xd6d6>
    da2c:	48 8d 05 f5 15 00 00 	lea    rax,[rip+0x15f5]        # f028 <_IO_stdin_used+0x28>
    da33:	48 89 c7             	mov    rdi,rax
    da36:	e8 85 36 ff ff       	call   10c0 <puts@plt>
    da3b:	bf 01 00 00 00       	mov    edi,0x1
    da40:	e8 eb 36 ff ff       	call   1130 <exit@plt>
    da45:	be 3a 02 00 00       	mov    esi,0x23a
    da4a:	48 8d 05 c8 15 00 00 	lea    rax,[rip+0x15c8]        # f019 <_IO_stdin_used+0x19>
    da51:	48 89 c7             	mov    rdi,rax
    da54:	b8 00 00 00 00       	mov    eax,0x0
    da59:	e8 92 36 ff ff       	call   10f0 <printf@plt>
    da5e:	b8 00 00 00 00       	mov    eax,0x0
    da63:	e8 08 38 ff ff       	call   1270 <get_input>
    da68:	89 45 fc             	mov    DWORD PTR [rbp-0x4],eax
    da6b:	81 7d fc bd 00 00 00 	cmp    DWORD PTR [rbp-0x4],0xbd
    da72:	75 05                	jne    da79 <main+0xc762>
    da74:	e9 8b 7a ff ff       	jmp    5504 <main+0x41ed>
    da79:	83 7d fc 72          	cmp    DWORD PTR [rbp-0x4],0x72
    da7d:	75 05                	jne    da84 <main+0xc76d>
    da7f:	e9 28 60 ff ff       	jmp    3aac <main+0x2795>
    da84:	48 8d 05 9d 15 00 00 	lea    rax,[rip+0x159d]        # f028 <_IO_stdin_used+0x28>
    da8b:	48 89 c7             	mov    rdi,rax
    da8e:	e8 2d 36 ff ff       	call   10c0 <puts@plt>
    da93:	bf 01 00 00 00       	mov    edi,0x1
    da98:	e8 93 36 ff ff       	call   1130 <exit@plt>
    da9d:	be 3b 02 00 00       	mov    esi,0x23b
    daa2:	48 8d 05 70 15 00 00 	lea    rax,[rip+0x1570]        # f019 <_IO_stdin_used+0x19>
    daa9:	48 89 c7             	mov    rdi,rax
    daac:	b8 00 00 00 00       	mov    eax,0x0
    dab1:	e8 3a 36 ff ff       	call   10f0 <printf@plt>
    dab6:	b8 00 00 00 00       	mov    eax,0x0
    dabb:	e8 b0 37 ff ff       	call   1270 <get_input>
    dac0:	89 45 fc             	mov    DWORD PTR [rbp-0x4],eax
    dac3:	81 7d fc fa 01 00 00 	cmp    DWORD PTR [rbp-0x4],0x1fa
    daca:	75 05                	jne    dad1 <main+0xc7ba>
    dacc:	e9 ea e8 ff ff       	jmp    c3bb <main+0xb0a4>
    dad1:	81 7d fc 2c 01 00 00 	cmp    DWORD PTR [rbp-0x4],0x12c
    dad8:	75 05                	jne    dadf <main+0xc7c8>
    dada:	e9 9b a0 ff ff       	jmp    7b7a <main+0x6863>
    dadf:	81 7d fc ed 01 00 00 	cmp    DWORD PTR [rbp-0x4],0x1ed
    dae6:	0f 84 6c e4 ff ff    	je     bf58 <main+0xac41>
    daec:	48 8d 05 35 15 00 00 	lea    rax,[rip+0x1535]        # f028 <_IO_stdin_used+0x28>
    daf3:	48 89 c7             	mov    rdi,rax
    daf6:	e8 c5 35 ff ff       	call   10c0 <puts@plt>
    dafb:	bf 01 00 00 00       	mov    edi,0x1
    db00:	e8 2b 36 ff ff       	call   1130 <exit@plt>
    db05:	90                   	nop
    db06:	be 3c 02 00 00       	mov    esi,0x23c
    db0b:	48 8d 05 07 15 00 00 	lea    rax,[rip+0x1507]        # f019 <_IO_stdin_used+0x19>
    db12:	48 89 c7             	mov    rdi,rax
    db15:	b8 00 00 00 00       	mov    eax,0x0
    db1a:	e8 d1 35 ff ff       	call   10f0 <printf@plt>
    db1f:	b8 00 00 00 00       	mov    eax,0x0
    db24:	e8 47 37 ff ff       	call   1270 <get_input>
    db29:	89 45 fc             	mov    DWORD PTR [rbp-0x4],eax
    db2c:	81 7d fc d1 00 00 00 	cmp    DWORD PTR [rbp-0x4],0xd1
    db33:	75 05                	jne    db3a <main+0xc823>
    db35:	e9 be 80 ff ff       	jmp    5bf8 <main+0x48e1>
    db3a:	48 8d 05 e7 14 00 00 	lea    rax,[rip+0x14e7]        # f028 <_IO_stdin_used+0x28>
    db41:	48 89 c7             	mov    rdi,rax
    db44:	e8 77 35 ff ff       	call   10c0 <puts@plt>
    db49:	bf 01 00 00 00       	mov    edi,0x1
    db4e:	e8 dd 35 ff ff       	call   1130 <exit@plt>
    db53:	be 3d 02 00 00       	mov    esi,0x23d
    db58:	48 8d 05 ba 14 00 00 	lea    rax,[rip+0x14ba]        # f019 <_IO_stdin_used+0x19>
    db5f:	48 89 c7             	mov    rdi,rax
    db62:	b8 00 00 00 00       	mov    eax,0x0
    db67:	e8 84 35 ff ff       	call   10f0 <printf@plt>
    db6c:	b8 00 00 00 00       	mov    eax,0x0
    db71:	e8 fa 36 ff ff       	call   1270 <get_input>
    db76:	89 45 fc             	mov    DWORD PTR [rbp-0x4],eax
    db79:	81 7d fc 66 02 00 00 	cmp    DWORD PTR [rbp-0x4],0x266
    db80:	75 05                	jne    db87 <main+0xc870>
    db82:	e9 cb 0e 00 00       	jmp    ea52 <main+0xd73b>
    db87:	81 7d fc ec 00 00 00 	cmp    DWORD PTR [rbp-0x4],0xec
    db8e:	75 05                	jne    db95 <main+0xc87e>
    db90:	e9 bc 89 ff ff       	jmp    6551 <main+0x523a>
    db95:	81 7d fc 69 01 00 00 	cmp    DWORD PTR [rbp-0x4],0x169
    db9c:	0f 84 5f b5 ff ff    	je     9101 <main+0x7dea>
    dba2:	81 7d fc fb 01 00 00 	cmp    DWORD PTR [rbp-0x4],0x1fb
    dba9:	75 05                	jne    dbb0 <main+0xc899>
    dbab:	e9 73 e8 ff ff       	jmp    c423 <main+0xb10c>
    dbb0:	48 8d 05 71 14 00 00 	lea    rax,[rip+0x1471]        # f028 <_IO_stdin_used+0x28>
    dbb7:	48 89 c7             	mov    rdi,rax
    dbba:	e8 01 35 ff ff       	call   10c0 <puts@plt>
    dbbf:	bf 01 00 00 00       	mov    edi,0x1
    dbc4:	e8 67 35 ff ff       	call   1130 <exit@plt>
    dbc9:	be 3e 02 00 00       	mov    esi,0x23e
    dbce:	48 8d 05 44 14 00 00 	lea    rax,[rip+0x1444]        # f019 <_IO_stdin_used+0x19>
    dbd5:	48 89 c7             	mov    rdi,rax
    dbd8:	b8 00 00 00 00       	mov    eax,0x0
    dbdd:	e8 0e 35 ff ff       	call   10f0 <printf@plt>
    dbe2:	b8 00 00 00 00       	mov    eax,0x0
    dbe7:	e8 84 36 ff ff       	call   1270 <get_input>
    dbec:	89 45 fc             	mov    DWORD PTR [rbp-0x4],eax
    dbef:	81 7d fc 0f 02 00 00 	cmp    DWORD PTR [rbp-0x4],0x20f
    dbf6:	75 05                	jne    dbfd <main+0xc8e6>
    dbf8:	e9 b5 ee ff ff       	jmp    cab2 <main+0xb79b>
    dbfd:	81 7d fc b2 00 00 00 	cmp    DWORD PTR [rbp-0x4],0xb2
    dc04:	0f 84 2e 75 ff ff    	je     5138 <main+0x3e21>
    dc0a:	81 7d fc 85 01 00 00 	cmp    DWORD PTR [rbp-0x4],0x185
    dc11:	75 05                	jne    dc18 <main+0xc901>
    dc13:	e9 be be ff ff       	jmp    9ad6 <main+0x87bf>
    dc18:	48 8d 05 09 14 00 00 	lea    rax,[rip+0x1409]        # f028 <_IO_stdin_used+0x28>
    dc1f:	48 89 c7             	mov    rdi,rax
    dc22:	e8 99 34 ff ff       	call   10c0 <puts@plt>
    dc27:	bf 01 00 00 00       	mov    edi,0x1
    dc2c:	e8 ff 34 ff ff       	call   1130 <exit@plt>
    dc31:	90                   	nop
    dc32:	be 3f 02 00 00       	mov    esi,0x23f
    dc37:	48 8d 05 db 13 00 00 	lea    rax,[rip+0x13db]        # f019 <_IO_stdin_used+0x19>
    dc3e:	48 89 c7             	mov    rdi,rax
    dc41:	b8 00 00 00 00       	mov    eax,0x0
    dc46:	e8 a5 34 ff ff       	call   10f0 <printf@plt>
    dc4b:	b8 00 00 00 00       	mov    eax,0x0
    dc50:	e8 1b 36 ff ff       	call   1270 <get_input>
    dc55:	89 45 fc             	mov    DWORD PTR [rbp-0x4],eax
    dc58:	81 7d fc 5c 02 00 00 	cmp    DWORD PTR [rbp-0x4],0x25c
    dc5f:	75 05                	jne    dc66 <main+0xc94f>
    dc61:	e9 42 0a 00 00       	jmp    e6a8 <main+0xd391>
    dc66:	48 8d 05 bb 13 00 00 	lea    rax,[rip+0x13bb]        # f028 <_IO_stdin_used+0x28>
    dc6d:	48 89 c7             	mov    rdi,rax
    dc70:	e8 4b 34 ff ff       	call   10c0 <puts@plt>
    dc75:	bf 01 00 00 00       	mov    edi,0x1
    dc7a:	e8 b1 34 ff ff       	call   1130 <exit@plt>
    dc7f:	90                   	nop
    dc80:	be 40 02 00 00       	mov    esi,0x240
    dc85:	48 8d 05 8d 13 00 00 	lea    rax,[rip+0x138d]        # f019 <_IO_stdin_used+0x19>
    dc8c:	48 89 c7             	mov    rdi,rax
    dc8f:	b8 00 00 00 00       	mov    eax,0x0
    dc94:	e8 57 34 ff ff       	call   10f0 <printf@plt>
    dc99:	b8 00 00 00 00       	mov    eax,0x0
    dc9e:	e8 cd 35 ff ff       	call   1270 <get_input>
    dca3:	89 45 fc             	mov    DWORD PTR [rbp-0x4],eax
    dca6:	81 7d fc 68 02 00 00 	cmp    DWORD PTR [rbp-0x4],0x268
    dcad:	75 05                	jne    dcb4 <main+0xc99d>
    dcaf:	e9 68 0e 00 00       	jmp    eb1c <main+0xd805>
    dcb4:	48 8d 05 6d 13 00 00 	lea    rax,[rip+0x136d]        # f028 <_IO_stdin_used+0x28>
    dcbb:	48 89 c7             	mov    rdi,rax
    dcbe:	e8 fd 33 ff ff       	call   10c0 <puts@plt>
    dcc3:	bf 01 00 00 00       	mov    edi,0x1
    dcc8:	e8 63 34 ff ff       	call   1130 <exit@plt>
    dccd:	90                   	nop
    dcce:	be 41 02 00 00       	mov    esi,0x241
    dcd3:	48 8d 05 3f 13 00 00 	lea    rax,[rip+0x133f]        # f019 <_IO_stdin_used+0x19>
    dcda:	48 89 c7             	mov    rdi,rax
    dcdd:	b8 00 00 00 00       	mov    eax,0x0
    dce2:	e8 09 34 ff ff       	call   10f0 <printf@plt>
    dce7:	b8 00 00 00 00       	mov    eax,0x0
    dcec:	e8 7f 35 ff ff       	call   1270 <get_input>
    dcf1:	89 45 fc             	mov    DWORD PTR [rbp-0x4],eax
    dcf4:	81 7d fc f8 00 00 00 	cmp    DWORD PTR [rbp-0x4],0xf8
    dcfb:	75 05                	jne    dd02 <main+0xc9eb>
    dcfd:	e9 79 8c ff ff       	jmp    697b <main+0x5664>
    dd02:	48 8d 05 1f 13 00 00 	lea    rax,[rip+0x131f]        # f028 <_IO_stdin_used+0x28>
    dd09:	48 89 c7             	mov    rdi,rax
    dd0c:	e8 af 33 ff ff       	call   10c0 <puts@plt>
    dd11:	bf 01 00 00 00       	mov    edi,0x1
    dd16:	e8 15 34 ff ff       	call   1130 <exit@plt>
    dd1b:	90                   	nop
    dd1c:	be 42 02 00 00       	mov    esi,0x242
    dd21:	48 8d 05 f1 12 00 00 	lea    rax,[rip+0x12f1]        # f019 <_IO_stdin_used+0x19>
    dd28:	48 89 c7             	mov    rdi,rax
    dd2b:	b8 00 00 00 00       	mov    eax,0x0
    dd30:	e8 bb 33 ff ff       	call   10f0 <printf@plt>
    dd35:	b8 00 00 00 00       	mov    eax,0x0
    dd3a:	e8 31 35 ff ff       	call   1270 <get_input>
    dd3f:	89 45 fc             	mov    DWORD PTR [rbp-0x4],eax
    dd42:	81 7d fc 5d 02 00 00 	cmp    DWORD PTR [rbp-0x4],0x25d
    dd49:	75 05                	jne    dd50 <main+0xca39>
    dd4b:	e9 c0 09 00 00       	jmp    e710 <main+0xd3f9>
    dd50:	48 8d 05 d1 12 00 00 	lea    rax,[rip+0x12d1]        # f028 <_IO_stdin_used+0x28>
    dd57:	48 89 c7             	mov    rdi,rax
    dd5a:	e8 61 33 ff ff       	call   10c0 <puts@plt>
    dd5f:	bf 01 00 00 00       	mov    edi,0x1
    dd64:	e8 c7 33 ff ff       	call   1130 <exit@plt>
    dd69:	be 43 02 00 00       	mov    esi,0x243
    dd6e:	48 8d 05 a4 12 00 00 	lea    rax,[rip+0x12a4]        # f019 <_IO_stdin_used+0x19>
    dd75:	48 89 c7             	mov    rdi,rax
    dd78:	b8 00 00 00 00       	mov    eax,0x0
    dd7d:	e8 6e 33 ff ff       	call   10f0 <printf@plt>
    dd82:	b8 00 00 00 00       	mov    eax,0x0
    dd87:	e8 e4 34 ff ff       	call   1270 <get_input>
    dd8c:	89 45 fc             	mov    DWORD PTR [rbp-0x4],eax
    dd8f:	81 7d fc d4 01 00 00 	cmp    DWORD PTR [rbp-0x4],0x1d4
    dd96:	75 05                	jne    dd9d <main+0xca86>
    dd98:	e9 13 d9 ff ff       	jmp    b6b0 <main+0xa399>
    dd9d:	81 7d fc c8 00 00 00 	cmp    DWORD PTR [rbp-0x4],0xc8
    dda4:	75 05                	jne    ddab <main+0xca94>
    dda6:	e9 32 7b ff ff       	jmp    58dd <main+0x45c6>
    ddab:	48 8d 05 76 12 00 00 	lea    rax,[rip+0x1276]        # f028 <_IO_stdin_used+0x28>
    ddb2:	48 89 c7             	mov    rdi,rax
    ddb5:	e8 06 33 ff ff       	call   10c0 <puts@plt>
    ddba:	bf 01 00 00 00       	mov    edi,0x1
    ddbf:	e8 6c 33 ff ff       	call   1130 <exit@plt>
    ddc4:	be 44 02 00 00       	mov    esi,0x244
    ddc9:	48 8d 05 49 12 00 00 	lea    rax,[rip+0x1249]        # f019 <_IO_stdin_used+0x19>
    ddd0:	48 89 c7             	mov    rdi,rax
    ddd3:	b8 00 00 00 00       	mov    eax,0x0
    ddd8:	e8 13 33 ff ff       	call   10f0 <printf@plt>
    dddd:	b8 00 00 00 00       	mov    eax,0x0
    dde2:	e8 89 34 ff ff       	call   1270 <get_input>
    dde7:	89 45 fc             	mov    DWORD PTR [rbp-0x4],eax
    ddea:	81 7d fc 56 01 00 00 	cmp    DWORD PTR [rbp-0x4],0x156
    ddf1:	75 05                	jne    ddf8 <main+0xcae1>
    ddf3:	e9 90 ac ff ff       	jmp    8a88 <main+0x7771>
    ddf8:	81 7d fc bd 01 00 00 	cmp    DWORD PTR [rbp-0x4],0x1bd
    ddff:	75 05                	jne    de06 <main+0xcaef>
    de01:	e9 94 d0 ff ff       	jmp    ae9a <main+0x9b83>
    de06:	81 7d fc 1a 01 00 00 	cmp    DWORD PTR [rbp-0x4],0x11a
    de0d:	75 05                	jne    de14 <main+0xcafd>
    de0f:	e9 4f 97 ff ff       	jmp    7563 <main+0x624c>
    de14:	48 8d 05 0d 12 00 00 	lea    rax,[rip+0x120d]        # f028 <_IO_stdin_used+0x28>
    de1b:	48 89 c7             	mov    rdi,rax
    de1e:	e8 9d 32 ff ff       	call   10c0 <puts@plt>
    de23:	bf 01 00 00 00       	mov    edi,0x1
    de28:	e8 03 33 ff ff       	call   1130 <exit@plt>
    de2d:	be 45 02 00 00       	mov    esi,0x245
    de32:	48 8d 05 e0 11 00 00 	lea    rax,[rip+0x11e0]        # f019 <_IO_stdin_used+0x19>
    de39:	48 89 c7             	mov    rdi,rax
    de3c:	b8 00 00 00 00       	mov    eax,0x0
    de41:	e8 aa 32 ff ff       	call   10f0 <printf@plt>
    de46:	b8 00 00 00 00       	mov    eax,0x0
    de4b:	e8 20 34 ff ff       	call   1270 <get_input>
    de50:	89 45 fc             	mov    DWORD PTR [rbp-0x4],eax
    de53:	81 7d fc 5b 02 00 00 	cmp    DWORD PTR [rbp-0x4],0x25b
    de5a:	0f 84 fa 07 00 00    	je     e65a <main+0xd343>
    de60:	81 7d fc 84 00 00 00 	cmp    DWORD PTR [rbp-0x4],0x84
    de67:	75 05                	jne    de6e <main+0xcb57>
    de69:	e9 cb 62 ff ff       	jmp    4139 <main+0x2e22>
    de6e:	81 7d fc 0d 02 00 00 	cmp    DWORD PTR [rbp-0x4],0x20d
    de75:	75 05                	jne    de7c <main+0xcb65>
    de77:	e9 8d eb ff ff       	jmp    ca09 <main+0xb6f2>
    de7c:	83 7d fc 3e          	cmp    DWORD PTR [rbp-0x4],0x3e
    de80:	75 05                	jne    de87 <main+0xcb70>
    de82:	e9 98 49 ff ff       	jmp    281f <main+0x1508>
    de87:	48 8d 05 9a 11 00 00 	lea    rax,[rip+0x119a]        # f028 <_IO_stdin_used+0x28>
    de8e:	48 89 c7             	mov    rdi,rax
    de91:	e8 2a 32 ff ff       	call   10c0 <puts@plt>
    de96:	bf 01 00 00 00       	mov    edi,0x1
    de9b:	e8 90 32 ff ff       	call   1130 <exit@plt>
    dea0:	be 46 02 00 00       	mov    esi,0x246
    dea5:	48 8d 05 6d 11 00 00 	lea    rax,[rip+0x116d]        # f019 <_IO_stdin_used+0x19>
    deac:	48 89 c7             	mov    rdi,rax
    deaf:	b8 00 00 00 00       	mov    eax,0x0
    deb4:	e8 37 32 ff ff       	call   10f0 <printf@plt>
    deb9:	b8 00 00 00 00       	mov    eax,0x0
    debe:	e8 ad 33 ff ff       	call   1270 <get_input>
    dec3:	89 45 fc             	mov    DWORD PTR [rbp-0x4],eax
    dec6:	81 7d fc d7 00 00 00 	cmp    DWORD PTR [rbp-0x4],0xd7
    decd:	75 05                	jne    ded4 <main+0xcbbd>
    decf:	e9 2a 7f ff ff       	jmp    5dfe <main+0x4ae7>
    ded4:	81 7d fc d1 00 00 00 	cmp    DWORD PTR [rbp-0x4],0xd1
    dedb:	75 05                	jne    dee2 <main+0xcbcb>
    dedd:	e9 16 7d ff ff       	jmp    5bf8 <main+0x48e1>
    dee2:	81 7d fc 54 02 00 00 	cmp    DWORD PTR [rbp-0x4],0x254
    dee9:	75 05                	jne    def0 <main+0xcbd9>
    deeb:	e9 00 05 00 00       	jmp    e3f0 <main+0xd0d9>
    def0:	48 8d 05 31 11 00 00 	lea    rax,[rip+0x1131]        # f028 <_IO_stdin_used+0x28>
    def7:	48 89 c7             	mov    rdi,rax
    defa:	e8 c1 31 ff ff       	call   10c0 <puts@plt>
    deff:	bf 01 00 00 00       	mov    edi,0x1
    df04:	e8 27 32 ff ff       	call   1130 <exit@plt>
    df09:	be 47 02 00 00       	mov    esi,0x247
    df0e:	48 8d 05 04 11 00 00 	lea    rax,[rip+0x1104]        # f019 <_IO_stdin_used+0x19>
    df15:	48 89 c7             	mov    rdi,rax
    df18:	b8 00 00 00 00       	mov    eax,0x0
    df1d:	e8 ce 31 ff ff       	call   10f0 <printf@plt>
    df22:	b8 00 00 00 00       	mov    eax,0x0
    df27:	e8 44 33 ff ff       	call   1270 <get_input>
    df2c:	89 45 fc             	mov    DWORD PTR [rbp-0x4],eax
    df2f:	83 7d fc 1c          	cmp    DWORD PTR [rbp-0x4],0x1c
    df33:	75 05                	jne    df3a <main+0xcc23>
    df35:	e9 89 3d ff ff       	jmp    1cc3 <main+0x9ac>
    df3a:	83 7d fc 5b          	cmp    DWORD PTR [rbp-0x4],0x5b
    df3e:	75 05                	jne    df45 <main+0xcc2e>
    df40:	e9 4d 53 ff ff       	jmp    3292 <main+0x1f7b>
    df45:	81 7d fc c9 00 00 00 	cmp    DWORD PTR [rbp-0x4],0xc9
    df4c:	75 05                	jne    df53 <main+0xcc3c>
    df4e:	e9 e5 79 ff ff       	jmp    5938 <main+0x4621>
    df53:	48 8d 05 ce 10 00 00 	lea    rax,[rip+0x10ce]        # f028 <_IO_stdin_used+0x28>
    df5a:	48 89 c7             	mov    rdi,rax
    df5d:	e8 5e 31 ff ff       	call   10c0 <puts@plt>
    df62:	bf 01 00 00 00       	mov    edi,0x1
    df67:	e8 c4 31 ff ff       	call   1130 <exit@plt>
    df6c:	90                   	nop
    df6d:	be 48 02 00 00       	mov    esi,0x248
    df72:	48 8d 05 a0 10 00 00 	lea    rax,[rip+0x10a0]        # f019 <_IO_stdin_used+0x19>
    df79:	48 89 c7             	mov    rdi,rax
    df7c:	b8 00 00 00 00       	mov    eax,0x0
    df81:	e8 6a 31 ff ff       	call   10f0 <printf@plt>
    df86:	b8 00 00 00 00       	mov    eax,0x0
    df8b:	e8 e0 32 ff ff       	call   1270 <get_input>
    df90:	89 45 fc             	mov    DWORD PTR [rbp-0x4],eax
    df93:	81 7d fc bd 00 00 00 	cmp    DWORD PTR [rbp-0x4],0xbd
    df9a:	75 05                	jne    dfa1 <main+0xcc8a>
    df9c:	e9 63 75 ff ff       	jmp    5504 <main+0x41ed>
    dfa1:	48 8d 05 80 10 00 00 	lea    rax,[rip+0x1080]        # f028 <_IO_stdin_used+0x28>
    dfa8:	48 89 c7             	mov    rdi,rax
    dfab:	e8 10 31 ff ff       	call   10c0 <puts@plt>
    dfb0:	bf 01 00 00 00       	mov    edi,0x1
    dfb5:	e8 76 31 ff ff       	call   1130 <exit@plt>
    dfba:	be 49 02 00 00       	mov    esi,0x249
    dfbf:	48 8d 05 53 10 00 00 	lea    rax,[rip+0x1053]        # f019 <_IO_stdin_used+0x19>
    dfc6:	48 89 c7             	mov    rdi,rax
    dfc9:	b8 00 00 00 00       	mov    eax,0x0
    dfce:	e8 1d 31 ff ff       	call   10f0 <printf@plt>
    dfd3:	b8 00 00 00 00       	mov    eax,0x0
    dfd8:	e8 93 32 ff ff       	call   1270 <get_input>
    dfdd:	89 45 fc             	mov    DWORD PTR [rbp-0x4],eax
    dfe0:	81 7d fc 32 02 00 00 	cmp    DWORD PTR [rbp-0x4],0x232
    dfe7:	75 05                	jne    dfee <main+0xccd7>
    dfe9:	e9 5a f7 ff ff       	jmp    d748 <main+0xc431>
    dfee:	81 7d fc 64 01 00 00 	cmp    DWORD PTR [rbp-0x4],0x164
    dff5:	75 05                	jne    dffc <main+0xcce5>
    dff7:	e9 41 af ff ff       	jmp    8f3d <main+0x7c26>
    dffc:	48 8d 05 25 10 00 00 	lea    rax,[rip+0x1025]        # f028 <_IO_stdin_used+0x28>
    e003:	48 89 c7             	mov    rdi,rax
    e006:	e8 b5 30 ff ff       	call   10c0 <puts@plt>
    e00b:	bf 01 00 00 00       	mov    edi,0x1
    e010:	e8 1b 31 ff ff       	call   1130 <exit@plt>
    e015:	be 4a 02 00 00       	mov    esi,0x24a
    e01a:	48 8d 05 f8 0f 00 00 	lea    rax,[rip+0xff8]        # f019 <_IO_stdin_used+0x19>
    e021:	48 89 c7             	mov    rdi,rax
    e024:	b8 00 00 00 00       	mov    eax,0x0
    e029:	e8 c2 30 ff ff       	call   10f0 <printf@plt>
    e02e:	b8 00 00 00 00       	mov    eax,0x0
    e033:	e8 38 32 ff ff       	call   1270 <get_input>
    e038:	89 45 fc             	mov    DWORD PTR [rbp-0x4],eax
    e03b:	83 7d fc 46          	cmp    DWORD PTR [rbp-0x4],0x46
    e03f:	75 05                	jne    e046 <main+0xcd2f>
    e041:	e9 a9 4a ff ff       	jmp    2aef <main+0x17d8>
    e046:	81 7d fc c4 00 00 00 	cmp    DWORD PTR [rbp-0x4],0xc4
    e04d:	75 05                	jne    e054 <main+0xcd3d>
    e04f:	e9 37 77 ff ff       	jmp    578b <main+0x4474>
    e054:	48 8d 05 cd 0f 00 00 	lea    rax,[rip+0xfcd]        # f028 <_IO_stdin_used+0x28>
    e05b:	48 89 c7             	mov    rdi,rax
    e05e:	e8 5d 30 ff ff       	call   10c0 <puts@plt>
    e063:	bf 01 00 00 00       	mov    edi,0x1
    e068:	e8 c3 30 ff ff       	call   1130 <exit@plt>
    e06d:	be 4b 02 00 00       	mov    esi,0x24b
    e072:	48 8d 05 a0 0f 00 00 	lea    rax,[rip+0xfa0]        # f019 <_IO_stdin_used+0x19>
    e079:	48 89 c7             	mov    rdi,rax
    e07c:	b8 00 00 00 00       	mov    eax,0x0
    e081:	e8 6a 30 ff ff       	call   10f0 <printf@plt>
    e086:	b8 00 00 00 00       	mov    eax,0x0
    e08b:	e8 e0 31 ff ff       	call   1270 <get_input>
    e090:	89 45 fc             	mov    DWORD PTR [rbp-0x4],eax
    e093:	81 7d fc 00 02 00 00 	cmp    DWORD PTR [rbp-0x4],0x200
    e09a:	0f 84 30 e5 ff ff    	je     c5d0 <main+0xb2b9>
    e0a0:	81 7d fc 09 01 00 00 	cmp    DWORD PTR [rbp-0x4],0x109
    e0a7:	75 05                	jne    e0ae <main+0xcd97>
    e0a9:	e9 b9 8e ff ff       	jmp    6f67 <main+0x5c50>
    e0ae:	83 7d fc 50          	cmp    DWORD PTR [rbp-0x4],0x50
    e0b2:	75 05                	jne    e0b9 <main+0xcda2>
    e0b4:	e9 ec 4d ff ff       	jmp    2ea5 <main+0x1b8e>
    e0b9:	81 7d fc 56 02 00 00 	cmp    DWORD PTR [rbp-0x4],0x256
    e0c0:	0f 84 dd 03 00 00    	je     e4a3 <main+0xd18c>
    e0c6:	48 8d 05 5b 0f 00 00 	lea    rax,[rip+0xf5b]        # f028 <_IO_stdin_used+0x28>
    e0cd:	48 89 c7             	mov    rdi,rax
    e0d0:	e8 eb 2f ff ff       	call   10c0 <puts@plt>
    e0d5:	bf 01 00 00 00       	mov    edi,0x1
    e0da:	e8 51 30 ff ff       	call   1130 <exit@plt>
    e0df:	be 4c 02 00 00       	mov    esi,0x24c
    e0e4:	48 8d 05 2e 0f 00 00 	lea    rax,[rip+0xf2e]        # f019 <_IO_stdin_used+0x19>
    e0eb:	48 89 c7             	mov    rdi,rax
    e0ee:	b8 00 00 00 00       	mov    eax,0x0
    e0f3:	e8 f8 2f ff ff       	call   10f0 <printf@plt>
    e0f8:	b8 00 00 00 00       	mov    eax,0x0
    e0fd:	e8 6e 31 ff ff       	call   1270 <get_input>
    e102:	89 45 fc             	mov    DWORD PTR [rbp-0x4],eax
    e105:	81 7d fc 37 01 00 00 	cmp    DWORD PTR [rbp-0x4],0x137
    e10c:	75 05                	jne    e113 <main+0xcdfc>
    e10e:	e9 5a 9e ff ff       	jmp    7f6d <main+0x6c56>
    e113:	81 7d fc ca 01 00 00 	cmp    DWORD PTR [rbp-0x4],0x1ca
    e11a:	0f 84 14 d2 ff ff    	je     b334 <main+0xa01d>
    e120:	48 8d 05 01 0f 00 00 	lea    rax,[rip+0xf01]        # f028 <_IO_stdin_used+0x28>
    e127:	48 89 c7             	mov    rdi,rax
    e12a:	e8 91 2f ff ff       	call   10c0 <puts@plt>
    e12f:	bf 01 00 00 00       	mov    edi,0x1
    e134:	e8 f7 2f ff ff       	call   1130 <exit@plt>
    e139:	be 4d 02 00 00       	mov    esi,0x24d
    e13e:	48 8d 05 d4 0e 00 00 	lea    rax,[rip+0xed4]        # f019 <_IO_stdin_used+0x19>
    e145:	48 89 c7             	mov    rdi,rax
    e148:	b8 00 00 00 00       	mov    eax,0x0
    e14d:	e8 9e 2f ff ff       	call   10f0 <printf@plt>
    e152:	b8 00 00 00 00       	mov    eax,0x0
    e157:	e8 14 31 ff ff       	call   1270 <get_input>
    e15c:	89 45 fc             	mov    DWORD PTR [rbp-0x4],eax
    e15f:	83 7d fc 6a          	cmp    DWORD PTR [rbp-0x4],0x6a
    e163:	75 05                	jne    e16a <main+0xce53>
    e165:	e9 71 56 ff ff       	jmp    37db <main+0x24c4>
    e16a:	83 7d fc 24          	cmp    DWORD PTR [rbp-0x4],0x24
    e16e:	75 05                	jne    e175 <main+0xce5e>
    e170:	e9 2d 3e ff ff       	jmp    1fa2 <main+0xc8b>
    e175:	48 8d 05 ac 0e 00 00 	lea    rax,[rip+0xeac]        # f028 <_IO_stdin_used+0x28>
    e17c:	48 89 c7             	mov    rdi,rax
    e17f:	e8 3c 2f ff ff       	call   10c0 <puts@plt>
    e184:	bf 01 00 00 00       	mov    edi,0x1
    e189:	e8 a2 2f ff ff       	call   1130 <exit@plt>
    e18e:	be 4e 02 00 00       	mov    esi,0x24e
    e193:	48 8d 05 7f 0e 00 00 	lea    rax,[rip+0xe7f]        # f019 <_IO_stdin_used+0x19>
    e19a:	48 89 c7             	mov    rdi,rax
    e19d:	b8 00 00 00 00       	mov    eax,0x0
    e1a2:	e8 49 2f ff ff       	call   10f0 <printf@plt>
    e1a7:	b8 00 00 00 00       	mov    eax,0x0
    e1ac:	e8 bf 30 ff ff       	call   1270 <get_input>
    e1b1:	89 45 fc             	mov    DWORD PTR [rbp-0x4],eax
    e1b4:	81 7d fc 32 02 00 00 	cmp    DWORD PTR [rbp-0x4],0x232
    e1bb:	75 05                	jne    e1c2 <main+0xceab>
    e1bd:	e9 86 f5 ff ff       	jmp    d748 <main+0xc431>
    e1c2:	81 7d fc c2 00 00 00 	cmp    DWORD PTR [rbp-0x4],0xc2
    e1c9:	75 05                	jne    e1d0 <main+0xceb9>
    e1cb:	e9 16 75 ff ff       	jmp    56e6 <main+0x43cf>
    e1d0:	48 8d 05 51 0e 00 00 	lea    rax,[rip+0xe51]        # f028 <_IO_stdin_used+0x28>
    e1d7:	48 89 c7             	mov    rdi,rax
    e1da:	e8 e1 2e ff ff       	call   10c0 <puts@plt>
    e1df:	bf 01 00 00 00       	mov    edi,0x1
    e1e4:	e8 47 2f ff ff       	call   1130 <exit@plt>
    e1e9:	be 4f 02 00 00       	mov    esi,0x24f
    e1ee:	48 8d 05 24 0e 00 00 	lea    rax,[rip+0xe24]        # f019 <_IO_stdin_used+0x19>
    e1f5:	48 89 c7             	mov    rdi,rax
    e1f8:	b8 00 00 00 00       	mov    eax,0x0
    e1fd:	e8 ee 2e ff ff       	call   10f0 <printf@plt>
    e202:	b8 00 00 00 00       	mov    eax,0x0
    e207:	e8 64 30 ff ff       	call   1270 <get_input>
    e20c:	89 45 fc             	mov    DWORD PTR [rbp-0x4],eax
    e20f:	81 7d fc ab 00 00 00 	cmp    DWORD PTR [rbp-0x4],0xab
    e216:	75 05                	jne    e21d <main+0xcf06>
    e218:	e9 99 6c ff ff       	jmp    4eb6 <main+0x3b9f>
    e21d:	81 7d fc a5 00 00 00 	cmp    DWORD PTR [rbp-0x4],0xa5
    e224:	75 05                	jne    e22b <main+0xcf14>
    e226:	e9 78 6a ff ff       	jmp    4ca3 <main+0x398c>
    e22b:	81 7d fc 35 02 00 00 	cmp    DWORD PTR [rbp-0x4],0x235
    e232:	0f 84 3d f6 ff ff    	je     d875 <main+0xc55e>
    e238:	48 8d 05 e9 0d 00 00 	lea    rax,[rip+0xde9]        # f028 <_IO_stdin_used+0x28>
    e23f:	48 89 c7             	mov    rdi,rax
    e242:	e8 79 2e ff ff       	call   10c0 <puts@plt>
    e247:	bf 01 00 00 00       	mov    edi,0x1
    e24c:	e8 df 2e ff ff       	call   1130 <exit@plt>
    e251:	be 50 02 00 00       	mov    esi,0x250
    e256:	48 8d 05 bc 0d 00 00 	lea    rax,[rip+0xdbc]        # f019 <_IO_stdin_used+0x19>
    e25d:	48 89 c7             	mov    rdi,rax
    e260:	b8 00 00 00 00       	mov    eax,0x0
    e265:	e8 86 2e ff ff       	call   10f0 <printf@plt>
    e26a:	b8 00 00 00 00       	mov    eax,0x0
    e26f:	e8 fc 2f ff ff       	call   1270 <get_input>
    e274:	89 45 fc             	mov    DWORD PTR [rbp-0x4],eax
    e277:	81 7d fc 2e 02 00 00 	cmp    DWORD PTR [rbp-0x4],0x22e
    e27e:	75 05                	jne    e285 <main+0xcf6e>
    e280:	e9 43 f3 ff ff       	jmp    d5c8 <main+0xc2b1>
    e285:	81 7d fc a7 00 00 00 	cmp    DWORD PTR [rbp-0x4],0xa7
    e28c:	0f 84 b7 6a ff ff    	je     4d49 <main+0x3a32>
    e292:	48 8d 05 8f 0d 00 00 	lea    rax,[rip+0xd8f]        # f028 <_IO_stdin_used+0x28>
    e299:	48 89 c7             	mov    rdi,rax
    e29c:	e8 1f 2e ff ff       	call   10c0 <puts@plt>
    e2a1:	bf 01 00 00 00       	mov    edi,0x1
    e2a6:	e8 85 2e ff ff       	call   1130 <exit@plt>
    e2ab:	be 51 02 00 00       	mov    esi,0x251
    e2b0:	48 8d 05 62 0d 00 00 	lea    rax,[rip+0xd62]        # f019 <_IO_stdin_used+0x19>
    e2b7:	48 89 c7             	mov    rdi,rax
    e2ba:	b8 00 00 00 00       	mov    eax,0x0
    e2bf:	e8 2c 2e ff ff       	call   10f0 <printf@plt>
    e2c4:	b8 00 00 00 00       	mov    eax,0x0
    e2c9:	e8 a2 2f ff ff       	call   1270 <get_input>
    e2ce:	89 45 fc             	mov    DWORD PTR [rbp-0x4],eax
    e2d1:	81 7d fc 15 01 00 00 	cmp    DWORD PTR [rbp-0x4],0x115
    e2d8:	75 05                	jne    e2df <main+0xcfc8>
    e2da:	e9 b4 90 ff ff       	jmp    7393 <main+0x607c>
    e2df:	81 7d fc 65 01 00 00 	cmp    DWORD PTR [rbp-0x4],0x165
    e2e6:	75 05                	jne    e2ed <main+0xcfd6>
    e2e8:	e9 ab ac ff ff       	jmp    8f98 <main+0x7c81>
    e2ed:	81 7d fc 31 02 00 00 	cmp    DWORD PTR [rbp-0x4],0x231
    e2f4:	75 05                	jne    e2fb <main+0xcfe4>
    e2f6:	e9 f2 f3 ff ff       	jmp    d6ed <main+0xc3d6>
    e2fb:	81 7d fc 69 02 00 00 	cmp    DWORD PTR [rbp-0x4],0x269
    e302:	0f 84 7c 08 00 00    	je     eb84 <main+0xd86d>
    e308:	48 8d 05 19 0d 00 00 	lea    rax,[rip+0xd19]        # f028 <_IO_stdin_used+0x28>
    e30f:	48 89 c7             	mov    rdi,rax
    e312:	e8 a9 2d ff ff       	call   10c0 <puts@plt>
    e317:	bf 01 00 00 00       	mov    edi,0x1
    e31c:	e8 0f 2e ff ff       	call   1130 <exit@plt>
    e321:	be 52 02 00 00       	mov    esi,0x252
    e326:	48 8d 05 ec 0c 00 00 	lea    rax,[rip+0xcec]        # f019 <_IO_stdin_used+0x19>
    e32d:	48 89 c7             	mov    rdi,rax
    e330:	b8 00 00 00 00       	mov    eax,0x0
    e335:	e8 b6 2d ff ff       	call   10f0 <printf@plt>
    e33a:	b8 00 00 00 00       	mov    eax,0x0
    e33f:	e8 2c 2f ff ff       	call   1270 <get_input>
    e344:	89 45 fc             	mov    DWORD PTR [rbp-0x4],eax
    e347:	81 7d fc 9b 01 00 00 	cmp    DWORD PTR [rbp-0x4],0x19b
    e34e:	75 05                	jne    e355 <main+0xd03e>
    e350:	e9 68 bf ff ff       	jmp    a2bd <main+0x8fa6>
    e355:	81 7d fc 82 01 00 00 	cmp    DWORD PTR [rbp-0x4],0x182
    e35c:	0f 84 73 b6 ff ff    	je     99d5 <main+0x86be>
    e362:	81 7d fc ee 01 00 00 	cmp    DWORD PTR [rbp-0x4],0x1ee
    e369:	0f 84 37 dc ff ff    	je     bfa6 <main+0xac8f>
    e36f:	48 8d 05 b2 0c 00 00 	lea    rax,[rip+0xcb2]        # f028 <_IO_stdin_used+0x28>
    e376:	48 89 c7             	mov    rdi,rax
    e379:	e8 42 2d ff ff       	call   10c0 <puts@plt>
    e37e:	bf 01 00 00 00       	mov    edi,0x1
    e383:	e8 a8 2d ff ff       	call   1130 <exit@plt>
    e388:	be 53 02 00 00       	mov    esi,0x253
    e38d:	48 8d 05 85 0c 00 00 	lea    rax,[rip+0xc85]        # f019 <_IO_stdin_used+0x19>
    e394:	48 89 c7             	mov    rdi,rax
    e397:	b8 00 00 00 00       	mov    eax,0x0
    e39c:	e8 4f 2d ff ff       	call   10f0 <printf@plt>
    e3a1:	b8 00 00 00 00       	mov    eax,0x0
    e3a6:	e8 c5 2e ff ff       	call   1270 <get_input>
    e3ab:	89 45 fc             	mov    DWORD PTR [rbp-0x4],eax
    e3ae:	81 7d fc fa 01 00 00 	cmp    DWORD PTR [rbp-0x4],0x1fa
    e3b5:	75 05                	jne    e3bc <main+0xd0a5>
    e3b7:	e9 ff df ff ff       	jmp    c3bb <main+0xb0a4>
    e3bc:	81 7d fc 1a 02 00 00 	cmp    DWORD PTR [rbp-0x4],0x21a
    e3c3:	0f 84 eb ea ff ff    	je     ceb4 <main+0xbb9d>
    e3c9:	81 7d fc c0 00 00 00 	cmp    DWORD PTR [rbp-0x4],0xc0
    e3d0:	75 05                	jne    e3d7 <main+0xd0c0>
    e3d2:	e9 5b 72 ff ff       	jmp    5632 <main+0x431b>
    e3d7:	48 8d 05 4a 0c 00 00 	lea    rax,[rip+0xc4a]        # f028 <_IO_stdin_used+0x28>
    e3de:	48 89 c7             	mov    rdi,rax
    e3e1:	e8 da 2c ff ff       	call   10c0 <puts@plt>
    e3e6:	bf 01 00 00 00       	mov    edi,0x1
    e3eb:	e8 40 2d ff ff       	call   1130 <exit@plt>
    e3f0:	be 54 02 00 00       	mov    esi,0x254
    e3f5:	48 8d 05 1d 0c 00 00 	lea    rax,[rip+0xc1d]        # f019 <_IO_stdin_used+0x19>
    e3fc:	48 89 c7             	mov    rdi,rax
    e3ff:	b8 00 00 00 00       	mov    eax,0x0
    e404:	e8 e7 2c ff ff       	call   10f0 <printf@plt>
    e409:	b8 00 00 00 00       	mov    eax,0x0
    e40e:	e8 5d 2e ff ff       	call   1270 <get_input>
    e413:	89 45 fc             	mov    DWORD PTR [rbp-0x4],eax
    e416:	81 7d fc 46 02 00 00 	cmp    DWORD PTR [rbp-0x4],0x246
    e41d:	75 05                	jne    e424 <main+0xd10d>
    e41f:	e9 7c fa ff ff       	jmp    dea0 <main+0xcb89>
    e424:	81 7d fc 30 02 00 00 	cmp    DWORD PTR [rbp-0x4],0x230
    e42b:	75 05                	jne    e432 <main+0xd11b>
    e42d:	e9 54 f2 ff ff       	jmp    d686 <main+0xc36f>
    e432:	48 8d 05 ef 0b 00 00 	lea    rax,[rip+0xbef]        # f028 <_IO_stdin_used+0x28>
    e439:	48 89 c7             	mov    rdi,rax
    e43c:	e8 7f 2c ff ff       	call   10c0 <puts@plt>
    e441:	bf 01 00 00 00       	mov    edi,0x1
    e446:	e8 e5 2c ff ff       	call   1130 <exit@plt>
    e44b:	be 55 02 00 00       	mov    esi,0x255
    e450:	48 8d 05 c2 0b 00 00 	lea    rax,[rip+0xbc2]        # f019 <_IO_stdin_used+0x19>
    e457:	48 89 c7             	mov    rdi,rax
    e45a:	b8 00 00 00 00       	mov    eax,0x0
    e45f:	e8 8c 2c ff ff       	call   10f0 <printf@plt>
    e464:	b8 00 00 00 00       	mov    eax,0x0
    e469:	e8 02 2e ff ff       	call   1270 <get_input>
    e46e:	89 45 fc             	mov    DWORD PTR [rbp-0x4],eax
    e471:	83 7d fc 5f          	cmp    DWORD PTR [rbp-0x4],0x5f
    e475:	75 05                	jne    e47c <main+0xd165>
    e477:	e9 89 4f ff ff       	jmp    3405 <main+0x20ee>
    e47c:	81 7d fc cd 00 00 00 	cmp    DWORD PTR [rbp-0x4],0xcd
    e483:	75 05                	jne    e48a <main+0xd173>
    e485:	e9 12 76 ff ff       	jmp    5a9c <main+0x4785>
    e48a:	48 8d 05 97 0b 00 00 	lea    rax,[rip+0xb97]        # f028 <_IO_stdin_used+0x28>
    e491:	48 89 c7             	mov    rdi,rax
    e494:	e8 27 2c ff ff       	call   10c0 <puts@plt>
    e499:	bf 01 00 00 00       	mov    edi,0x1
    e49e:	e8 8d 2c ff ff       	call   1130 <exit@plt>
    e4a3:	90                   	nop
    e4a4:	be 56 02 00 00       	mov    esi,0x256
    e4a9:	48 8d 05 69 0b 00 00 	lea    rax,[rip+0xb69]        # f019 <_IO_stdin_used+0x19>
    e4b0:	48 89 c7             	mov    rdi,rax
    e4b3:	b8 00 00 00 00       	mov    eax,0x0
    e4b8:	e8 33 2c ff ff       	call   10f0 <printf@plt>
    e4bd:	b8 00 00 00 00       	mov    eax,0x0
    e4c2:	e8 a9 2d ff ff       	call   1270 <get_input>
    e4c7:	89 45 fc             	mov    DWORD PTR [rbp-0x4],eax
    e4ca:	81 7d fc 4b 02 00 00 	cmp    DWORD PTR [rbp-0x4],0x24b
    e4d1:	75 05                	jne    e4d8 <main+0xd1c1>
    e4d3:	e9 95 fb ff ff       	jmp    e06d <main+0xcd56>
    e4d8:	48 8d 05 49 0b 00 00 	lea    rax,[rip+0xb49]        # f028 <_IO_stdin_used+0x28>
    e4df:	48 89 c7             	mov    rdi,rax
    e4e2:	e8 d9 2b ff ff       	call   10c0 <puts@plt>
    e4e7:	bf 01 00 00 00       	mov    edi,0x1
    e4ec:	e8 3f 2c ff ff       	call   1130 <exit@plt>
    e4f1:	be 57 02 00 00       	mov    esi,0x257
    e4f6:	48 8d 05 1c 0b 00 00 	lea    rax,[rip+0xb1c]        # f019 <_IO_stdin_used+0x19>
    e4fd:	48 89 c7             	mov    rdi,rax
    e500:	b8 00 00 00 00       	mov    eax,0x0
    e505:	e8 e6 2b ff ff       	call   10f0 <printf@plt>
    e50a:	b8 00 00 00 00       	mov    eax,0x0
    e50f:	e8 5c 2d ff ff       	call   1270 <get_input>
    e514:	89 45 fc             	mov    DWORD PTR [rbp-0x4],eax
    e517:	81 7d fc d2 00 00 00 	cmp    DWORD PTR [rbp-0x4],0xd2
    e51e:	75 05                	jne    e525 <main+0xd20e>
    e520:	e9 2d 77 ff ff       	jmp    5c52 <main+0x493b>
    e525:	81 7d fc 2e 01 00 00 	cmp    DWORD PTR [rbp-0x4],0x12e
    e52c:	75 05                	jne    e533 <main+0xd21c>
    e52e:	e9 f0 96 ff ff       	jmp    7c23 <main+0x690c>
    e533:	48 8d 05 ee 0a 00 00 	lea    rax,[rip+0xaee]        # f028 <_IO_stdin_used+0x28>
    e53a:	48 89 c7             	mov    rdi,rax
    e53d:	e8 7e 2b ff ff       	call   10c0 <puts@plt>
    e542:	bf 01 00 00 00       	mov    edi,0x1
    e547:	e8 e4 2b ff ff       	call   1130 <exit@plt>
    e54c:	be 58 02 00 00       	mov    esi,0x258
    e551:	48 8d 05 c1 0a 00 00 	lea    rax,[rip+0xac1]        # f019 <_IO_stdin_used+0x19>
    e558:	48 89 c7             	mov    rdi,rax
    e55b:	b8 00 00 00 00       	mov    eax,0x0
    e560:	e8 8b 2b ff ff       	call   10f0 <printf@plt>
    e565:	b8 00 00 00 00       	mov    eax,0x0
    e56a:	e8 01 2d ff ff       	call   1270 <get_input>
    e56f:	89 45 fc             	mov    DWORD PTR [rbp-0x4],eax
    e572:	83 7d fc 56          	cmp    DWORD PTR [rbp-0x4],0x56
    e576:	75 05                	jne    e57d <main+0xd266>
    e578:	e9 51 4b ff ff       	jmp    30ce <main+0x1db7>
    e57d:	81 7d fc 51 01 00 00 	cmp    DWORD PTR [rbp-0x4],0x151
    e584:	75 05                	jne    e58b <main+0xd274>
    e586:	e9 33 a3 ff ff       	jmp    88be <main+0x75a7>
    e58b:	48 8d 05 96 0a 00 00 	lea    rax,[rip+0xa96]        # f028 <_IO_stdin_used+0x28>
    e592:	48 89 c7             	mov    rdi,rax
    e595:	e8 26 2b ff ff       	call   10c0 <puts@plt>
    e59a:	bf 01 00 00 00       	mov    edi,0x1
    e59f:	e8 8c 2b ff ff       	call   1130 <exit@plt>
    e5a4:	90                   	nop
    e5a5:	be 59 02 00 00       	mov    esi,0x259
    e5aa:	48 8d 05 68 0a 00 00 	lea    rax,[rip+0xa68]        # f019 <_IO_stdin_used+0x19>
    e5b1:	48 89 c7             	mov    rdi,rax
    e5b4:	b8 00 00 00 00       	mov    eax,0x0
    e5b9:	e8 32 2b ff ff       	call   10f0 <printf@plt>
    e5be:	b8 00 00 00 00       	mov    eax,0x0
    e5c3:	e8 a8 2c ff ff       	call   1270 <get_input>
    e5c8:	89 45 fc             	mov    DWORD PTR [rbp-0x4],eax
    e5cb:	81 7d fc 0d 01 00 00 	cmp    DWORD PTR [rbp-0x4],0x10d
    e5d2:	75 05                	jne    e5d9 <main+0xd2c2>
    e5d4:	e9 ed 8a ff ff       	jmp    70c6 <main+0x5daf>
    e5d9:	48 8d 05 48 0a 00 00 	lea    rax,[rip+0xa48]        # f028 <_IO_stdin_used+0x28>
    e5e0:	48 89 c7             	mov    rdi,rax
    e5e3:	e8 d8 2a ff ff       	call   10c0 <puts@plt>
    e5e8:	bf 01 00 00 00       	mov    edi,0x1
    e5ed:	e8 3e 2b ff ff       	call   1130 <exit@plt>
    e5f2:	be 5a 02 00 00       	mov    esi,0x25a
    e5f7:	48 8d 05 1b 0a 00 00 	lea    rax,[rip+0xa1b]        # f019 <_IO_stdin_used+0x19>
    e5fe:	48 89 c7             	mov    rdi,rax
    e601:	b8 00 00 00 00       	mov    eax,0x0
    e606:	e8 e5 2a ff ff       	call   10f0 <printf@plt>
    e60b:	b8 00 00 00 00       	mov    eax,0x0
    e610:	e8 5b 2c ff ff       	call   1270 <get_input>
    e615:	89 45 fc             	mov    DWORD PTR [rbp-0x4],eax
    e618:	81 7d fc 75 01 00 00 	cmp    DWORD PTR [rbp-0x4],0x175
    e61f:	75 05                	jne    e626 <main+0xd30f>
    e621:	e9 17 af ff ff       	jmp    953d <main+0x8226>
    e626:	81 7d fc de 00 00 00 	cmp    DWORD PTR [rbp-0x4],0xde
    e62d:	75 05                	jne    e634 <main+0xd31d>
    e62f:	e9 59 7a ff ff       	jmp    608d <main+0x4d76>
    e634:	81 7d fc c5 00 00 00 	cmp    DWORD PTR [rbp-0x4],0xc5
    e63b:	0f 84 a5 71 ff ff    	je     57e6 <main+0x44cf>
    e641:	48 8d 05 e0 09 00 00 	lea    rax,[rip+0x9e0]        # f028 <_IO_stdin_used+0x28>
    e648:	48 89 c7             	mov    rdi,rax
    e64b:	e8 70 2a ff ff       	call   10c0 <puts@plt>
    e650:	bf 01 00 00 00       	mov    edi,0x1
    e655:	e8 d6 2a ff ff       	call   1130 <exit@plt>
    e65a:	90                   	nop
    e65b:	be 5b 02 00 00       	mov    esi,0x25b
    e660:	48 8d 05 b2 09 00 00 	lea    rax,[rip+0x9b2]        # f019 <_IO_stdin_used+0x19>
    e667:	48 89 c7             	mov    rdi,rax
    e66a:	b8 00 00 00 00       	mov    eax,0x0
    e66f:	e8 7c 2a ff ff       	call   10f0 <printf@plt>
    e674:	b8 00 00 00 00       	mov    eax,0x0
    e679:	e8 f2 2b ff ff       	call   1270 <get_input>
    e67e:	89 45 fc             	mov    DWORD PTR [rbp-0x4],eax
    e681:	81 7d fc 45 02 00 00 	cmp    DWORD PTR [rbp-0x4],0x245
    e688:	75 05                	jne    e68f <main+0xd378>
    e68a:	e9 9e f7 ff ff       	jmp    de2d <main+0xcb16>
    e68f:	48 8d 05 92 09 00 00 	lea    rax,[rip+0x992]        # f028 <_IO_stdin_used+0x28>
    e696:	48 89 c7             	mov    rdi,rax
    e699:	e8 22 2a ff ff       	call   10c0 <puts@plt>
    e69e:	bf 01 00 00 00       	mov    edi,0x1
    e6a3:	e8 88 2a ff ff       	call   1130 <exit@plt>
    e6a8:	be 5c 02 00 00       	mov    esi,0x25c
    e6ad:	48 8d 05 65 09 00 00 	lea    rax,[rip+0x965]        # f019 <_IO_stdin_used+0x19>
    e6b4:	48 89 c7             	mov    rdi,rax
    e6b7:	b8 00 00 00 00       	mov    eax,0x0
    e6bc:	e8 2f 2a ff ff       	call   10f0 <printf@plt>
    e6c1:	b8 00 00 00 00       	mov    eax,0x0
    e6c6:	e8 a5 2b ff ff       	call   1270 <get_input>
    e6cb:	89 45 fc             	mov    DWORD PTR [rbp-0x4],eax
    e6ce:	81 7d fc 1d 02 00 00 	cmp    DWORD PTR [rbp-0x4],0x21d
    e6d5:	75 05                	jne    e6dc <main+0xd3c5>
    e6d7:	e9 da e8 ff ff       	jmp    cfb6 <main+0xbc9f>
    e6dc:	81 7d fc f6 00 00 00 	cmp    DWORD PTR [rbp-0x4],0xf6
    e6e3:	75 05                	jne    e6ea <main+0xd3d3>
    e6e5:	e9 da 81 ff ff       	jmp    68c4 <main+0x55ad>
    e6ea:	81 7d fc 3f 02 00 00 	cmp    DWORD PTR [rbp-0x4],0x23f
    e6f1:	0f 84 3a f5 ff ff    	je     dc31 <main+0xc91a>
    e6f7:	48 8d 05 2a 09 00 00 	lea    rax,[rip+0x92a]        # f028 <_IO_stdin_used+0x28>
    e6fe:	48 89 c7             	mov    rdi,rax
    e701:	e8 ba 29 ff ff       	call   10c0 <puts@plt>
    e706:	bf 01 00 00 00       	mov    edi,0x1
    e70b:	e8 20 2a ff ff       	call   1130 <exit@plt>
    e710:	be 5d 02 00 00       	mov    esi,0x25d
    e715:	48 8d 05 fd 08 00 00 	lea    rax,[rip+0x8fd]        # f019 <_IO_stdin_used+0x19>
    e71c:	48 89 c7             	mov    rdi,rax
    e71f:	b8 00 00 00 00       	mov    eax,0x0
    e724:	e8 c7 29 ff ff       	call   10f0 <printf@plt>
    e729:	b8 00 00 00 00       	mov    eax,0x0
    e72e:	e8 3d 2b ff ff       	call   1270 <get_input>
    e733:	89 45 fc             	mov    DWORD PTR [rbp-0x4],eax
    e736:	81 7d fc 3a 01 00 00 	cmp    DWORD PTR [rbp-0x4],0x13a
    e73d:	75 05                	jne    e744 <main+0xd42d>
    e73f:	e9 45 99 ff ff       	jmp    8089 <main+0x6d72>
    e744:	81 7d fc 42 02 00 00 	cmp    DWORD PTR [rbp-0x4],0x242
    e74b:	0f 84 ca f5 ff ff    	je     dd1b <main+0xca04>
    e751:	48 8d 05 d0 08 00 00 	lea    rax,[rip+0x8d0]        # f028 <_IO_stdin_used+0x28>
    e758:	48 89 c7             	mov    rdi,rax
    e75b:	e8 60 29 ff ff       	call   10c0 <puts@plt>
    e760:	bf 01 00 00 00       	mov    edi,0x1
    e765:	e8 c6 29 ff ff       	call   1130 <exit@plt>
    e76a:	be 5e 02 00 00       	mov    esi,0x25e
    e76f:	48 8d 05 a3 08 00 00 	lea    rax,[rip+0x8a3]        # f019 <_IO_stdin_used+0x19>
    e776:	48 89 c7             	mov    rdi,rax
    e779:	b8 00 00 00 00       	mov    eax,0x0
    e77e:	e8 6d 29 ff ff       	call   10f0 <printf@plt>
    e783:	b8 00 00 00 00       	mov    eax,0x0
    e788:	e8 e3 2a ff ff       	call   1270 <get_input>
    e78d:	89 45 fc             	mov    DWORD PTR [rbp-0x4],eax
    e790:	83 7d fc 44          	cmp    DWORD PTR [rbp-0x4],0x44
    e794:	75 05                	jne    e79b <main+0xd484>
    e796:	e9 a2 42 ff ff       	jmp    2a3d <main+0x1726>
    e79b:	81 7d fc 95 01 00 00 	cmp    DWORD PTR [rbp-0x4],0x195
    e7a2:	75 05                	jne    e7a9 <main+0xd492>
    e7a4:	e9 ed b8 ff ff       	jmp    a096 <main+0x8d7f>
    e7a9:	81 7d fc 65 01 00 00 	cmp    DWORD PTR [rbp-0x4],0x165
    e7b0:	75 05                	jne    e7b7 <main+0xd4a0>
    e7b2:	e9 e1 a7 ff ff       	jmp    8f98 <main+0x7c81>
    e7b7:	48 8d 05 6a 08 00 00 	lea    rax,[rip+0x86a]        # f028 <_IO_stdin_used+0x28>
    e7be:	48 89 c7             	mov    rdi,rax
    e7c1:	e8 fa 28 ff ff       	call   10c0 <puts@plt>
    e7c6:	bf 01 00 00 00       	mov    edi,0x1
    e7cb:	e8 60 29 ff ff       	call   1130 <exit@plt>
    e7d0:	90                   	nop
    e7d1:	be 5f 02 00 00       	mov    esi,0x25f
    e7d6:	48 8d 05 3c 08 00 00 	lea    rax,[rip+0x83c]        # f019 <_IO_stdin_used+0x19>
    e7dd:	48 89 c7             	mov    rdi,rax
    e7e0:	b8 00 00 00 00       	mov    eax,0x0
    e7e5:	e8 06 29 ff ff       	call   10f0 <printf@plt>
    e7ea:	b8 00 00 00 00       	mov    eax,0x0
    e7ef:	e8 7c 2a ff ff       	call   1270 <get_input>
    e7f4:	89 45 fc             	mov    DWORD PTR [rbp-0x4],eax
    e7f7:	83 7d fc 6e          	cmp    DWORD PTR [rbp-0x4],0x6e
    e7fb:	75 05                	jne    e802 <main+0xd4eb>
    e7fd:	e9 48 51 ff ff       	jmp    394a <main+0x2633>
    e802:	48 8d 05 1f 08 00 00 	lea    rax,[rip+0x81f]        # f028 <_IO_stdin_used+0x28>
    e809:	48 89 c7             	mov    rdi,rax
    e80c:	e8 af 28 ff ff       	call   10c0 <puts@plt>
    e811:	bf 01 00 00 00       	mov    edi,0x1
    e816:	e8 15 29 ff ff       	call   1130 <exit@plt>
    e81b:	be 60 02 00 00       	mov    esi,0x260
    e820:	48 8d 05 f2 07 00 00 	lea    rax,[rip+0x7f2]        # f019 <_IO_stdin_used+0x19>
    e827:	48 89 c7             	mov    rdi,rax
    e82a:	b8 00 00 00 00       	mov    eax,0x0
    e82f:	e8 bc 28 ff ff       	call   10f0 <printf@plt>
    e834:	b8 00 00 00 00       	mov    eax,0x0
    e839:	e8 32 2a ff ff       	call   1270 <get_input>
    e83e:	89 45 fc             	mov    DWORD PTR [rbp-0x4],eax
    e841:	81 7d fc 99 00 00 00 	cmp    DWORD PTR [rbp-0x4],0x99
    e848:	75 05                	jne    e84f <main+0xd538>
    e84a:	e9 3b 60 ff ff       	jmp    488a <main+0x3573>
    e84f:	81 7d fc 01 01 00 00 	cmp    DWORD PTR [rbp-0x4],0x101
    e856:	75 05                	jne    e85d <main+0xd546>
    e858:	e9 63 84 ff ff       	jmp    6cc0 <main+0x59a9>
    e85d:	81 7d fc fd 00 00 00 	cmp    DWORD PTR [rbp-0x4],0xfd
    e864:	75 05                	jne    e86b <main+0xd554>
    e866:	e9 f2 82 ff ff       	jmp    6b5d <main+0x5846>
    e86b:	48 8d 05 b6 07 00 00 	lea    rax,[rip+0x7b6]        # f028 <_IO_stdin_used+0x28>
    e872:	48 89 c7             	mov    rdi,rax
    e875:	e8 46 28 ff ff       	call   10c0 <puts@plt>
    e87a:	bf 01 00 00 00       	mov    edi,0x1
    e87f:	e8 ac 28 ff ff       	call   1130 <exit@plt>
    e884:	be 61 02 00 00       	mov    esi,0x261
    e889:	48 8d 05 89 07 00 00 	lea    rax,[rip+0x789]        # f019 <_IO_stdin_used+0x19>
    e890:	48 89 c7             	mov    rdi,rax
    e893:	b8 00 00 00 00       	mov    eax,0x0
    e898:	e8 53 28 ff ff       	call   10f0 <printf@plt>
    e89d:	b8 00 00 00 00       	mov    eax,0x0
    e8a2:	e8 c9 29 ff ff       	call   1270 <get_input>
    e8a7:	89 45 fc             	mov    DWORD PTR [rbp-0x4],eax
    e8aa:	81 7d fc 21 02 00 00 	cmp    DWORD PTR [rbp-0x4],0x221
    e8b1:	75 05                	jne    e8b8 <main+0xd5a1>
    e8b3:	e9 5d e8 ff ff       	jmp    d115 <main+0xbdfe>
    e8b8:	83 7d fc 09          	cmp    DWORD PTR [rbp-0x4],0x9
    e8bc:	75 05                	jne    e8c3 <main+0xd5ac>
    e8be:	e9 4e 2d ff ff       	jmp    1611 <main+0x2fa>
    e8c3:	48 8d 05 5e 07 00 00 	lea    rax,[rip+0x75e]        # f028 <_IO_stdin_used+0x28>
    e8ca:	48 89 c7             	mov    rdi,rax
    e8cd:	e8 ee 27 ff ff       	call   10c0 <puts@plt>
    e8d2:	bf 01 00 00 00       	mov    edi,0x1
    e8d7:	e8 54 28 ff ff       	call   1130 <exit@plt>
    e8dc:	be 62 02 00 00       	mov    esi,0x262
    e8e1:	48 8d 05 31 07 00 00 	lea    rax,[rip+0x731]        # f019 <_IO_stdin_used+0x19>
    e8e8:	48 89 c7             	mov    rdi,rax
    e8eb:	b8 00 00 00 00       	mov    eax,0x0
    e8f0:	e8 fb 27 ff ff       	call   10f0 <printf@plt>
    e8f5:	b8 00 00 00 00       	mov    eax,0x0
    e8fa:	e8 71 29 ff ff       	call   1270 <get_input>
    e8ff:	89 45 fc             	mov    DWORD PTR [rbp-0x4],eax
    e902:	81 7d fc 34 02 00 00 	cmp    DWORD PTR [rbp-0x4],0x234
    e909:	75 05                	jne    e910 <main+0xd5f9>
    e90b:	e9 fc ee ff ff       	jmp    d80c <main+0xc4f5>
    e910:	81 7d fc 0e 01 00 00 	cmp    DWORD PTR [rbp-0x4],0x10e
    e917:	75 05                	jne    e91e <main+0xd607>
    e919:	e9 10 88 ff ff       	jmp    712e <main+0x5e17>
    e91e:	48 8d 05 03 07 00 00 	lea    rax,[rip+0x703]        # f028 <_IO_stdin_used+0x28>
    e925:	48 89 c7             	mov    rdi,rax
    e928:	e8 93 27 ff ff       	call   10c0 <puts@plt>
    e92d:	bf 01 00 00 00       	mov    edi,0x1
    e932:	e8 f9 27 ff ff       	call   1130 <exit@plt>
    e937:	90                   	nop
    e938:	be 63 02 00 00       	mov    esi,0x263
    e93d:	48 8d 05 d5 06 00 00 	lea    rax,[rip+0x6d5]        # f019 <_IO_stdin_used+0x19>
    e944:	48 89 c7             	mov    rdi,rax
    e947:	b8 00 00 00 00       	mov    eax,0x0
    e94c:	e8 9f 27 ff ff       	call   10f0 <printf@plt>
    e951:	b8 00 00 00 00       	mov    eax,0x0
    e956:	e8 15 29 ff ff       	call   1270 <get_input>
    e95b:	89 45 fc             	mov    DWORD PTR [rbp-0x4],eax
    e95e:	81 7d fc af 00 00 00 	cmp    DWORD PTR [rbp-0x4],0xaf
    e965:	75 05                	jne    e96c <main+0xd655>
    e967:	e9 bf 66 ff ff       	jmp    502b <main+0x3d14>
    e96c:	48 8d 05 b5 06 00 00 	lea    rax,[rip+0x6b5]        # f028 <_IO_stdin_used+0x28>
    e973:	48 89 c7             	mov    rdi,rax
    e976:	e8 45 27 ff ff       	call   10c0 <puts@plt>
    e97b:	bf 01 00 00 00       	mov    edi,0x1
    e980:	e8 ab 27 ff ff       	call   1130 <exit@plt>
    e985:	be 64 02 00 00       	mov    esi,0x264
    e98a:	48 8d 05 88 06 00 00 	lea    rax,[rip+0x688]        # f019 <_IO_stdin_used+0x19>
    e991:	48 89 c7             	mov    rdi,rax
    e994:	b8 00 00 00 00       	mov    eax,0x0
    e999:	e8 52 27 ff ff       	call   10f0 <printf@plt>
    e99e:	b8 00 00 00 00       	mov    eax,0x0
    e9a3:	e8 c8 28 ff ff       	call   1270 <get_input>
    e9a8:	89 45 fc             	mov    DWORD PTR [rbp-0x4],eax
    e9ab:	81 7d fc b0 00 00 00 	cmp    DWORD PTR [rbp-0x4],0xb0
    e9b2:	75 05                	jne    e9b9 <main+0xd6a2>
    e9b4:	e9 d9 66 ff ff       	jmp    5092 <main+0x3d7b>
    e9b9:	81 7d fc 78 01 00 00 	cmp    DWORD PTR [rbp-0x4],0x178
    e9c0:	0f 84 82 ac ff ff    	je     9648 <main+0x8331>
    e9c6:	81 7d fc f9 00 00 00 	cmp    DWORD PTR [rbp-0x4],0xf9
    e9cd:	75 05                	jne    e9d4 <main+0xd6bd>
    e9cf:	e9 01 80 ff ff       	jmp    69d5 <main+0x56be>
    e9d4:	48 8d 05 4d 06 00 00 	lea    rax,[rip+0x64d]        # f028 <_IO_stdin_used+0x28>
    e9db:	48 89 c7             	mov    rdi,rax
    e9de:	e8 dd 26 ff ff       	call   10c0 <puts@plt>
    e9e3:	bf 01 00 00 00       	mov    edi,0x1
    e9e8:	e8 43 27 ff ff       	call   1130 <exit@plt>
    e9ed:	be 65 02 00 00       	mov    esi,0x265
    e9f2:	48 8d 05 20 06 00 00 	lea    rax,[rip+0x620]        # f019 <_IO_stdin_used+0x19>
    e9f9:	48 89 c7             	mov    rdi,rax
    e9fc:	b8 00 00 00 00       	mov    eax,0x0
    ea01:	e8 ea 26 ff ff       	call   10f0 <printf@plt>
    ea06:	b8 00 00 00 00       	mov    eax,0x0
    ea0b:	e8 60 28 ff ff       	call   1270 <get_input>
    ea10:	89 45 fc             	mov    DWORD PTR [rbp-0x4],eax
    ea13:	81 7d fc 39 02 00 00 	cmp    DWORD PTR [rbp-0x4],0x239
    ea1a:	75 05                	jne    ea21 <main+0xd70a>
    ea1c:	e9 c9 ef ff ff       	jmp    d9ea <main+0xc6d3>
    ea21:	83 7d fc 64          	cmp    DWORD PTR [rbp-0x4],0x64
    ea25:	75 05                	jne    ea2c <main+0xd715>
    ea27:	e9 88 4b ff ff       	jmp    35b4 <main+0x229d>
    ea2c:	81 7d fc 50 01 00 00 	cmp    DWORD PTR [rbp-0x4],0x150
    ea33:	0f 84 37 9e ff ff    	je     8870 <main+0x7559>
    ea39:	48 8d 05 e8 05 00 00 	lea    rax,[rip+0x5e8]        # f028 <_IO_stdin_used+0x28>
    ea40:	48 89 c7             	mov    rdi,rax
    ea43:	e8 78 26 ff ff       	call   10c0 <puts@plt>
    ea48:	bf 01 00 00 00       	mov    edi,0x1
    ea4d:	e8 de 26 ff ff       	call   1130 <exit@plt>
    ea52:	be 66 02 00 00       	mov    esi,0x266
    ea57:	48 8d 05 bb 05 00 00 	lea    rax,[rip+0x5bb]        # f019 <_IO_stdin_used+0x19>
    ea5e:	48 89 c7             	mov    rdi,rax
    ea61:	b8 00 00 00 00       	mov    eax,0x0
    ea66:	e8 85 26 ff ff       	call   10f0 <printf@plt>
    ea6b:	b8 00 00 00 00       	mov    eax,0x0
    ea70:	e8 fb 27 ff ff       	call   1270 <get_input>
    ea75:	89 45 fc             	mov    DWORD PTR [rbp-0x4],eax
    ea78:	83 7d fc 65          	cmp    DWORD PTR [rbp-0x4],0x65
    ea7c:	75 05                	jne    ea83 <main+0xd76c>
    ea7e:	e9 9a 4b ff ff       	jmp    361d <main+0x2306>
    ea83:	81 7d fc 3d 02 00 00 	cmp    DWORD PTR [rbp-0x4],0x23d
    ea8a:	75 05                	jne    ea91 <main+0xd77a>
    ea8c:	e9 c2 f0 ff ff       	jmp    db53 <main+0xc83c>
    ea91:	83 7d fc 07          	cmp    DWORD PTR [rbp-0x4],0x7
    ea95:	0f 84 d4 2a ff ff    	je     156f <main+0x258>
    ea9b:	81 7d fc 28 01 00 00 	cmp    DWORD PTR [rbp-0x4],0x128
    eaa2:	0f 84 83 8f ff ff    	je     7a2b <main+0x6714>
    eaa8:	48 8d 05 79 05 00 00 	lea    rax,[rip+0x579]        # f028 <_IO_stdin_used+0x28>
    eaaf:	48 89 c7             	mov    rdi,rax
    eab2:	e8 09 26 ff ff       	call   10c0 <puts@plt>
    eab7:	bf 01 00 00 00       	mov    edi,0x1
    eabc:	e8 6f 26 ff ff       	call   1130 <exit@plt>
    eac1:	be 67 02 00 00       	mov    esi,0x267
    eac6:	48 8d 05 4c 05 00 00 	lea    rax,[rip+0x54c]        # f019 <_IO_stdin_used+0x19>
    eacd:	48 89 c7             	mov    rdi,rax
    ead0:	b8 00 00 00 00       	mov    eax,0x0
    ead5:	e8 16 26 ff ff       	call   10f0 <printf@plt>
    eada:	b8 00 00 00 00       	mov    eax,0x0
    eadf:	e8 8c 27 ff ff       	call   1270 <get_input>
    eae4:	89 45 fc             	mov    DWORD PTR [rbp-0x4],eax
    eae7:	81 7d fc 53 01 00 00 	cmp    DWORD PTR [rbp-0x4],0x153
    eaee:	75 05                	jne    eaf5 <main+0xd7de>
    eaf0:	e9 79 9e ff ff       	jmp    896e <main+0x7657>
    eaf5:	81 7d fc 32 01 00 00 	cmp    DWORD PTR [rbp-0x4],0x132
    eafc:	75 05                	jne    eb03 <main+0xd7ec>
    eafe:	e9 ad 92 ff ff       	jmp    7db0 <main+0x6a99>
    eb03:	48 8d 05 1e 05 00 00 	lea    rax,[rip+0x51e]        # f028 <_IO_stdin_used+0x28>
    eb0a:	48 89 c7             	mov    rdi,rax
    eb0d:	e8 ae 25 ff ff       	call   10c0 <puts@plt>
    eb12:	bf 01 00 00 00       	mov    edi,0x1
    eb17:	e8 14 26 ff ff       	call   1130 <exit@plt>
    eb1c:	be 68 02 00 00       	mov    esi,0x268
    eb21:	48 8d 05 f1 04 00 00 	lea    rax,[rip+0x4f1]        # f019 <_IO_stdin_used+0x19>
    eb28:	48 89 c7             	mov    rdi,rax
    eb2b:	b8 00 00 00 00       	mov    eax,0x0
    eb30:	e8 bb 25 ff ff       	call   10f0 <printf@plt>
    eb35:	b8 00 00 00 00       	mov    eax,0x0
    eb3a:	e8 31 27 ff ff       	call   1270 <get_input>
    eb3f:	89 45 fc             	mov    DWORD PTR [rbp-0x4],eax
    eb42:	81 7d fc 2a 01 00 00 	cmp    DWORD PTR [rbp-0x4],0x12a
    eb49:	75 05                	jne    eb50 <main+0xd839>
    eb4b:	e9 81 8f ff ff       	jmp    7ad1 <main+0x67ba>
    eb50:	81 7d fc 8e 01 00 00 	cmp    DWORD PTR [rbp-0x4],0x18e
    eb57:	75 05                	jne    eb5e <main+0xd847>
    eb59:	e9 bb b2 ff ff       	jmp    9e19 <main+0x8b02>
    eb5e:	81 7d fc 40 02 00 00 	cmp    DWORD PTR [rbp-0x4],0x240
    eb65:	0f 84 14 f1 ff ff    	je     dc7f <main+0xc968>
    eb6b:	48 8d 05 b6 04 00 00 	lea    rax,[rip+0x4b6]        # f028 <_IO_stdin_used+0x28>
    eb72:	48 89 c7             	mov    rdi,rax
    eb75:	e8 46 25 ff ff       	call   10c0 <puts@plt>
    eb7a:	bf 01 00 00 00       	mov    edi,0x1
    eb7f:	e8 ac 25 ff ff       	call   1130 <exit@plt>
    eb84:	90                   	nop
    eb85:	be 69 02 00 00       	mov    esi,0x269
    eb8a:	48 8d 05 88 04 00 00 	lea    rax,[rip+0x488]        # f019 <_IO_stdin_used+0x19>
    eb91:	48 89 c7             	mov    rdi,rax
    eb94:	b8 00 00 00 00       	mov    eax,0x0
    eb99:	e8 52 25 ff ff       	call   10f0 <printf@plt>
    eb9e:	b8 00 00 00 00       	mov    eax,0x0
    eba3:	e8 c8 26 ff ff       	call   1270 <get_input>
    eba8:	89 45 fc             	mov    DWORD PTR [rbp-0x4],eax
    ebab:	81 7d fc 51 02 00 00 	cmp    DWORD PTR [rbp-0x4],0x251
    ebb2:	75 05                	jne    ebb9 <main+0xd8a2>
    ebb4:	e9 f2 f6 ff ff       	jmp    e2ab <main+0xcf94>
    ebb9:	48 8d 05 68 04 00 00 	lea    rax,[rip+0x468]        # f028 <_IO_stdin_used+0x28>
    ebc0:	48 89 c7             	mov    rdi,rax
    ebc3:	e8 f8 24 ff ff       	call   10c0 <puts@plt>
    ebc8:	bf 01 00 00 00       	mov    edi,0x1
    ebcd:	e8 5e 25 ff ff       	call   1130 <exit@plt>
    ebd2:	be 6a 02 00 00       	mov    esi,0x26a
    ebd7:	48 8d 05 3b 04 00 00 	lea    rax,[rip+0x43b]        # f019 <_IO_stdin_used+0x19>
    ebde:	48 89 c7             	mov    rdi,rax
    ebe1:	b8 00 00 00 00       	mov    eax,0x0
    ebe6:	e8 05 25 ff ff       	call   10f0 <printf@plt>
    ebeb:	b8 00 00 00 00       	mov    eax,0x0
    ebf0:	e8 7b 26 ff ff       	call   1270 <get_input>
    ebf5:	89 45 fc             	mov    DWORD PTR [rbp-0x4],eax
    ebf8:	81 7d fc aa 01 00 00 	cmp    DWORD PTR [rbp-0x4],0x1aa
    ebff:	75 05                	jne    ec06 <main+0xd8ef>
    ec01:	e9 3c bc ff ff       	jmp    a842 <main+0x952b>
    ec06:	81 7d fc 0f 01 00 00 	cmp    DWORD PTR [rbp-0x4],0x10f
    ec0d:	0f 84 75 85 ff ff    	je     7188 <main+0x5e71>
    ec13:	48 8d 05 0e 04 00 00 	lea    rax,[rip+0x40e]        # f028 <_IO_stdin_used+0x28>
    ec1a:	48 89 c7             	mov    rdi,rax
    ec1d:	e8 9e 24 ff ff       	call   10c0 <puts@plt>
    ec22:	bf 01 00 00 00       	mov    edi,0x1
    ec27:	e8 04 25 ff ff       	call   1130 <exit@plt>
    ec2c:	be 6b 02 00 00       	mov    esi,0x26b
    ec31:	48 8d 05 e1 03 00 00 	lea    rax,[rip+0x3e1]        # f019 <_IO_stdin_used+0x19>
    ec38:	48 89 c7             	mov    rdi,rax
    ec3b:	b8 00 00 00 00       	mov    eax,0x0
    ec40:	e8 ab 24 ff ff       	call   10f0 <printf@plt>
    ec45:	b8 00 00 00 00       	mov    eax,0x0
    ec4a:	e8 21 26 ff ff       	call   1270 <get_input>
    ec4f:	89 45 fc             	mov    DWORD PTR [rbp-0x4],eax
    ec52:	83 7d fc 6b          	cmp    DWORD PTR [rbp-0x4],0x6b
    ec56:	75 05                	jne    ec5d <main+0xd946>
    ec58:	e9 d6 4b ff ff       	jmp    3833 <main+0x251c>
    ec5d:	81 7d fc 59 01 00 00 	cmp    DWORD PTR [rbp-0x4],0x159
    ec64:	0f 84 26 9f ff ff    	je     8b90 <main+0x7879>
    ec6a:	48 8d 05 b7 03 00 00 	lea    rax,[rip+0x3b7]        # f028 <_IO_stdin_used+0x28>
    ec71:	48 89 c7             	mov    rdi,rax
    ec74:	e8 47 24 ff ff       	call   10c0 <puts@plt>
    ec79:	bf 01 00 00 00       	mov    edi,0x1
    ec7e:	e8 ad 24 ff ff       	call   1130 <exit@plt>
    ec83:	be 6c 02 00 00       	mov    esi,0x26c
    ec88:	48 8d 05 8a 03 00 00 	lea    rax,[rip+0x38a]        # f019 <_IO_stdin_used+0x19>
    ec8f:	48 89 c7             	mov    rdi,rax
    ec92:	b8 00 00 00 00       	mov    eax,0x0
    ec97:	e8 54 24 ff ff       	call   10f0 <printf@plt>
    ec9c:	b8 00 00 00 00       	mov    eax,0x0
    eca1:	e8 ca 25 ff ff       	call   1270 <get_input>
    eca6:	89 45 fc             	mov    DWORD PTR [rbp-0x4],eax
    eca9:	81 7d fc 7c 01 00 00 	cmp    DWORD PTR [rbp-0x4],0x17c
    ecb0:	0f 84 dd aa ff ff    	je     9793 <main+0x847c>
    ecb6:	81 7d fc bf 00 00 00 	cmp    DWORD PTR [rbp-0x4],0xbf
    ecbd:	75 05                	jne    ecc4 <main+0xd9ad>
    ecbf:	e9 08 69 ff ff       	jmp    55cc <main+0x42b5>
    ecc4:	81 7d fc 79 01 00 00 	cmp    DWORD PTR [rbp-0x4],0x179
    eccb:	0f 84 c5 a9 ff ff    	je     9696 <main+0x837f>
    ecd1:	48 8d 05 50 03 00 00 	lea    rax,[rip+0x350]        # f028 <_IO_stdin_used+0x28>
    ecd8:	48 89 c7             	mov    rdi,rax
    ecdb:	e8 e0 23 ff ff       	call   10c0 <puts@plt>
    ece0:	bf 01 00 00 00       	mov    edi,0x1
    ece5:	e8 46 24 ff ff       	call   1130 <exit@plt>
    ecea:	90                   	nop
    eceb:	be 6d 02 00 00       	mov    esi,0x26d
    ecf0:	48 8d 05 22 03 00 00 	lea    rax,[rip+0x322]        # f019 <_IO_stdin_used+0x19>
    ecf7:	48 89 c7             	mov    rdi,rax
    ecfa:	b8 00 00 00 00       	mov    eax,0x0
    ecff:	e8 ec 23 ff ff       	call   10f0 <printf@plt>
    ed04:	b8 00 00 00 00       	mov    eax,0x0
    ed09:	e8 62 25 ff ff       	call   1270 <get_input>
    ed0e:	89 45 fc             	mov    DWORD PTR [rbp-0x4],eax
    ed11:	81 7d fc af 00 00 00 	cmp    DWORD PTR [rbp-0x4],0xaf
    ed18:	75 05                	jne    ed1f <main+0xda08>
    ed1a:	e9 0c 63 ff ff       	jmp    502b <main+0x3d14>
    ed1f:	48 8d 05 02 03 00 00 	lea    rax,[rip+0x302]        # f028 <_IO_stdin_used+0x28>
    ed26:	48 89 c7             	mov    rdi,rax
    ed29:	e8 92 23 ff ff       	call   10c0 <puts@plt>
    ed2e:	bf 01 00 00 00       	mov    edi,0x1
    ed33:	e8 f8 23 ff ff       	call   1130 <exit@plt>
    ed38:	be 6e 02 00 00       	mov    esi,0x26e
    ed3d:	48 8d 05 d5 02 00 00 	lea    rax,[rip+0x2d5]        # f019 <_IO_stdin_used+0x19>
    ed44:	48 89 c7             	mov    rdi,rax
    ed47:	b8 00 00 00 00       	mov    eax,0x0
    ed4c:	e8 9f 23 ff ff       	call   10f0 <printf@plt>
    ed51:	b8 00 00 00 00       	mov    eax,0x0
    ed56:	e8 15 25 ff ff       	call   1270 <get_input>
    ed5b:	89 45 fc             	mov    DWORD PTR [rbp-0x4],eax
    ed5e:	81 7d fc 26 01 00 00 	cmp    DWORD PTR [rbp-0x4],0x126
    ed65:	75 05                	jne    ed6c <main+0xda55>
    ed67:	e9 09 8c ff ff       	jmp    7975 <main+0x665e>
    ed6c:	83 7d fc 56          	cmp    DWORD PTR [rbp-0x4],0x56
    ed70:	75 05                	jne    ed77 <main+0xda60>
    ed72:	e9 57 43 ff ff       	jmp    30ce <main+0x1db7>
    ed77:	48 8d 05 aa 02 00 00 	lea    rax,[rip+0x2aa]        # f028 <_IO_stdin_used+0x28>
    ed7e:	48 89 c7             	mov    rdi,rax
    ed81:	e8 3a 23 ff ff       	call   10c0 <puts@plt>
    ed86:	bf 01 00 00 00       	mov    edi,0x1
    ed8b:	e8 a0 23 ff ff       	call   1130 <exit@plt>
    ed90:	be 6f 02 00 00       	mov    esi,0x26f
    ed95:	48 8d 05 7d 02 00 00 	lea    rax,[rip+0x27d]        # f019 <_IO_stdin_used+0x19>
    ed9c:	48 89 c7             	mov    rdi,rax
    ed9f:	b8 00 00 00 00       	mov    eax,0x0
    eda4:	e8 47 23 ff ff       	call   10f0 <printf@plt>
    eda9:	b8 00 00 00 00       	mov    eax,0x0
    edae:	e8 bd 24 ff ff       	call   1270 <get_input>
    edb3:	89 45 fc             	mov    DWORD PTR [rbp-0x4],eax
    edb6:	83 7d fc 32          	cmp    DWORD PTR [rbp-0x4],0x32
    edba:	0f 84 70 36 ff ff    	je     2430 <main+0x1119>
    edc0:	83 7d fc 62          	cmp    DWORD PTR [rbp-0x4],0x62
    edc4:	75 05                	jne    edcb <main+0xdab4>
    edc6:	e9 39 47 ff ff       	jmp    3504 <main+0x21ed>
    edcb:	48 8d 05 56 02 00 00 	lea    rax,[rip+0x256]        # f028 <_IO_stdin_used+0x28>
    edd2:	48 89 c7             	mov    rdi,rax
    edd5:	e8 e6 22 ff ff       	call   10c0 <puts@plt>
    edda:	bf 01 00 00 00       	mov    edi,0x1
    eddf:	e8 4c 23 ff ff       	call   1130 <exit@plt>
    ede4:	90                   	nop
    ede5:	be 70 02 00 00       	mov    esi,0x270
    edea:	48 8d 05 28 02 00 00 	lea    rax,[rip+0x228]        # f019 <_IO_stdin_used+0x19>
    edf1:	48 89 c7             	mov    rdi,rax
    edf4:	b8 00 00 00 00       	mov    eax,0x0
    edf9:	e8 f2 22 ff ff       	call   10f0 <printf@plt>
    edfe:	48 8d 05 42 02 00 00 	lea    rax,[rip+0x242]        # f047 <_IO_stdin_used+0x47>
    ee05:	48 89 c7             	mov    rdi,rax
    ee08:	e8 b3 22 ff ff       	call   10c0 <puts@plt>
    ee0d:	b8 00 00 00 00       	mov    eax,0x0
    ee12:	c9                   	leave
    ee13:	c3                   	ret

Disassembly of section .fini:

000000000000ee14 <_fini>:
    ee14:	f3 0f 1e fa          	endbr64
    ee18:	48 83 ec 08          	sub    rsp,0x8
    ee1c:	48 83 c4 08          	add    rsp,0x8
    ee20:	c3                   	ret
